TN:
SF:/usr/include/c++/8/bits/alloc_traits.h
FN:435,_ZNSt16allocator_traitsISaISt5tupleIJddEEEE8allocateERS2_m
FN:435,_ZNSt16allocator_traitsISaISt5tupleIJS0_IJddEES1_S0_IJiiEEEEEE8allocateERS4_m
FN:435,_ZNSt16allocator_traitsISaISt5tupleIJdS0_IJddEEEEEE8allocateERS3_m
FN:435,_ZNSt16allocator_traitsISaISt5tupleIJiiEEEE8allocateERS2_m
FN:461,_ZNSt16allocator_traitsISaISt5tupleIJddEEEE10deallocateERS2_PS1_m
FN:461,_ZNSt16allocator_traitsISaISt5tupleIJiiEEEE10deallocateERS2_PS1_m
FN:461,_ZNSt16allocator_traitsISaISt5tupleIJdS0_IJddEEEEEE10deallocateERS3_PS2_m
FN:461,_ZNSt16allocator_traitsISaISt5tupleIJS0_IJddEES1_S0_IJiiEEEEEE10deallocateERS4_PS3_m
FN:474,_ZNSt16allocator_traitsISaISt5tupleIJiiEEEE9constructIS1_JRKS1_EEEvRS2_PT_DpOT0_
FN:474,_ZNSt16allocator_traitsISaISt5tupleIJS0_IJddEES1_S0_IJiiEEEEEE9constructIS3_JRKS3_EEEvRS4_PT_DpOT0_
FN:474,_ZNSt16allocator_traitsISaISt5tupleIJddEEEE9constructIS1_JRKS1_EEEvRS2_PT_DpOT0_
FN:486,_ZNSt16allocator_traitsISaISt5tupleIJiiEEEE7destroyIS1_EEvRS2_PT_
FN:486,_ZNSt16allocator_traitsISaISt5tupleIJddEEEE7destroyIS1_EEvRS2_PT_
FN:486,_ZNSt16allocator_traitsISaISt5tupleIJS0_IJddEES1_S0_IJiiEEEEEE7destroyIS3_EEvRS4_PT_
FN:495,_ZNSt16allocator_traitsISaISt5tupleIJS0_IJddEES1_S0_IJiiEEEEEE8max_sizeERKS4_
FN:495,_ZNSt16allocator_traitsISaISt5tupleIJddEEEE8max_sizeERKS2_
FN:495,_ZNSt16allocator_traitsISaISt5tupleIJiiEEEE8max_sizeERKS2_
FN:504,_ZNSt16allocator_traitsISaISt5tupleIJS0_IJddEES1_S0_IJiiEEEEEE37select_on_container_copy_constructionERKS4_
FN:504,_ZNSt16allocator_traitsISaISt5tupleIJdS0_IJddEEEEEE37select_on_container_copy_constructionERKS3_
FN:516,_ZSt18__do_alloc_on_copyISaISt5tupleIJddEEEEvRT_RKS3_St17integral_constantIbLb0EE
FN:516,_ZSt18__do_alloc_on_copyISaISt5tupleIJdS0_IJddEEEEEEvRT_RKS4_St17integral_constantIbLb0EE
FN:520,_ZSt15__alloc_on_copyISaISt5tupleIJdS0_IJddEEEEEEvRT_RKS4_
FN:520,_ZSt15__alloc_on_copyISaISt5tupleIJddEEEEvRT_RKS3_
FNDA:16,_ZNSt16allocator_traitsISaISt5tupleIJiiEEEE8allocateERS2_m
FNDA:106,_ZNSt16allocator_traitsISaISt5tupleIJS0_IJddEES1_S0_IJiiEEEEEE8allocateERS4_m
FNDA:302,_ZNSt16allocator_traitsISaISt5tupleIJdS0_IJddEEEEEE8allocateERS3_m
FNDA:0,_ZNSt16allocator_traitsISaISt5tupleIJddEEEE8allocateERS2_m
FNDA:16,_ZNSt16allocator_traitsISaISt5tupleIJiiEEEE10deallocateERS2_PS1_m
FNDA:106,_ZNSt16allocator_traitsISaISt5tupleIJS0_IJddEES1_S0_IJiiEEEEEE10deallocateERS4_PS3_m
FNDA:302,_ZNSt16allocator_traitsISaISt5tupleIJdS0_IJddEEEEEE10deallocateERS3_PS2_m
FNDA:0,_ZNSt16allocator_traitsISaISt5tupleIJddEEEE10deallocateERS2_PS1_m
FNDA:20,_ZNSt16allocator_traitsISaISt5tupleIJiiEEEE9constructIS1_JRKS1_EEEvRS2_PT_DpOT0_
FNDA:487,_ZNSt16allocator_traitsISaISt5tupleIJS0_IJddEES1_S0_IJiiEEEEEE9constructIS3_JRKS3_EEEvRS4_PT_DpOT0_
FNDA:8,_ZNSt16allocator_traitsISaISt5tupleIJddEEEE9constructIS1_JRKS1_EEEvRS2_PT_DpOT0_
FNDA:0,_ZNSt16allocator_traitsISaISt5tupleIJiiEEEE7destroyIS1_EEvRS2_PT_
FNDA:0,_ZNSt16allocator_traitsISaISt5tupleIJS0_IJddEES1_S0_IJiiEEEEEE7destroyIS3_EEvRS4_PT_
FNDA:0,_ZNSt16allocator_traitsISaISt5tupleIJddEEEE7destroyIS1_EEvRS2_PT_
FNDA:30,_ZNSt16allocator_traitsISaISt5tupleIJiiEEEE8max_sizeERKS2_
FNDA:104,_ZNSt16allocator_traitsISaISt5tupleIJS0_IJddEES1_S0_IJiiEEEEEE8max_sizeERKS4_
FNDA:16,_ZNSt16allocator_traitsISaISt5tupleIJddEEEE8max_sizeERKS2_
FNDA:54,_ZNSt16allocator_traitsISaISt5tupleIJS0_IJddEES1_S0_IJiiEEEEEE37select_on_container_copy_constructionERKS4_
FNDA:220,_ZNSt16allocator_traitsISaISt5tupleIJdS0_IJddEEEEEE37select_on_container_copy_constructionERKS3_
FNDA:0,_ZSt18__do_alloc_on_copyISaISt5tupleIJdS0_IJddEEEEEEvRT_RKS4_St17integral_constantIbLb0EE
FNDA:0,_ZSt18__do_alloc_on_copyISaISt5tupleIJddEEEEvRT_RKS3_St17integral_constantIbLb0EE
FNDA:0,_ZSt15__alloc_on_copyISaISt5tupleIJdS0_IJddEEEEEEvRT_RKS4_
FNDA:0,_ZSt15__alloc_on_copyISaISt5tupleIJddEEEEvRT_RKS3_
FNF:23
FNH:14
DA:435,424
DA:436,424
DA:461,424
DA:462,424
DA:474,515
DA:475,515
DA:486,0
DA:487,0
DA:495,150
DA:496,150
DA:504,274
DA:505,274
DA:516,0
DA:517,0
DA:520,0
DA:524,0
DA:525,0
LF:17
LH:10
end_of_record
SF:/usr/include/c++/8/ext/alloc_traits.h
FN:94,_ZN9__gnu_cxx14__alloc_traitsISaISt5tupleIJdS1_IJddEEEEES3_E17_S_select_on_copyERKS4_
FN:94,_ZN9__gnu_cxx14__alloc_traitsISaISt5tupleIJS1_IJddEES2_S1_IJiiEEEEES4_E17_S_select_on_copyERKS5_
FN:100,_ZN9__gnu_cxx14__alloc_traitsISaISt5tupleIJdS1_IJddEEEEES3_E27_S_propagate_on_copy_assignEv
FN:100,_ZN9__gnu_cxx14__alloc_traitsISaISt5tupleIJddEEES2_E27_S_propagate_on_copy_assignEv
FN:109,_ZN9__gnu_cxx14__alloc_traitsISaISt5tupleIJdS1_IJddEEEEES3_E15_S_always_equalEv
FN:109,_ZN9__gnu_cxx14__alloc_traitsISaISt5tupleIJddEEES2_E15_S_always_equalEv
FNDA:54,_ZN9__gnu_cxx14__alloc_traitsISaISt5tupleIJS1_IJddEES2_S1_IJiiEEEEES4_E17_S_select_on_copyERKS5_
FNDA:220,_ZN9__gnu_cxx14__alloc_traitsISaISt5tupleIJdS1_IJddEEEEES3_E17_S_select_on_copyERKS4_
FNDA:18,_ZN9__gnu_cxx14__alloc_traitsISaISt5tupleIJdS1_IJddEEEEES3_E27_S_propagate_on_copy_assignEv
FNDA:3,_ZN9__gnu_cxx14__alloc_traitsISaISt5tupleIJddEEES2_E27_S_propagate_on_copy_assignEv
FNDA:0,_ZN9__gnu_cxx14__alloc_traitsISaISt5tupleIJdS1_IJddEEEEES3_E15_S_always_equalEv
FNDA:0,_ZN9__gnu_cxx14__alloc_traitsISaISt5tupleIJddEEES2_E15_S_always_equalEv
FNF:6
FNH:4
DA:94,274
DA:95,274
DA:100,21
DA:101,21
DA:109,0
DA:110,0
LF:6
LH:4
end_of_record
SF:/usr/include/c++/8/bits/allocator.h
FN:131,_ZNSaISt5tupleIJddEEEC2Ev
FN:131,_ZNSaISt5tupleIJiiEEEC2Ev
FN:131,_ZNSaISt5tupleIJdS_IJddEEEEEC2Ev
FN:131,_ZNSaISt5tupleIJS_IJddEES0_S_IJiiEEEEEC2Ev
FN:133,_ZNSaISt5tupleIJS_IJddEES0_S_IJiiEEEEEC2ERKS3_
FN:133,_ZNSaISt5tupleIJdS_IJddEEEEEC2ERKS2_
FN:139,_ZNSaISt5tupleIJS_IJddEES0_S_IJiiEEEEED2Ev
FN:139,_ZNSaISt5tupleIJddEEED2Ev
FN:139,_ZNSaISt5tupleIJiiEEED2Ev
FN:139,_ZNSaISt5tupleIJdS_IJddEEEEED2Ev
FN:164,_ZStneISt5tupleIJddEEEbRKSaIT_ES5_
FN:164,_ZStneISt5tupleIJdS0_IJddEEEEEbRKSaIT_ES6_
FNDA:7,_ZNSaISt5tupleIJiiEEEC2Ev
FNDA:10,_ZNSaISt5tupleIJS_IJddEES0_S_IJiiEEEEEC2Ev
FNDA:49,_ZNSaISt5tupleIJdS_IJddEEEEEC2Ev
FNDA:0,_ZNSaISt5tupleIJddEEEC2Ev
FNDA:108,_ZNSaISt5tupleIJS_IJddEES0_S_IJiiEEEEEC2ERKS3_
FNDA:472,_ZNSaISt5tupleIJdS_IJddEEEEEC2ERKS2_
FNDA:8,_ZNSaISt5tupleIJiiEEED2Ev
FNDA:0,_ZNSaISt5tupleIJddEEED2Ev
FNDA:118,_ZNSaISt5tupleIJS_IJddEES0_S_IJiiEEEEED2Ev
FNDA:521,_ZNSaISt5tupleIJdS_IJddEEEEED2Ev
FNDA:0,_ZStneISt5tupleIJdS0_IJddEEEEEbRKSaIT_ES6_
FNDA:0,_ZStneISt5tupleIJddEEEbRKSaIT_ES5_
FNF:12
FNH:8
DA:131,66
DA:133,580
DA:134,580
DA:139,647
DA:164,0
DA:166,0
LF:6
LH:4
end_of_record
SF:/usr/include/c++/8/bits/cpp_type_traits.h
FN:419,_ZSt12__miter_baseIN9__gnu_cxx17__normal_iteratorIPKSt5tupleIJddEESt6vectorIS3_SaIS3_EEEEET_SA_
FN:419,_ZSt12__miter_baseIN9__gnu_cxx17__normal_iteratorIPKSt5tupleIJdS2_IJddEEEESt6vectorIS4_SaIS4_EEEEET_SB_
FN:419,_ZSt12__miter_baseIPSt5tupleIJdS0_IJddEEEEET_S4_
FN:419,_ZSt12__miter_baseIPSt5tupleIJddEEET_S3_
FNDA:0,_ZSt12__miter_baseIPSt5tupleIJdS0_IJddEEEEET_S4_
FNDA:26,_ZSt12__miter_baseIN9__gnu_cxx17__normal_iteratorIPKSt5tupleIJdS2_IJddEEEESt6vectorIS4_SaIS4_EEEEET_SB_
FNDA:0,_ZSt12__miter_baseIPSt5tupleIJddEEET_S3_
FNDA:4,_ZSt12__miter_baseIN9__gnu_cxx17__normal_iteratorIPKSt5tupleIJddEESt6vectorIS3_SaIS3_EEEEET_SA_
FNF:4
FNH:2
DA:419,30
DA:420,30
LF:2
LH:2
end_of_record
SF:/usr/include/c++/8/bits/ios_base.h
FN:87,_ZStorSt13_Ios_FmtflagsS_
FN:99,_ZStoRRSt13_Ios_FmtflagsS_
FN:648,_ZNSt8ios_base4setfESt13_Ios_Fmtflags
FN:700,_ZNSt8ios_base9precisionEl
FNDA:1,_ZStorSt13_Ios_FmtflagsS_
FNDA:1,_ZStoRRSt13_Ios_FmtflagsS_
FNDA:1,_ZNSt8ios_base4setfESt13_Ios_Fmtflags
FNDA:1,_ZNSt8ios_base9precisionEl
FNF:4
FNH:4
DA:87,1
DA:88,1
DA:99,1
DA:100,1
DA:648,1
DA:650,1
DA:651,1
DA:652,1
DA:700,1
DA:702,1
DA:703,1
DA:704,1
LF:12
LH:12
end_of_record
SF:/usr/include/c++/8/bits/move.h
FN:47,_ZSt11__addressofISt5tupleIJiiEEEPT_RS2_
FN:47,_ZSt11__addressofISt5tupleIJS0_IJddEES1_S0_IJiiEEEEEPT_RS4_
FN:47,_ZSt11__addressofISt5tupleIJddEEEPT_RS2_
FN:47,_ZSt11__addressofISt5tupleIJdS0_IJddEEEEEPT_RS3_
FN:74,_ZSt7forwardISt5tupleIJddEEEOT_RNSt16remove_referenceIS2_E4typeE
FN:74,_ZSt7forwardISt5tupleIJiiEEEOT_RNSt16remove_referenceIS2_E4typeE
FN:74,_ZSt7forwardIdEOT_RNSt16remove_referenceIS0_E4typeE
FN:74,_ZSt7forwardIRdEOT_RNSt16remove_referenceIS1_E4typeE
FN:74,_ZSt7forwardIRSt5tupleIJddEEEOT_RNSt16remove_referenceIS3_E4typeE
FN:74,_ZSt7forwardIRKSt5tupleIJdS0_IJddEEEEEOT_RNSt16remove_referenceIS5_E4typeE
FN:74,_ZSt7forwardIiEOT_RNSt16remove_referenceIS0_E4typeE
FN:74,_ZSt7forwardIRSt5tupleIJdS0_IJddEEEEEOT_RNSt16remove_referenceIS4_E4typeE
FN:74,_ZSt7forwardIRKSt5tupleIJddEEEOT_RNSt16remove_referenceIS4_E4typeE
FN:74,_ZSt7forwardIRiEOT_RNSt16remove_referenceIS1_E4typeE
FN:74,_ZSt7forwardIRKSt5tupleIJS0_IJddEES1_S0_IJiiEEEEEOT_RNSt16remove_referenceIS6_E4typeE
FN:74,_ZSt7forwardISt5tupleIJS0_IJddEES1_S0_IJiiEEEEEOT_RNSt16remove_referenceIS4_E4typeE
FN:74,_ZSt7forwardIRSt5tupleIJiiEEEOT_RNSt16remove_referenceIS3_E4typeE
FN:74,_ZSt7forwardIRKSt5tupleIJiiEEEOT_RNSt16remove_referenceIS4_E4typeE
FN:99,_ZSt4moveIRSt5tupleIJiiEEEONSt16remove_referenceIT_E4typeEOS4_
FN:99,_ZSt4moveIRSt5tupleIJddEEEONSt16remove_referenceIT_E4typeEOS4_
FN:99,_ZSt4moveIRSt11_Tuple_implILm1EJSt5tupleIJddEES1_IJiiEEEEEONSt16remove_referenceIT_E4typeEOS7_
FN:99,_ZSt4moveIRSt11_Tuple_implILm1EJdEEEONSt16remove_referenceIT_E4typeEOS4_
FN:99,_ZSt4moveIRSt11_Tuple_implILm2EJSt5tupleIJiiEEEEEONSt16remove_referenceIT_E4typeEOS6_
FN:99,_ZSt4moveIRSt11_Tuple_implILm1EJiEEEONSt16remove_referenceIT_E4typeEOS4_
FNDA:19,_ZSt11__addressofISt5tupleIJiiEEEPT_RS2_
FNDA:1275,_ZSt11__addressofISt5tupleIJS0_IJddEES1_S0_IJiiEEEEEPT_RS4_
FNDA:0,_ZSt11__addressofISt5tupleIJddEEEPT_RS2_
FNDA:1105,_ZSt11__addressofISt5tupleIJdS0_IJddEEEEEPT_RS3_
FNDA:807,_ZSt7forwardISt5tupleIJS0_IJddEES1_S0_IJiiEEEEEOT_RNSt16remove_referenceIS4_E4typeE
FNDA:0,_ZSt7forwardIRSt5tupleIJdS0_IJddEEEEEOT_RNSt16remove_referenceIS4_E4typeE
FNDA:1004,_ZSt7forwardIRKSt5tupleIJdS0_IJddEEEEEOT_RNSt16remove_referenceIS5_E4typeE
FNDA:59,_ZSt7forwardIRKSt5tupleIJiiEEEOT_RNSt16remove_referenceIS4_E4typeE
FNDA:1494,_ZSt7forwardIRKSt5tupleIJS0_IJddEES1_S0_IJiiEEEEEOT_RNSt16remove_referenceIS6_E4typeE
FNDA:0,_ZSt7forwardIRKSt5tupleIJddEEEOT_RNSt16remove_referenceIS4_E4typeE
FNDA:3605,_ZSt7forwardISt5tupleIJddEEEOT_RNSt16remove_referenceIS2_E4typeE
FNDA:1629,_ZSt7forwardISt5tupleIJiiEEEOT_RNSt16remove_referenceIS2_E4typeE
FNDA:2922,_ZSt7forwardIRSt5tupleIJiiEEEOT_RNSt16remove_referenceIS3_E4typeE
FNDA:5348,_ZSt7forwardIRSt5tupleIJddEEEOT_RNSt16remove_referenceIS3_E4typeE
FNDA:11887,_ZSt7forwardIRdEOT_RNSt16remove_referenceIS1_E4typeE
FNDA:3409,_ZSt7forwardIRiEOT_RNSt16remove_referenceIS1_E4typeE
FNDA:3579,_ZSt7forwardIiEOT_RNSt16remove_referenceIS0_E4typeE
FNDA:7600,_ZSt7forwardIdEOT_RNSt16remove_referenceIS0_E4typeE
FNDA:807,_ZSt4moveIRSt11_Tuple_implILm1EJSt5tupleIJddEES1_IJiiEEEEEONSt16remove_referenceIT_E4typeEOS7_
FNDA:3,_ZSt4moveIRSt5tupleIJddEEEONSt16remove_referenceIT_E4typeEOS4_
FNDA:866,_ZSt4moveIRSt11_Tuple_implILm1EJiEEEONSt16remove_referenceIT_E4typeEOS4_
FNDA:44,_ZSt4moveIRSt5tupleIJiiEEEONSt16remove_referenceIT_E4typeEOS4_
FNDA:1809,_ZSt4moveIRSt11_Tuple_implILm1EJdEEEONSt16remove_referenceIT_E4typeEOS4_
FNDA:807,_ZSt4moveIRSt11_Tuple_implILm2EJSt5tupleIJiiEEEEEONSt16remove_referenceIT_E4typeEOS6_
FNF:24
FNH:21
DA:47,2399
DA:48,2399
DA:74,43343
DA:75,43343
DA:99,4336
DA:100,4336
LF:6
LH:6
end_of_record
SF:/usr/include/c++/8/new
FN:168,_ZnwmPv
FNDA:0,_ZnwmPv
FNF:1
FNH:0
DA:168,0
DA:169,0
LF:2
LH:0
end_of_record
SF:/usr/include/c++/8/ext/new_allocator.h
FN:79,_ZN9__gnu_cxx13new_allocatorISt5tupleIJddEEEC2Ev
FN:79,_ZN9__gnu_cxx13new_allocatorISt5tupleIJS1_IJddEES2_S1_IJiiEEEEEC2Ev
FN:79,_ZN9__gnu_cxx13new_allocatorISt5tupleIJdS1_IJddEEEEEC2Ev
FN:79,_ZN9__gnu_cxx13new_allocatorISt5tupleIJiiEEEC2Ev
FN:81,_ZN9__gnu_cxx13new_allocatorISt5tupleIJS1_IJddEES2_S1_IJiiEEEEEC2ERKS5_
FN:81,_ZN9__gnu_cxx13new_allocatorISt5tupleIJdS1_IJddEEEEEC2ERKS4_
FN:86,_ZN9__gnu_cxx13new_allocatorISt5tupleIJS1_IJddEES2_S1_IJiiEEEEED2Ev
FN:86,_ZN9__gnu_cxx13new_allocatorISt5tupleIJdS1_IJddEEEEED2Ev
FN:86,_ZN9__gnu_cxx13new_allocatorISt5tupleIJddEEED2Ev
FN:86,_ZN9__gnu_cxx13new_allocatorISt5tupleIJiiEEED2Ev
FN:99,_ZN9__gnu_cxx13new_allocatorISt5tupleIJdS1_IJddEEEEE8allocateEmPKv
FN:99,_ZN9__gnu_cxx13new_allocatorISt5tupleIJS1_IJddEES2_S1_IJiiEEEEE8allocateEmPKv
FN:99,_ZN9__gnu_cxx13new_allocatorISt5tupleIJddEEE8allocateEmPKv
FN:99,_ZN9__gnu_cxx13new_allocatorISt5tupleIJiiEEE8allocateEmPKv
FN:116,_ZN9__gnu_cxx13new_allocatorISt5tupleIJddEEE10deallocateEPS2_m
FN:116,_ZN9__gnu_cxx13new_allocatorISt5tupleIJiiEEE10deallocateEPS2_m
FN:116,_ZN9__gnu_cxx13new_allocatorISt5tupleIJdS1_IJddEEEEE10deallocateEPS3_m
FN:116,_ZN9__gnu_cxx13new_allocatorISt5tupleIJS1_IJddEES2_S1_IJiiEEEEE10deallocateEPS4_m
FN:129,_ZNK9__gnu_cxx13new_allocatorISt5tupleIJS1_IJddEES2_S1_IJiiEEEEE8max_sizeEv
FN:129,_ZNK9__gnu_cxx13new_allocatorISt5tupleIJdS1_IJddEEEEE8max_sizeEv
FN:129,_ZNK9__gnu_cxx13new_allocatorISt5tupleIJiiEEE8max_sizeEv
FN:129,_ZNK9__gnu_cxx13new_allocatorISt5tupleIJddEEE8max_sizeEv
FN:135,_ZN9__gnu_cxx13new_allocatorISt5tupleIJddEEE9constructIS2_JRKS2_EEEvPT_DpOT0_
FN:135,_ZN9__gnu_cxx13new_allocatorISt5tupleIJiiEEE9constructIS2_JRKS2_EEEvPT_DpOT0_
FN:135,_ZN9__gnu_cxx13new_allocatorISt5tupleIJS1_IJddEES2_S1_IJiiEEEEE9constructIS4_JRKS4_EEEvPT_DpOT0_
FN:140,_ZN9__gnu_cxx13new_allocatorISt5tupleIJddEEE7destroyIS2_EEvPT_
FN:140,_ZN9__gnu_cxx13new_allocatorISt5tupleIJS1_IJddEES2_S1_IJiiEEEEE7destroyIS4_EEvPT_
FN:140,_ZN9__gnu_cxx13new_allocatorISt5tupleIJiiEEE7destroyIS2_EEvPT_
FNDA:7,_ZN9__gnu_cxx13new_allocatorISt5tupleIJiiEEEC2Ev
FNDA:10,_ZN9__gnu_cxx13new_allocatorISt5tupleIJS1_IJddEES2_S1_IJiiEEEEEC2Ev
FNDA:49,_ZN9__gnu_cxx13new_allocatorISt5tupleIJdS1_IJddEEEEEC2Ev
FNDA:0,_ZN9__gnu_cxx13new_allocatorISt5tupleIJddEEEC2Ev
FNDA:108,_ZN9__gnu_cxx13new_allocatorISt5tupleIJS1_IJddEES2_S1_IJiiEEEEEC2ERKS5_
FNDA:472,_ZN9__gnu_cxx13new_allocatorISt5tupleIJdS1_IJddEEEEEC2ERKS4_
FNDA:8,_ZN9__gnu_cxx13new_allocatorISt5tupleIJiiEEED2Ev
FNDA:0,_ZN9__gnu_cxx13new_allocatorISt5tupleIJddEEED2Ev
FNDA:118,_ZN9__gnu_cxx13new_allocatorISt5tupleIJS1_IJddEES2_S1_IJiiEEEEED2Ev
FNDA:521,_ZN9__gnu_cxx13new_allocatorISt5tupleIJdS1_IJddEEEEED2Ev
FNDA:16,_ZN9__gnu_cxx13new_allocatorISt5tupleIJiiEEE8allocateEmPKv
FNDA:106,_ZN9__gnu_cxx13new_allocatorISt5tupleIJS1_IJddEES2_S1_IJiiEEEEE8allocateEmPKv
FNDA:302,_ZN9__gnu_cxx13new_allocatorISt5tupleIJdS1_IJddEEEEE8allocateEmPKv
FNDA:0,_ZN9__gnu_cxx13new_allocatorISt5tupleIJddEEE8allocateEmPKv
FNDA:16,_ZN9__gnu_cxx13new_allocatorISt5tupleIJiiEEE10deallocateEPS2_m
FNDA:106,_ZN9__gnu_cxx13new_allocatorISt5tupleIJS1_IJddEES2_S1_IJiiEEEEE10deallocateEPS4_m
FNDA:302,_ZN9__gnu_cxx13new_allocatorISt5tupleIJdS1_IJddEEEEE10deallocateEPS3_m
FNDA:0,_ZN9__gnu_cxx13new_allocatorISt5tupleIJddEEE10deallocateEPS2_m
FNDA:46,_ZNK9__gnu_cxx13new_allocatorISt5tupleIJiiEEE8max_sizeEv
FNDA:210,_ZNK9__gnu_cxx13new_allocatorISt5tupleIJS1_IJddEES2_S1_IJiiEEEEE8max_sizeEv
FNDA:392,_ZNK9__gnu_cxx13new_allocatorISt5tupleIJdS1_IJddEEEEE8max_sizeEv
FNDA:0,_ZNK9__gnu_cxx13new_allocatorISt5tupleIJddEEE8max_sizeEv
FNDA:20,_ZN9__gnu_cxx13new_allocatorISt5tupleIJiiEEE9constructIS2_JRKS2_EEEvPT_DpOT0_
FNDA:487,_ZN9__gnu_cxx13new_allocatorISt5tupleIJS1_IJddEES2_S1_IJiiEEEEE9constructIS4_JRKS4_EEEvPT_DpOT0_
FNDA:8,_ZN9__gnu_cxx13new_allocatorISt5tupleIJddEEE9constructIS2_JRKS2_EEEvPT_DpOT0_
FNDA:0,_ZN9__gnu_cxx13new_allocatorISt5tupleIJiiEEE7destroyIS2_EEvPT_
FNDA:0,_ZN9__gnu_cxx13new_allocatorISt5tupleIJS1_IJddEES2_S1_IJiiEEEEE7destroyIS4_EEvPT_
FNDA:0,_ZN9__gnu_cxx13new_allocatorISt5tupleIJddEEE7destroyIS2_EEvPT_
FNF:28
FNH:20
DA:79,66
DA:81,580
DA:86,647
DA:99,424
DA:101,424
DA:102,0
DA:111,424
DA:116,424
DA:125,424
DA:126,424
DA:129,648
DA:130,648
DA:135,515
DA:136,515
DA:140,0
LF:15
LH:13
end_of_record
SF:/home/leito-chan/Downloads/TPI/transporteUrbano/solucion.cpp
FN:12,_Z13ordenar_viajeSt6vectorISt5tupleIJdS0_IJddEEEESaIS2_EE
FN:24,_Z27obtener_indice_menor_tiempoSt6vectorISt5tupleIJdS0_IJddEEEESaIS2_EEii
FN:34,_Z20swap_elementos_viajeRSt6vectorISt5tupleIJdS0_IJddEEEESaIS2_EEii
FN:40,_Z9velocidadSt5tupleIJdS_IJddEEEES1_
FN:46,_Z21obtener_nombre_de_gpsSt5tupleIJddEESt6vectorIS_IJS0_S0_S_IJiiEEEESaIS3_EE
FN:65,_Z11es_cubiertoSt6vectorISt5tupleIJdS0_IJddEEEESaIS2_EEdd
FN:82,_Z25obtener_distancia_nombresSt5tupleIJiiEES0_
FN:90,_Z14escribirGrillaSt6vectorISt5tupleIJS0_IJddEES1_S0_IJiiEEEESaIS3_EENSt7__cxx1112basic_stringIcSt11char_traitsIcESaIcEEE
FN:113,_Z18escribirRecorridosSt6vectorIS_ISt5tupleIJddEESaIS1_EESaIS3_EENSt7__cxx1112basic_stringIcSt11char_traitsIcESaIcEEE
FN:131,_Z17excesoDeVelocidadSt6vectorISt5tupleIJdS0_IJddEEEESaIS2_EE
FN:143,_Z11tiempoTotalSt6vectorISt5tupleIJdS0_IJddEEEESaIS2_EE
FN:159,_Z14distanciaTotalSt6vectorISt5tupleIJdS0_IJddEEEESaIS2_EE
FN:170,_Z5flotaSt6vectorIS_ISt5tupleIJdS0_IJddEEEESaIS2_EESaIS4_EEdd
FN:183,_Z19recorridoNoCubiertoSt6vectorISt5tupleIJdS0_IJddEEEESaIS2_EES_IS1_SaIS1_EEd
FN:200,_Z15construirGrillaSt5tupleIJddEES0_ii
FN:220,_Z8aPalabraSt6vectorISt5tupleIJddEESaIS1_EES_IS0_IJS1_S1_S0_IJiiEEEESaIS5_EE
FN:230,_Z16cantidadDeSaltosSt6vectorISt5tupleIJS0_IJddEES1_S0_IJiiEEEESaIS3_EES_IS0_IJdS1_EESaIS6_EE
FN:245,_Z15completarHuecosRSt6vectorISt5tupleIJdS0_IJddEEEESaIS2_EES_IiSaIiEE
FNDA:18,_Z13ordenar_viajeSt6vectorISt5tupleIJdS0_IJddEEEESaIS2_EE
FNDA:75,_Z27obtener_indice_menor_tiempoSt6vectorISt5tupleIJdS0_IJddEEEESaIS2_EEii
FNDA:25,_Z20swap_elementos_viajeRSt6vectorISt5tupleIJdS0_IJddEEEESaIS2_EEii
FNDA:18,_Z9velocidadSt5tupleIJdS_IJddEEEES1_
FNDA:44,_Z21obtener_nombre_de_gpsSt5tupleIJddEESt6vectorIS_IJS0_S0_S_IJiiEEEESaIS3_EE
FNDA:18,_Z11es_cubiertoSt6vectorISt5tupleIJdS0_IJddEEEESaIS2_EEdd
FNDA:12,_Z25obtener_distancia_nombresSt5tupleIJiiEES0_
FNDA:0,_Z14escribirGrillaSt6vectorISt5tupleIJS0_IJddEES1_S0_IJiiEEEESaIS3_EENSt7__cxx1112basic_stringIcSt11char_traitsIcESaIcEEE
FNDA:1,_Z18escribirRecorridosSt6vectorIS_ISt5tupleIJddEESaIS1_EESaIS3_EENSt7__cxx1112basic_stringIcSt11char_traitsIcESaIcEEE
FNDA:4,_Z17excesoDeVelocidadSt6vectorISt5tupleIJdS0_IJddEEEESaIS2_EE
FNDA:4,_Z11tiempoTotalSt6vectorISt5tupleIJdS0_IJddEEEESaIS2_EE
FNDA:4,_Z14distanciaTotalSt6vectorISt5tupleIJdS0_IJddEEEESaIS2_EE
FNDA:6,_Z5flotaSt6vectorIS_ISt5tupleIJdS0_IJddEEEESaIS2_EESaIS4_EEdd
FNDA:7,_Z19recorridoNoCubiertoSt6vectorISt5tupleIJdS0_IJddEEEESaIS2_EES_IS1_SaIS1_EEd
FNDA:10,_Z15construirGrillaSt5tupleIJddEES0_ii
FNDA:6,_Z8aPalabraSt6vectorISt5tupleIJddEESaIS1_EES_IS0_IJS1_S1_S0_IJiiEEEESaIS5_EE
FNDA:4,_Z16cantidadDeSaltosSt6vectorISt5tupleIJS0_IJddEES1_S0_IJiiEEEESaIS3_EES_IS0_IJdS1_EESaIS6_EE
FNDA:5,_Z15completarHuecosRSt6vectorISt5tupleIJdS0_IJddEEEESaIS2_EES_IiSaIiEE
FNF:18
FNH:17
DA:12,18
DA:13,18
DA:15,93
DA:16,75
DA:17,75
DA:18,25
DA:21,18
DA:24,75
DA:25,75
DA:26,273
DA:27,198
DA:28,32
DA:31,75
DA:34,25
DA:35,25
DA:36,25
DA:37,25
DA:38,25
DA:40,18
DA:41,18
DA:42,18
DA:43,18
DA:46,44
DA:49,44
DA:50,151
DA:51,151
DA:52,151
DA:53,302
DA:54,151
DA:55,279
DA:56,128
DA:57,151
DA:58,44
DA:59,44
DA:62,44
DA:65,18
DA:66,18
DA:67,18
DA:68,72
DA:69,54
DA:70,36
DA:72,54
DA:73,37
DA:76,18
DA:77,9
DA:79,9
DA:82,12
DA:83,12
DA:84,12
DA:85,12
DA:90,0
DA:91,0
DA:92,0
DA:93,0
DA:94,0
DA:95,0
DA:96,0
DA:97,0
DA:98,0
DA:99,0
DA:100,0
DA:101,0
DA:103,0
DA:104,0
DA:105,0
DA:107,0
DA:108,0
DA:110,0
DA:111,0
DA:113,1
DA:114,2
DA:115,1
DA:116,1
DA:117,1
DA:118,2
DA:119,4
DA:120,3
DA:121,41
DA:122,38
DA:123,38
DA:124,38
DA:127,1
DA:128,1
DA:131,4
DA:132,8
DA:133,11
DA:134,9
DA:135,9
DA:136,2
DA:139,2
DA:143,4
DA:144,4
DA:145,4
DA:146,13
DA:147,9
DA:148,9
DA:149,6
DA:151,9
DA:152,1
DA:155,4
DA:159,4
DA:160,4
DA:161,4
DA:162,13
DA:163,9
DA:166,8
DA:170,6
DA:171,6
DA:172,6
DA:173,24
DA:174,18
DA:175,18
DA:176,9
DA:179,12
DA:183,7
DA:184,7
DA:185,69
DA:186,62
DA:187,634
DA:188,572
DA:189,54
DA:192,62
DA:193,8
DA:196,7
DA:200,10
DA:201,10
DA:202,10
DA:203,53
DA:204,530
DA:205,487
DA:206,487
DA:207,487
DA:208,487
DA:209,487
DA:210,487
DA:211,487
DA:212,487
DA:213,487
DA:216,10
DA:220,6
DA:221,6
DA:222,26
DA:223,20
DA:224,20
DA:226,6
DA:230,4
DA:231,4
DA:232,4
DA:234,16
DA:235,12
DA:236,12
DA:237,12
DA:238,12
DA:239,4
DA:242,8
DA:245,5
LF:156
LH:137
end_of_record
SF:/usr/include/c++/8/bits/std_abs.h
FN:70,_ZSt3absd
FNDA:9,_ZSt3absd
FNF:1
FNH:1
DA:70,9
DA:71,9
LF:2
LH:2
end_of_record
SF:/usr/include/c++/8/bits/stl_algobase.h
FN:219,_ZSt3maxImERKT_S2_S2_
FN:277,_ZSt12__niter_baseIPSt5tupleIJddEEET_S3_
FN:277,_ZSt12__niter_baseIPSt5tupleIJdS0_IJddEEEEET_S4_
FN:319,_ZNSt11__copy_moveILb0ELb0ESt26random_access_iterator_tagE8__copy_mIPSt5tupleIJdS3_IJddEEEES6_EET0_T_S8_S7_
FN:319,_ZNSt11__copy_moveILb0ELb0ESt26random_access_iterator_tagE8__copy_mIPKSt5tupleIJddEEPS4_EET0_T_S9_S8_
FN:319,_ZNSt11__copy_moveILb0ELb0ESt26random_access_iterator_tagE8__copy_mIPKSt5tupleIJdS3_IJddEEEEPS5_EET0_T_SA_S9_
FN:319,_ZNSt11__copy_moveILb0ELb0ESt26random_access_iterator_tagE8__copy_mIPSt5tupleIJddEES5_EET0_T_S7_S6_
FN:375,_ZSt13__copy_move_aILb0EPKSt5tupleIJdS0_IJddEEEEPS2_ET1_T0_S7_S6_
FN:375,_ZSt13__copy_move_aILb0EPKSt5tupleIJddEEPS1_ET1_T0_S6_S5_
FN:375,_ZSt13__copy_move_aILb0EPSt5tupleIJdS0_IJddEEEES3_ET1_T0_S5_S4_
FN:375,_ZSt13__copy_move_aILb0EPSt5tupleIJddEES2_ET1_T0_S4_S3_
FN:420,_ZSt14__copy_move_a2ILb0EN9__gnu_cxx17__normal_iteratorIPKSt5tupleIJdS2_IJddEEEESt6vectorIS4_SaIS4_EEEENS1_IPS4_S9_EEET1_T0_SE_SD_
FN:420,_ZSt14__copy_move_a2ILb0EPSt5tupleIJdS0_IJddEEEES3_ET1_T0_S5_S4_
FN:420,_ZSt14__copy_move_a2ILb0EN9__gnu_cxx17__normal_iteratorIPKSt5tupleIJddEESt6vectorIS3_SaIS3_EEEENS1_IPS3_S8_EEET1_T0_SD_SC_
FN:420,_ZSt14__copy_move_a2ILb0EPSt5tupleIJddEES2_ET1_T0_S4_S3_
FNDA:210,_ZSt3maxImERKT_S2_S2_
FNDA:0,_ZSt12__niter_baseIPSt5tupleIJdS0_IJddEEEEET_S4_
FNDA:0,_ZSt12__niter_baseIPSt5tupleIJddEEET_S3_
FNDA:0,_ZNSt11__copy_moveILb0ELb0ESt26random_access_iterator_tagE8__copy_mIPSt5tupleIJdS3_IJddEEEES6_EET0_T_S8_S7_
FNDA:13,_ZNSt11__copy_moveILb0ELb0ESt26random_access_iterator_tagE8__copy_mIPKSt5tupleIJdS3_IJddEEEEPS5_EET0_T_SA_S9_
FNDA:0,_ZNSt11__copy_moveILb0ELb0ESt26random_access_iterator_tagE8__copy_mIPSt5tupleIJddEES5_EET0_T_S7_S6_
FNDA:2,_ZNSt11__copy_moveILb0ELb0ESt26random_access_iterator_tagE8__copy_mIPKSt5tupleIJddEEPS4_EET0_T_S9_S8_
FNDA:0,_ZSt13__copy_move_aILb0EPSt5tupleIJdS0_IJddEEEES3_ET1_T0_S5_S4_
FNDA:13,_ZSt13__copy_move_aILb0EPKSt5tupleIJdS0_IJddEEEEPS2_ET1_T0_S7_S6_
FNDA:0,_ZSt13__copy_move_aILb0EPSt5tupleIJddEES2_ET1_T0_S4_S3_
FNDA:2,_ZSt13__copy_move_aILb0EPKSt5tupleIJddEEPS1_ET1_T0_S6_S5_
FNDA:0,_ZSt14__copy_move_a2ILb0EPSt5tupleIJdS0_IJddEEEES3_ET1_T0_S5_S4_
FNDA:13,_ZSt14__copy_move_a2ILb0EN9__gnu_cxx17__normal_iteratorIPKSt5tupleIJdS2_IJddEEEESt6vectorIS4_SaIS4_EEEENS1_IPS4_S9_EEET1_T0_SE_SD_
FNDA:0,_ZSt14__copy_move_a2ILb0EPSt5tupleIJddEES2_ET1_T0_S4_S3_
FNDA:2,_ZSt14__copy_move_a2ILb0EN9__gnu_cxx17__normal_iteratorIPKSt5tupleIJddEESt6vectorIS3_SaIS3_EEEENS1_IPS3_S8_EEET1_T0_SD_SC_
FNF:15
FNH:7
DA:219,210
DA:224,210
DA:225,63
DA:226,147
DA:277,0
DA:278,0
DA:319,15
DA:322,78
DA:324,63
DA:325,63
DA:326,63
DA:328,15
DA:375,15
DA:380,15
DA:386,15
DA:420,15
DA:422,15
DA:424,15
DA:446,15
DA:455,15
DA:456,15
LF:21
LH:19
end_of_record
SF:/usr/include/c++/8/bits/stl_construct.h
FN:74,_ZSt10_ConstructISt5tupleIJdS0_IJddEEEEJRKS2_EEvPT_DpOT0_
FN:74,_ZSt10_ConstructISt5tupleIJddEEJRKS1_EEvPT_DpOT0_
FN:74,_ZSt10_ConstructISt5tupleIJS0_IJddEES1_S0_IJiiEEEEJRKS3_EEvPT_DpOT0_
FN:74,_ZSt10_ConstructISt5tupleIJS0_IJddEES1_S0_IJiiEEEEJS3_EEvPT_DpOT0_
FN:74,_ZSt10_ConstructISt5tupleIJddEEJS1_EEvPT_DpOT0_
FN:74,_ZSt10_ConstructISt5tupleIJdS0_IJddEEEEJRS2_EEvPT_DpOT0_
FN:74,_ZSt10_ConstructISt5tupleIJiiEEJS1_EEvPT_DpOT0_
FN:74,_ZSt10_ConstructISt5tupleIJddEEJRS1_EEvPT_DpOT0_
FN:117,_ZNSt12_Destroy_auxILb1EE9__destroyIN9__gnu_cxx17__normal_iteratorIPSt5tupleIJddEESt6vectorIS5_SaIS5_EEEEEEvT_SB_
FN:117,_ZNSt12_Destroy_auxILb1EE9__destroyIN9__gnu_cxx17__normal_iteratorIPSt5tupleIJdS4_IJddEEEESt6vectorIS6_SaIS6_EEEEEEvT_SC_
FN:117,_ZNSt12_Destroy_auxILb1EE9__destroyIPSt5tupleIJiiEEEEvT_S5_
FN:117,_ZNSt12_Destroy_auxILb1EE9__destroyIPSt5tupleIJdS2_IJddEEEEEEvT_S6_
FN:117,_ZNSt12_Destroy_auxILb1EE9__destroyIPSt5tupleIJddEEEEvT_S5_
FN:117,_ZNSt12_Destroy_auxILb1EE9__destroyIPSt5tupleIJS2_IJddEES3_S2_IJiiEEEEEEvT_S7_
FN:127,_ZSt8_DestroyIN9__gnu_cxx17__normal_iteratorIPSt5tupleIJddEESt6vectorIS3_SaIS3_EEEEEvT_S9_
FN:127,_ZSt8_DestroyIPSt5tupleIJdS0_IJddEEEEEvT_S4_
FN:127,_ZSt8_DestroyIPSt5tupleIJS0_IJddEES1_S0_IJiiEEEEEvT_S5_
FN:127,_ZSt8_DestroyIN9__gnu_cxx17__normal_iteratorIPSt5tupleIJdS2_IJddEEEESt6vectorIS4_SaIS4_EEEEEvT_SA_
FN:127,_ZSt8_DestroyIPSt5tupleIJddEEEvT_S3_
FN:127,_ZSt8_DestroyIPSt5tupleIJiiEEEvT_S3_
FN:203,_ZSt8_DestroyIPSt5tupleIJdS0_IJddEEEES2_EvT_S4_RSaIT0_E
FN:203,_ZSt8_DestroyIPSt5tupleIJddEES1_EvT_S3_RSaIT0_E
FN:203,_ZSt8_DestroyIN9__gnu_cxx17__normal_iteratorIPSt5tupleIJddEESt6vectorIS3_SaIS3_EEEES3_EvT_S9_RSaIT0_E
FN:203,_ZSt8_DestroyIPSt5tupleIJiiEES1_EvT_S3_RSaIT0_E
FN:203,_ZSt8_DestroyIN9__gnu_cxx17__normal_iteratorIPSt5tupleIJdS2_IJddEEEESt6vectorIS4_SaIS4_EEEES4_EvT_SA_RSaIT0_E
FN:203,_ZSt8_DestroyIPSt5tupleIJS0_IJddEES1_S0_IJiiEEEES3_EvT_S5_RSaIT0_E
FNDA:15,_ZSt10_ConstructISt5tupleIJiiEEJS1_EEvPT_DpOT0_
FNDA:807,_ZSt10_ConstructISt5tupleIJS0_IJddEES1_S0_IJiiEEEEJS3_EEvPT_DpOT0_
FNDA:7,_ZSt10_ConstructISt5tupleIJddEEJS1_EEvPT_DpOT0_
FNDA:0,_ZSt10_ConstructISt5tupleIJddEEJRKS1_EEvPT_DpOT0_
FNDA:468,_ZSt10_ConstructISt5tupleIJS0_IJddEES1_S0_IJiiEEEEJRKS3_EEvPT_DpOT0_
FNDA:0,_ZSt10_ConstructISt5tupleIJdS0_IJddEEEEJRS2_EEvPT_DpOT0_
FNDA:0,_ZSt10_ConstructISt5tupleIJddEEJRS1_EEvPT_DpOT0_
FNDA:1004,_ZSt10_ConstructISt5tupleIJdS0_IJddEEEEJRKS2_EEvPT_DpOT0_
FNDA:22,_ZNSt12_Destroy_auxILb1EE9__destroyIPSt5tupleIJiiEEEEvT_S5_
FNDA:116,_ZNSt12_Destroy_auxILb1EE9__destroyIPSt5tupleIJS2_IJddEES3_S2_IJiiEEEEEEvT_S7_
FNDA:13,_ZNSt12_Destroy_auxILb1EE9__destroyIN9__gnu_cxx17__normal_iteratorIPSt5tupleIJdS4_IJddEEEESt6vectorIS6_SaIS6_EEEEEEvT_SC_
FNDA:2,_ZNSt12_Destroy_auxILb1EE9__destroyIN9__gnu_cxx17__normal_iteratorIPSt5tupleIJddEESt6vectorIS5_SaIS5_EEEEEEvT_SB_
FNDA:0,_ZNSt12_Destroy_auxILb1EE9__destroyIPSt5tupleIJddEEEEvT_S5_
FNDA:319,_ZNSt12_Destroy_auxILb1EE9__destroyIPSt5tupleIJdS2_IJddEEEEEEvT_S6_
FNDA:22,_ZSt8_DestroyIPSt5tupleIJiiEEEvT_S3_
FNDA:116,_ZSt8_DestroyIPSt5tupleIJS0_IJddEES1_S0_IJiiEEEEEvT_S5_
FNDA:13,_ZSt8_DestroyIN9__gnu_cxx17__normal_iteratorIPSt5tupleIJdS2_IJddEEEESt6vectorIS4_SaIS4_EEEEEvT_SA_
FNDA:2,_ZSt8_DestroyIN9__gnu_cxx17__normal_iteratorIPSt5tupleIJddEESt6vectorIS3_SaIS3_EEEEEvT_S9_
FNDA:0,_ZSt8_DestroyIPSt5tupleIJddEEEvT_S3_
FNDA:319,_ZSt8_DestroyIPSt5tupleIJdS0_IJddEEEEEvT_S4_
FNDA:22,_ZSt8_DestroyIPSt5tupleIJiiEES1_EvT_S3_RSaIT0_E
FNDA:116,_ZSt8_DestroyIPSt5tupleIJS0_IJddEES1_S0_IJiiEEEES3_EvT_S5_RSaIT0_E
FNDA:13,_ZSt8_DestroyIN9__gnu_cxx17__normal_iteratorIPSt5tupleIJdS2_IJddEEEESt6vectorIS4_SaIS4_EEEES4_EvT_SA_RSaIT0_E
FNDA:2,_ZSt8_DestroyIN9__gnu_cxx17__normal_iteratorIPSt5tupleIJddEESt6vectorIS3_SaIS3_EEEES3_EvT_S9_RSaIT0_E
FNDA:0,_ZSt8_DestroyIPSt5tupleIJddEES1_EvT_S3_RSaIT0_E
FNDA:319,_ZSt8_DestroyIPSt5tupleIJdS0_IJddEEEES2_EvT_S4_RSaIT0_E
FNF:26
FNH:20
DA:74,2301
DA:75,2301
DA:117,472
DA:127,472
DA:137,472
DA:138,472
DA:203,472
DA:206,472
DA:207,472
LF:9
LH:9
end_of_record
SF:/usr/include/c++/8/bits/stl_iterator.h
FN:783,_ZN9__gnu_cxx17__normal_iteratorIPKSt5tupleIJS1_IJddEES2_S1_IJiiEEEESt6vectorIS4_SaIS4_EEEC2ERKS6_
FN:783,_ZN9__gnu_cxx17__normal_iteratorIPSt5tupleIJdS1_IJddEEEESt6vectorIS3_SaIS3_EEEC2ERKS4_
FN:783,_ZN9__gnu_cxx17__normal_iteratorIPSt5tupleIJiiEESt6vectorIS2_SaIS2_EEEC2ERKS3_
FN:783,_ZN9__gnu_cxx17__normal_iteratorIPSt5tupleIJS1_IJddEES2_S1_IJiiEEEESt6vectorIS4_SaIS4_EEEC2ERKS5_
FN:783,_ZN9__gnu_cxx17__normal_iteratorIPKSt5tupleIJdS1_IJddEEEESt6vectorIS3_SaIS3_EEEC2ERKS5_
FN:783,_ZN9__gnu_cxx17__normal_iteratorIPKSt5tupleIJddEESt6vectorIS2_SaIS2_EEEC2ERKS4_
FN:783,_ZN9__gnu_cxx17__normal_iteratorIPSt5tupleIJddEESt6vectorIS2_SaIS2_EEEC2ERKS3_
FN:796,_ZNK9__gnu_cxx17__normal_iteratorIPKSt5tupleIJS1_IJddEES2_S1_IJiiEEEESt6vectorIS4_SaIS4_EEEdeEv
FN:796,_ZNK9__gnu_cxx17__normal_iteratorIPKSt5tupleIJdS1_IJddEEEESt6vectorIS3_SaIS3_EEEdeEv
FN:796,_ZNK9__gnu_cxx17__normal_iteratorIPKSt5tupleIJddEESt6vectorIS2_SaIS2_EEEdeEv
FN:804,_ZN9__gnu_cxx17__normal_iteratorIPKSt5tupleIJdS1_IJddEEEESt6vectorIS3_SaIS3_EEEppEv
FN:804,_ZN9__gnu_cxx17__normal_iteratorIPKSt5tupleIJS1_IJddEES2_S1_IJiiEEEESt6vectorIS4_SaIS4_EEEppEv
FN:804,_ZN9__gnu_cxx17__normal_iteratorIPKSt5tupleIJddEESt6vectorIS2_SaIS2_EEEppEv
FN:848,_ZNK9__gnu_cxx17__normal_iteratorIPKSt5tupleIJdS1_IJddEEEESt6vectorIS3_SaIS3_EEE4baseEv
FN:848,_ZNK9__gnu_cxx17__normal_iteratorIPKSt5tupleIJS1_IJddEES2_S1_IJiiEEEESt6vectorIS4_SaIS4_EEE4baseEv
FN:848,_ZNK9__gnu_cxx17__normal_iteratorIPSt5tupleIJiiEESt6vectorIS2_SaIS2_EEE4baseEv
FN:848,_ZNK9__gnu_cxx17__normal_iteratorIPSt5tupleIJddEESt6vectorIS2_SaIS2_EEE4baseEv
FN:848,_ZNK9__gnu_cxx17__normal_iteratorIPSt5tupleIJdS1_IJddEEEESt6vectorIS3_SaIS3_EEE4baseEv
FN:848,_ZNK9__gnu_cxx17__normal_iteratorIPKSt5tupleIJddEESt6vectorIS2_SaIS2_EEE4baseEv
FN:848,_ZNK9__gnu_cxx17__normal_iteratorIPSt5tupleIJS1_IJddEES2_S1_IJiiEEEESt6vectorIS4_SaIS4_EEE4baseEv
FN:884,_ZN9__gnu_cxxneIPKSt5tupleIJS1_IJddEES2_S1_IJiiEEEESt6vectorIS4_SaIS4_EEEEbRKNS_17__normal_iteratorIT_T0_EESF_
FN:884,_ZN9__gnu_cxxneIPKSt5tupleIJdS1_IJddEEEESt6vectorIS3_SaIS3_EEEEbRKNS_17__normal_iteratorIT_T0_EESE_
FN:884,_ZN9__gnu_cxxneIPKSt5tupleIJddEESt6vectorIS2_SaIS2_EEEEbRKNS_17__normal_iteratorIT_T0_EESD_
FN:966,_ZN9__gnu_cxxmiIPSt5tupleIJddEESt6vectorIS2_SaIS2_EEEENS_17__normal_iteratorIT_T0_E15difference_typeERKSA_SD_
FN:966,_ZN9__gnu_cxxmiIPSt5tupleIJiiEESt6vectorIS2_SaIS2_EEEENS_17__normal_iteratorIT_T0_E15difference_typeERKSA_SD_
FN:966,_ZN9__gnu_cxxmiIPSt5tupleIJS1_IJddEES2_S1_IJiiEEEESt6vectorIS4_SaIS4_EEEENS_17__normal_iteratorIT_T0_E15difference_typeERKSC_SF_
FN:987,_ZSt12__niter_baseIPSt5tupleIJddEESt6vectorIS1_SaIS1_EEET_N9__gnu_cxx17__normal_iteratorIS6_T0_EE
FN:987,_ZSt12__niter_baseIPSt5tupleIJdS0_IJddEEEESt6vectorIS2_SaIS2_EEET_N9__gnu_cxx17__normal_iteratorIS7_T0_EE
FN:987,_ZSt12__niter_baseIPKSt5tupleIJddEESt6vectorIS1_SaIS1_EEET_N9__gnu_cxx17__normal_iteratorIS7_T0_EE
FN:987,_ZSt12__niter_baseIPKSt5tupleIJdS0_IJddEEEESt6vectorIS2_SaIS2_EEET_N9__gnu_cxx17__normal_iteratorIS8_T0_EE
FN:1033,_ZNSt13move_iteratorIPSt5tupleIJiiEEEC2ES2_
FN:1033,_ZNSt13move_iteratorIPSt5tupleIJddEEEC2ES2_
FN:1033,_ZNSt13move_iteratorIPSt5tupleIJS0_IJddEES1_S0_IJiiEEEEEC2ES4_
FN:1042,_ZNKSt13move_iteratorIPSt5tupleIJddEEE4baseEv
FN:1042,_ZNKSt13move_iteratorIPSt5tupleIJiiEEE4baseEv
FN:1042,_ZNKSt13move_iteratorIPSt5tupleIJS0_IJddEES1_S0_IJiiEEEEE4baseEv
FN:1046,_ZNKSt13move_iteratorIPSt5tupleIJiiEEEdeEv
FN:1046,_ZNKSt13move_iteratorIPSt5tupleIJddEEEdeEv
FN:1046,_ZNKSt13move_iteratorIPSt5tupleIJS0_IJddEES1_S0_IJiiEEEEEdeEv
FN:1054,_ZNSt13move_iteratorIPSt5tupleIJS0_IJddEES1_S0_IJiiEEEEEppEv
FN:1054,_ZNSt13move_iteratorIPSt5tupleIJiiEEEppEv
FN:1054,_ZNSt13move_iteratorIPSt5tupleIJddEEEppEv
FN:1121,_ZSteqIPSt5tupleIJS0_IJddEES1_S0_IJiiEEEEEbRKSt13move_iteratorIT_ES9_
FN:1121,_ZSteqIPSt5tupleIJddEEEbRKSt13move_iteratorIT_ES7_
FN:1121,_ZSteqIPSt5tupleIJiiEEEbRKSt13move_iteratorIT_ES7_
FN:1133,_ZStneIPSt5tupleIJS0_IJddEES1_S0_IJiiEEEEEbRKSt13move_iteratorIT_ES9_
FN:1133,_ZStneIPSt5tupleIJiiEEEbRKSt13move_iteratorIT_ES7_
FN:1133,_ZStneIPSt5tupleIJddEEEbRKSt13move_iteratorIT_ES7_
FN:1218,_ZSt32__make_move_if_noexcept_iteratorISt5tupleIJS0_IJddEES1_S0_IJiiEEEESt13move_iteratorIPS3_EET0_PT_
FN:1218,_ZSt32__make_move_if_noexcept_iteratorISt5tupleIJiiEESt13move_iteratorIPS1_EET0_PT_
FN:1218,_ZSt32__make_move_if_noexcept_iteratorISt5tupleIJddEESt13move_iteratorIPS1_EET0_PT_
FNDA:30,_ZN9__gnu_cxx17__normal_iteratorIPSt5tupleIJiiEESt6vectorIS2_SaIS2_EEEC2ERKS3_
FNDA:108,_ZN9__gnu_cxx17__normal_iteratorIPKSt5tupleIJS1_IJddEES2_S1_IJiiEEEESt6vectorIS4_SaIS4_EEEC2ERKS6_
FNDA:104,_ZN9__gnu_cxx17__normal_iteratorIPSt5tupleIJS1_IJddEES2_S1_IJiiEEEESt6vectorIS4_SaIS4_EEEC2ERKS5_
FNDA:129,_ZN9__gnu_cxx17__normal_iteratorIPSt5tupleIJdS1_IJddEEEESt6vectorIS3_SaIS3_EEEC2ERKS4_
FNDA:22,_ZN9__gnu_cxx17__normal_iteratorIPSt5tupleIJddEESt6vectorIS2_SaIS2_EEEC2ERKS3_
FNDA:0,_ZN9__gnu_cxx17__normal_iteratorIPKSt5tupleIJddEESt6vectorIS2_SaIS2_EEEC2ERKS4_
FNDA:476,_ZN9__gnu_cxx17__normal_iteratorIPKSt5tupleIJdS1_IJddEEEESt6vectorIS3_SaIS3_EEEC2ERKS5_
FNDA:0,_ZNK9__gnu_cxx17__normal_iteratorIPKSt5tupleIJddEESt6vectorIS2_SaIS2_EEEdeEv
FNDA:468,_ZNK9__gnu_cxx17__normal_iteratorIPKSt5tupleIJS1_IJddEES2_S1_IJiiEEEESt6vectorIS4_SaIS4_EEEdeEv
FNDA:895,_ZNK9__gnu_cxx17__normal_iteratorIPKSt5tupleIJdS1_IJddEEEESt6vectorIS3_SaIS3_EEEdeEv
FNDA:0,_ZN9__gnu_cxx17__normal_iteratorIPKSt5tupleIJddEESt6vectorIS2_SaIS2_EEEppEv
FNDA:468,_ZN9__gnu_cxx17__normal_iteratorIPKSt5tupleIJS1_IJddEES2_S1_IJiiEEEESt6vectorIS4_SaIS4_EEEppEv
FNDA:895,_ZN9__gnu_cxx17__normal_iteratorIPKSt5tupleIJdS1_IJddEEEESt6vectorIS3_SaIS3_EEEppEv
FNDA:1044,_ZNK9__gnu_cxx17__normal_iteratorIPKSt5tupleIJS1_IJddEES2_S1_IJiiEEEESt6vectorIS4_SaIS4_EEE4baseEv
FNDA:193,_ZNK9__gnu_cxx17__normal_iteratorIPSt5tupleIJdS1_IJddEEEESt6vectorIS3_SaIS3_EEE4baseEv
FNDA:2266,_ZNK9__gnu_cxx17__normal_iteratorIPKSt5tupleIJdS1_IJddEEEESt6vectorIS3_SaIS3_EEE4baseEv
FNDA:0,_ZNK9__gnu_cxx17__normal_iteratorIPKSt5tupleIJddEESt6vectorIS2_SaIS2_EEE4baseEv
FNDA:60,_ZNK9__gnu_cxx17__normal_iteratorIPSt5tupleIJiiEESt6vectorIS2_SaIS2_EEE4baseEv
FNDA:208,_ZNK9__gnu_cxx17__normal_iteratorIPSt5tupleIJS1_IJddEES2_S1_IJiiEEEESt6vectorIS4_SaIS4_EEE4baseEv
FNDA:34,_ZNK9__gnu_cxx17__normal_iteratorIPSt5tupleIJddEESt6vectorIS2_SaIS2_EEE4baseEv
FNDA:0,_ZN9__gnu_cxxneIPKSt5tupleIJddEESt6vectorIS2_SaIS2_EEEEbRKNS_17__normal_iteratorIT_T0_EESD_
FNDA:522,_ZN9__gnu_cxxneIPKSt5tupleIJS1_IJddEES2_S1_IJiiEEEESt6vectorIS4_SaIS4_EEEEbRKNS_17__normal_iteratorIT_T0_EESF_
FNDA:1120,_ZN9__gnu_cxxneIPKSt5tupleIJdS1_IJddEEEESt6vectorIS3_SaIS3_EEEEbRKNS_17__normal_iteratorIT_T0_EESE_
FNDA:15,_ZN9__gnu_cxxmiIPSt5tupleIJiiEESt6vectorIS2_SaIS2_EEEENS_17__normal_iteratorIT_T0_E15difference_typeERKSA_SD_
FNDA:52,_ZN9__gnu_cxxmiIPSt5tupleIJS1_IJddEES2_S1_IJiiEEEESt6vectorIS4_SaIS4_EEEENS_17__normal_iteratorIT_T0_E15difference_typeERKSC_SF_
FNDA:8,_ZN9__gnu_cxxmiIPSt5tupleIJddEESt6vectorIS2_SaIS2_EEEENS_17__normal_iteratorIT_T0_E15difference_typeERKSA_SD_
FNDA:13,_ZSt12__niter_baseIPSt5tupleIJdS0_IJddEEEESt6vectorIS2_SaIS2_EEET_N9__gnu_cxx17__normal_iteratorIS7_T0_EE
FNDA:26,_ZSt12__niter_baseIPKSt5tupleIJdS0_IJddEEEESt6vectorIS2_SaIS2_EEET_N9__gnu_cxx17__normal_iteratorIS8_T0_EE
FNDA:2,_ZSt12__niter_baseIPSt5tupleIJddEESt6vectorIS1_SaIS1_EEET_N9__gnu_cxx17__normal_iteratorIS6_T0_EE
FNDA:4,_ZSt12__niter_baseIPKSt5tupleIJddEESt6vectorIS1_SaIS1_EEET_N9__gnu_cxx17__normal_iteratorIS7_T0_EE
FNDA:60,_ZNSt13move_iteratorIPSt5tupleIJiiEEEC2ES2_
FNDA:208,_ZNSt13move_iteratorIPSt5tupleIJS0_IJddEES1_S0_IJiiEEEEEC2ES4_
FNDA:32,_ZNSt13move_iteratorIPSt5tupleIJddEEEC2ES2_
FNDA:90,_ZNKSt13move_iteratorIPSt5tupleIJiiEEE4baseEv
FNDA:1822,_ZNKSt13move_iteratorIPSt5tupleIJS0_IJddEES1_S0_IJiiEEEEE4baseEv
FNDA:46,_ZNKSt13move_iteratorIPSt5tupleIJddEEE4baseEv
FNDA:15,_ZNKSt13move_iteratorIPSt5tupleIJiiEEEdeEv
FNDA:807,_ZNKSt13move_iteratorIPSt5tupleIJS0_IJddEES1_S0_IJiiEEEEEdeEv
FNDA:7,_ZNKSt13move_iteratorIPSt5tupleIJddEEEdeEv
FNDA:15,_ZNSt13move_iteratorIPSt5tupleIJiiEEEppEv
FNDA:807,_ZNSt13move_iteratorIPSt5tupleIJS0_IJddEES1_S0_IJiiEEEEEppEv
FNDA:7,_ZNSt13move_iteratorIPSt5tupleIJddEEEppEv
FNDA:45,_ZSteqIPSt5tupleIJiiEEEbRKSt13move_iteratorIT_ES7_
FNDA:911,_ZSteqIPSt5tupleIJS0_IJddEES1_S0_IJiiEEEEEbRKSt13move_iteratorIT_ES9_
FNDA:23,_ZSteqIPSt5tupleIJddEEEbRKSt13move_iteratorIT_ES7_
FNDA:45,_ZStneIPSt5tupleIJiiEEEbRKSt13move_iteratorIT_ES7_
FNDA:911,_ZStneIPSt5tupleIJS0_IJddEES1_S0_IJiiEEEEEbRKSt13move_iteratorIT_ES9_
FNDA:23,_ZStneIPSt5tupleIJddEEEbRKSt13move_iteratorIT_ES7_
FNDA:60,_ZSt32__make_move_if_noexcept_iteratorISt5tupleIJiiEESt13move_iteratorIPS1_EET0_PT_
FNDA:208,_ZSt32__make_move_if_noexcept_iteratorISt5tupleIJS0_IJddEES1_S0_IJiiEEEESt13move_iteratorIPS3_EET0_PT_
FNDA:32,_ZSt32__make_move_if_noexcept_iteratorISt5tupleIJddEESt13move_iteratorIPS1_EET0_PT_
FNF:51
FNH:46
DA:783,869
DA:784,869
DA:796,1363
DA:797,1363
DA:804,1363
DA:806,1363
DA:807,1363
DA:848,3805
DA:849,3805
DA:884,1642
DA:887,1642
DA:966,75
DA:969,75
DA:987,45
DA:988,45
DA:1033,300
DA:1034,300
DA:1042,1958
DA:1043,1958
DA:1046,829
DA:1047,829
DA:1054,829
DA:1056,829
DA:1057,829
DA:1121,979
DA:1123,979
DA:1133,979
DA:1135,979
DA:1218,300
DA:1219,300
LF:30
LH:30
end_of_record
SF:/usr/include/c++/8/bits/stl_uninitialized.h
FN:76,_ZNSt20__uninitialized_copyILb0EE13__uninit_copyIN9__gnu_cxx17__normal_iteratorIPKSt5tupleIJddEESt6vectorIS5_SaIS5_EEEEPS5_EET0_T_SE_SD_
FN:76,_ZNSt20__uninitialized_copyILb0EE13__uninit_copyISt13move_iteratorIPSt5tupleIJddEEES5_EET0_T_S8_S7_
FN:76,_ZNSt20__uninitialized_copyILb0EE13__uninit_copyISt13move_iteratorIPSt5tupleIJS3_IJddEES4_S3_IJiiEEEEES7_EET0_T_SA_S9_
FN:76,_ZNSt20__uninitialized_copyILb0EE13__uninit_copyISt13move_iteratorIPSt5tupleIJiiEEES5_EET0_T_S8_S7_
FN:76,_ZNSt20__uninitialized_copyILb0EE13__uninit_copyIN9__gnu_cxx17__normal_iteratorIPKSt5tupleIJdS4_IJddEEEESt6vectorIS6_SaIS6_EEEEPS6_EET0_T_SF_SE_
FN:76,_ZNSt20__uninitialized_copyILb0EE13__uninit_copyIPSt5tupleIJdS2_IJddEEEES5_EET0_T_S7_S6_
FN:76,_ZNSt20__uninitialized_copyILb0EE13__uninit_copyIPSt5tupleIJddEES4_EET0_T_S6_S5_
FN:76,_ZNSt20__uninitialized_copyILb0EE13__uninit_copyIN9__gnu_cxx17__normal_iteratorIPKSt5tupleIJS4_IJddEES5_S4_IJiiEEEESt6vectorIS7_SaIS7_EEEEPS7_EET0_T_SG_SF_
FN:115,_ZSt18uninitialized_copyIPSt5tupleIJddEES2_ET0_T_S4_S3_
FN:115,_ZSt18uninitialized_copyISt13move_iteratorIPSt5tupleIJiiEEES3_ET0_T_S6_S5_
FN:115,_ZSt18uninitialized_copyIN9__gnu_cxx17__normal_iteratorIPKSt5tupleIJS2_IJddEES3_S2_IJiiEEEESt6vectorIS5_SaIS5_EEEEPS5_ET0_T_SE_SD_
FN:115,_ZSt18uninitialized_copyIPSt5tupleIJdS0_IJddEEEES3_ET0_T_S5_S4_
FN:115,_ZSt18uninitialized_copyIN9__gnu_cxx17__normal_iteratorIPKSt5tupleIJdS2_IJddEEEESt6vectorIS4_SaIS4_EEEEPS4_ET0_T_SD_SC_
FN:115,_ZSt18uninitialized_copyIN9__gnu_cxx17__normal_iteratorIPKSt5tupleIJddEESt6vectorIS3_SaIS3_EEEEPS3_ET0_T_SC_SB_
FN:115,_ZSt18uninitialized_copyISt13move_iteratorIPSt5tupleIJddEEES3_ET0_T_S6_S5_
FN:115,_ZSt18uninitialized_copyISt13move_iteratorIPSt5tupleIJS1_IJddEES2_S1_IJiiEEEEES5_ET0_T_S8_S7_
FN:287,_ZSt22__uninitialized_copy_aISt13move_iteratorIPSt5tupleIJS1_IJddEES2_S1_IJiiEEEEES5_S4_ET0_T_S8_S7_RSaIT1_E
FN:287,_ZSt22__uninitialized_copy_aIN9__gnu_cxx17__normal_iteratorIPKSt5tupleIJS2_IJddEES3_S2_IJiiEEEESt6vectorIS5_SaIS5_EEEEPS5_S5_ET0_T_SE_SD_RSaIT1_E
FN:287,_ZSt22__uninitialized_copy_aIN9__gnu_cxx17__normal_iteratorIPKSt5tupleIJddEESt6vectorIS3_SaIS3_EEEEPS3_S3_ET0_T_SC_SB_RSaIT1_E
FN:287,_ZSt22__uninitialized_copy_aIPSt5tupleIJddEES2_S1_ET0_T_S4_S3_RSaIT1_E
FN:287,_ZSt22__uninitialized_copy_aIPSt5tupleIJdS0_IJddEEEES3_S2_ET0_T_S5_S4_RSaIT1_E
FN:287,_ZSt22__uninitialized_copy_aISt13move_iteratorIPSt5tupleIJddEEES3_S2_ET0_T_S6_S5_RSaIT1_E
FN:287,_ZSt22__uninitialized_copy_aIN9__gnu_cxx17__normal_iteratorIPKSt5tupleIJdS2_IJddEEEESt6vectorIS4_SaIS4_EEEEPS4_S4_ET0_T_SD_SC_RSaIT1_E
FN:287,_ZSt22__uninitialized_copy_aISt13move_iteratorIPSt5tupleIJiiEEES3_S2_ET0_T_S6_S5_RSaIT1_E
FNDA:30,_ZNSt20__uninitialized_copyILb0EE13__uninit_copyISt13move_iteratorIPSt5tupleIJiiEEES5_EET0_T_S8_S7_
FNDA:104,_ZNSt20__uninitialized_copyILb0EE13__uninit_copyISt13move_iteratorIPSt5tupleIJS3_IJddEES4_S3_IJiiEEEEES7_EET0_T_SA_S9_
FNDA:16,_ZNSt20__uninitialized_copyILb0EE13__uninit_copyISt13move_iteratorIPSt5tupleIJddEEES5_EET0_T_S8_S7_
FNDA:0,_ZNSt20__uninitialized_copyILb0EE13__uninit_copyIN9__gnu_cxx17__normal_iteratorIPKSt5tupleIJddEESt6vectorIS5_SaIS5_EEEEPS5_EET0_T_SE_SD_
FNDA:54,_ZNSt20__uninitialized_copyILb0EE13__uninit_copyIN9__gnu_cxx17__normal_iteratorIPKSt5tupleIJS4_IJddEES5_S4_IJiiEEEESt6vectorIS7_SaIS7_EEEEPS7_EET0_T_SG_SF_
FNDA:0,_ZNSt20__uninitialized_copyILb0EE13__uninit_copyIPSt5tupleIJdS2_IJddEEEES5_EET0_T_S7_S6_
FNDA:0,_ZNSt20__uninitialized_copyILb0EE13__uninit_copyIPSt5tupleIJddEES4_EET0_T_S6_S5_
FNDA:225,_ZNSt20__uninitialized_copyILb0EE13__uninit_copyIN9__gnu_cxx17__normal_iteratorIPKSt5tupleIJdS4_IJddEEEESt6vectorIS6_SaIS6_EEEEPS6_EET0_T_SF_SE_
FNDA:30,_ZSt18uninitialized_copyISt13move_iteratorIPSt5tupleIJiiEEES3_ET0_T_S6_S5_
FNDA:104,_ZSt18uninitialized_copyISt13move_iteratorIPSt5tupleIJS1_IJddEES2_S1_IJiiEEEEES5_ET0_T_S8_S7_
FNDA:16,_ZSt18uninitialized_copyISt13move_iteratorIPSt5tupleIJddEEES3_ET0_T_S6_S5_
FNDA:0,_ZSt18uninitialized_copyIN9__gnu_cxx17__normal_iteratorIPKSt5tupleIJddEESt6vectorIS3_SaIS3_EEEEPS3_ET0_T_SC_SB_
FNDA:54,_ZSt18uninitialized_copyIN9__gnu_cxx17__normal_iteratorIPKSt5tupleIJS2_IJddEES3_S2_IJiiEEEESt6vectorIS5_SaIS5_EEEEPS5_ET0_T_SE_SD_
FNDA:0,_ZSt18uninitialized_copyIPSt5tupleIJdS0_IJddEEEES3_ET0_T_S5_S4_
FNDA:0,_ZSt18uninitialized_copyIPSt5tupleIJddEES2_ET0_T_S4_S3_
FNDA:225,_ZSt18uninitialized_copyIN9__gnu_cxx17__normal_iteratorIPKSt5tupleIJdS2_IJddEEEESt6vectorIS4_SaIS4_EEEEPS4_ET0_T_SD_SC_
FNDA:30,_ZSt22__uninitialized_copy_aISt13move_iteratorIPSt5tupleIJiiEEES3_S2_ET0_T_S6_S5_RSaIT1_E
FNDA:104,_ZSt22__uninitialized_copy_aISt13move_iteratorIPSt5tupleIJS1_IJddEES2_S1_IJiiEEEEES5_S4_ET0_T_S8_S7_RSaIT1_E
FNDA:16,_ZSt22__uninitialized_copy_aISt13move_iteratorIPSt5tupleIJddEEES3_S2_ET0_T_S6_S5_RSaIT1_E
FNDA:0,_ZSt22__uninitialized_copy_aIN9__gnu_cxx17__normal_iteratorIPKSt5tupleIJddEESt6vectorIS3_SaIS3_EEEEPS3_S3_ET0_T_SC_SB_RSaIT1_E
FNDA:54,_ZSt22__uninitialized_copy_aIN9__gnu_cxx17__normal_iteratorIPKSt5tupleIJS2_IJddEES3_S2_IJiiEEEESt6vectorIS5_SaIS5_EEEEPS5_S5_ET0_T_SE_SD_RSaIT1_E
FNDA:0,_ZSt22__uninitialized_copy_aIPSt5tupleIJdS0_IJddEEEES3_S2_ET0_T_S5_S4_RSaIT1_E
FNDA:0,_ZSt22__uninitialized_copy_aIPSt5tupleIJddEES2_S1_ET0_T_S4_S3_RSaIT1_E
FNDA:225,_ZSt22__uninitialized_copy_aIN9__gnu_cxx17__normal_iteratorIPKSt5tupleIJdS2_IJddEEEESt6vectorIS4_SaIS4_EEEEPS4_S4_ET0_T_SD_SC_RSaIT1_E
FNF:24
FNH:15
DA:76,429
DA:79,429
DA:82,2621
DA:83,2192
DA:84,429
DA:86,0
DA:88,0
DA:89,0
DA:115,429
DA:128,429
DA:134,429
DA:287,429
DA:289,429
DA:305,150
DA:311,150
DA:312,150
LF:16
LH:13
end_of_record
SF:/usr/include/c++/8/bits/stl_vector.h
FN:95,_ZNSt12_Vector_baseISt5tupleIJS0_IJddEES1_S0_IJiiEEEESaIS3_EE12_Vector_implC2Ev
FN:95,_ZNSt12_Vector_baseISt5tupleIJiiEESaIS1_EE12_Vector_implC2Ev
FN:95,_ZNSt12_Vector_baseISt5tupleIJddEESaIS1_EE12_Vector_implC2Ev
FN:95,_ZNSt12_Vector_baseISt5tupleIJdS0_IJddEEEESaIS2_EE12_Vector_implC2Ev
FN:99,_ZNSt12_Vector_baseISt5tupleIJdS0_IJddEEEESaIS2_EE12_Vector_implC2ERKS3_
FN:99,_ZNSt12_Vector_baseISt5tupleIJS0_IJddEES1_S0_IJiiEEEESaIS3_EE12_Vector_implC2ERKS4_
FN:237,_ZNSt12_Vector_baseISt5tupleIJS0_IJddEES1_S0_IJiiEEEESaIS3_EE19_M_get_Tp_allocatorEv
FN:237,_ZNSt12_Vector_baseISt5tupleIJiiEESaIS1_EE19_M_get_Tp_allocatorEv
FN:237,_ZNSt12_Vector_baseISt5tupleIJdS0_IJddEEEESaIS2_EE19_M_get_Tp_allocatorEv
FN:237,_ZNSt12_Vector_baseISt5tupleIJddEESaIS1_EE19_M_get_Tp_allocatorEv
FN:241,_ZNKSt12_Vector_baseISt5tupleIJdS0_IJddEEEESaIS2_EE19_M_get_Tp_allocatorEv
FN:241,_ZNKSt12_Vector_baseISt5tupleIJddEESaIS1_EE19_M_get_Tp_allocatorEv
FN:241,_ZNKSt12_Vector_baseISt5tupleIJS0_IJddEES1_S0_IJiiEEEESaIS3_EE19_M_get_Tp_allocatorEv
FN:241,_ZNKSt12_Vector_baseISt5tupleIJiiEESaIS1_EE19_M_get_Tp_allocatorEv
FN:248,_ZNSt12_Vector_baseISt5tupleIJdS0_IJddEEEESaIS2_EEC2Ev
FN:248,_ZNSt12_Vector_baseISt5tupleIJS0_IJddEES1_S0_IJiiEEEESaIS3_EEC2Ev
FN:248,_ZNSt12_Vector_baseISt5tupleIJiiEESaIS1_EEC2Ev
FN:248,_ZNSt12_Vector_baseISt5tupleIJddEESaIS1_EEC2Ev
FN:258,_ZNSt12_Vector_baseISt5tupleIJS0_IJddEES1_S0_IJiiEEEESaIS3_EEC2EmRKS4_
FN:258,_ZNSt12_Vector_baseISt5tupleIJdS0_IJddEEEESaIS2_EEC2EmRKS3_
FN:283,_ZNSt12_Vector_baseISt5tupleIJiiEESaIS1_EED2Ev
FN:283,_ZNSt12_Vector_baseISt5tupleIJS0_IJddEES1_S0_IJiiEEEESaIS3_EED2Ev
FN:283,_ZNSt12_Vector_baseISt5tupleIJddEESaIS1_EED2Ev
FN:283,_ZNSt12_Vector_baseISt5tupleIJdS0_IJddEEEESaIS2_EED2Ev
FN:293,_ZNSt12_Vector_baseISt5tupleIJiiEESaIS1_EE11_M_allocateEm
FN:293,_ZNSt12_Vector_baseISt5tupleIJS0_IJddEES1_S0_IJiiEEEESaIS3_EE11_M_allocateEm
FN:293,_ZNSt12_Vector_baseISt5tupleIJddEESaIS1_EE11_M_allocateEm
FN:293,_ZNSt12_Vector_baseISt5tupleIJdS0_IJddEEEESaIS2_EE11_M_allocateEm
FN:300,_ZNSt12_Vector_baseISt5tupleIJdS0_IJddEEEESaIS2_EE13_M_deallocateEPS2_m
FN:300,_ZNSt12_Vector_baseISt5tupleIJddEESaIS1_EE13_M_deallocateEPS1_m
FN:300,_ZNSt12_Vector_baseISt5tupleIJiiEESaIS1_EE13_M_deallocateEPS1_m
FN:300,_ZNSt12_Vector_baseISt5tupleIJS0_IJddEES1_S0_IJiiEEEESaIS3_EE13_M_deallocateEPS3_m
FN:309,_ZNSt12_Vector_baseISt5tupleIJdS0_IJddEEEESaIS2_EE17_M_create_storageEm
FN:309,_ZNSt12_Vector_baseISt5tupleIJS0_IJddEES1_S0_IJiiEEEESaIS3_EE17_M_create_storageEm
FN:391,_ZNSt6vectorISt5tupleIJdS0_IJddEEEESaIS2_EEC2Ev
FN:391,_ZNSt6vectorISt5tupleIJddEESaIS1_EEC2Ev
FN:391,_ZNSt6vectorISt5tupleIJS0_IJddEES1_S0_IJiiEEEESaIS3_EEC2Ev
FN:391,_ZNSt6vectorISt5tupleIJiiEESaIS1_EEC2Ev
FN:458,_ZNSt6vectorISt5tupleIJS0_IJddEES1_S0_IJiiEEEESaIS3_EEC2ERKS5_
FN:458,_ZNSt6vectorISt5tupleIJdS0_IJddEEEESaIS2_EEC2ERKS4_
FN:565,_ZNSt6vectorISt5tupleIJdS0_IJddEEEESaIS2_EED2Ev
FN:565,_ZNSt6vectorISt5tupleIJddEESaIS1_EED2Ev
FN:565,_ZNSt6vectorISt5tupleIJiiEESaIS1_EED2Ev
FN:565,_ZNSt6vectorISt5tupleIJS0_IJddEES1_S0_IJiiEEEESaIS3_EED2Ev
FN:698,_ZNSt6vectorISt5tupleIJdS0_IJddEEEESaIS2_EE5beginEv
FN:698,_ZNSt6vectorISt5tupleIJiiEESaIS1_EE5beginEv
FN:698,_ZNSt6vectorISt5tupleIJddEESaIS1_EE5beginEv
FN:698,_ZNSt6vectorISt5tupleIJS0_IJddEES1_S0_IJiiEEEESaIS3_EE5beginEv
FN:707,_ZNKSt6vectorISt5tupleIJddEESaIS1_EE5beginEv
FN:707,_ZNKSt6vectorISt5tupleIJdS0_IJddEEEESaIS2_EE5beginEv
FN:707,_ZNKSt6vectorISt5tupleIJS0_IJddEES1_S0_IJiiEEEESaIS3_EE5beginEv
FN:716,_ZNSt6vectorISt5tupleIJdS0_IJddEEEESaIS2_EE3endEv
FN:716,_ZNSt6vectorISt5tupleIJiiEESaIS1_EE3endEv
FN:716,_ZNSt6vectorISt5tupleIJS0_IJddEES1_S0_IJiiEEEESaIS3_EE3endEv
FN:716,_ZNSt6vectorISt5tupleIJddEESaIS1_EE3endEv
FN:725,_ZNKSt6vectorISt5tupleIJddEESaIS1_EE3endEv
FN:725,_ZNKSt6vectorISt5tupleIJS0_IJddEES1_S0_IJiiEEEESaIS3_EE3endEv
FN:725,_ZNKSt6vectorISt5tupleIJdS0_IJddEEEESaIS2_EE3endEv
FN:805,_ZNKSt6vectorISt5tupleIJdS0_IJddEEEESaIS2_EE4sizeEv
FN:805,_ZNKSt6vectorIS_ISt5tupleIJddEESaIS1_EESaIS3_EE4sizeEv
FN:805,_ZNKSt6vectorISt5tupleIJddEESaIS1_EE4sizeEv
FN:805,_ZNKSt6vectorISt5tupleIJiiEESaIS1_EE4sizeEv
FN:805,_ZNKSt6vectorISt5tupleIJS0_IJddEES1_S0_IJiiEEEESaIS3_EE4sizeEv
FN:805,_ZNKSt6vectorIS_ISt5tupleIJdS0_IJddEEEESaIS2_EESaIS4_EE4sizeEv
FN:810,_ZNKSt6vectorISt5tupleIJiiEESaIS1_EE8max_sizeEv
FN:810,_ZNKSt6vectorISt5tupleIJS0_IJddEES1_S0_IJiiEEEESaIS3_EE8max_sizeEv
FN:810,_ZNKSt6vectorISt5tupleIJddEESaIS1_EE8max_sizeEv
FN:885,_ZNKSt6vectorISt5tupleIJddEESaIS1_EE8capacityEv
FN:885,_ZNKSt6vectorISt5tupleIJdS0_IJddEEEESaIS2_EE8capacityEv
FN:930,_ZNSt6vectorIS_ISt5tupleIJddEESaIS1_EESaIS3_EEixEm
FN:930,_ZNSt6vectorISt5tupleIJS0_IJddEES1_S0_IJiiEEEESaIS3_EEixEm
FN:930,_ZNSt6vectorIS_ISt5tupleIJdS0_IJddEEEESaIS2_EESaIS4_EEixEm
FN:930,_ZNSt6vectorISt5tupleIJdS0_IJddEEEESaIS2_EEixEm
FN:930,_ZNSt6vectorISt5tupleIJddEESaIS1_EEixEm
FN:1074,_ZNSt6vectorISt5tupleIJiiEESaIS1_EE9push_backERKS1_
FN:1074,_ZNSt6vectorISt5tupleIJS0_IJddEES1_S0_IJiiEEEESaIS3_EE9push_backERKS3_
FN:1074,_ZNSt6vectorISt5tupleIJddEESaIS1_EE9push_backERKS1_
FN:1385,_ZNSt6vectorISt5tupleIJddEESaIS1_EE5clearEv
FN:1385,_ZNSt6vectorISt5tupleIJdS0_IJddEEEESaIS2_EE5clearEv
FN:1395,_ZNSt6vectorISt5tupleIJdS0_IJddEEEESaIS2_EE20_M_allocate_and_copyIN9__gnu_cxx17__normal_iteratorIPKS2_S4_EEEEPS2_mT_SC_
FN:1395,_ZNSt6vectorISt5tupleIJddEESaIS1_EE20_M_allocate_and_copyIN9__gnu_cxx17__normal_iteratorIPKS1_S3_EEEEPS1_mT_SB_
FN:1640,_ZNKSt6vectorISt5tupleIJiiEESaIS1_EE12_M_check_lenEmPKc
FN:1640,_ZNKSt6vectorISt5tupleIJS0_IJddEES1_S0_IJiiEEEESaIS3_EE12_M_check_lenEmPKc
FN:1640,_ZNKSt6vectorISt5tupleIJddEESaIS1_EE12_M_check_lenEmPKc
FN:1654,_ZNSt6vectorISt5tupleIJdS0_IJddEEEESaIS2_EE15_M_erase_at_endEPS2_
FN:1654,_ZNSt6vectorISt5tupleIJddEESaIS1_EE15_M_erase_at_endEPS1_
FNDA:6,_ZNSt12_Vector_baseISt5tupleIJiiEESaIS1_EE12_Vector_implC2Ev
FNDA:10,_ZNSt12_Vector_baseISt5tupleIJS0_IJddEES1_S0_IJiiEEEESaIS3_EE12_Vector_implC2Ev
FNDA:17,_ZNSt12_Vector_baseISt5tupleIJdS0_IJddEEEESaIS2_EE12_Vector_implC2Ev
FNDA:10,_ZNSt12_Vector_baseISt5tupleIJddEESaIS1_EE12_Vector_implC2Ev
FNDA:54,_ZNSt12_Vector_baseISt5tupleIJS0_IJddEES1_S0_IJiiEEEESaIS3_EE12_Vector_implC2ERKS4_
FNDA:252,_ZNSt12_Vector_baseISt5tupleIJdS0_IJddEEEESaIS2_EE12_Vector_implC2ERKS3_
FNDA:53,_ZNSt12_Vector_baseISt5tupleIJiiEESaIS1_EE19_M_get_Tp_allocatorEv
FNDA:274,_ZNSt12_Vector_baseISt5tupleIJS0_IJddEES1_S0_IJiiEEEESaIS3_EE19_M_get_Tp_allocatorEv
FNDA:0,_ZNSt12_Vector_baseISt5tupleIJddEESaIS1_EE19_M_get_Tp_allocatorEv
FNDA:679,_ZNSt12_Vector_baseISt5tupleIJdS0_IJddEEEESaIS2_EE19_M_get_Tp_allocatorEv
FNDA:30,_ZNKSt12_Vector_baseISt5tupleIJiiEESaIS1_EE19_M_get_Tp_allocatorEv
FNDA:158,_ZNKSt12_Vector_baseISt5tupleIJS0_IJddEES1_S0_IJiiEEEESaIS3_EE19_M_get_Tp_allocatorEv
FNDA:0,_ZNKSt12_Vector_baseISt5tupleIJddEESaIS1_EE19_M_get_Tp_allocatorEv
FNDA:310,_ZNKSt12_Vector_baseISt5tupleIJdS0_IJddEEEESaIS2_EE19_M_get_Tp_allocatorEv
FNDA:6,_ZNSt12_Vector_baseISt5tupleIJiiEESaIS1_EEC2Ev
FNDA:10,_ZNSt12_Vector_baseISt5tupleIJS0_IJddEES1_S0_IJiiEEEESaIS3_EEC2Ev
FNDA:17,_ZNSt12_Vector_baseISt5tupleIJdS0_IJddEEEESaIS2_EEC2Ev
FNDA:10,_ZNSt12_Vector_baseISt5tupleIJddEESaIS1_EEC2Ev
FNDA:54,_ZNSt12_Vector_baseISt5tupleIJS0_IJddEES1_S0_IJiiEEEESaIS3_EEC2EmRKS4_
FNDA:220,_ZNSt12_Vector_baseISt5tupleIJdS0_IJddEEEESaIS2_EEC2EmRKS3_
FNDA:7,_ZNSt12_Vector_baseISt5tupleIJiiEESaIS1_EED2Ev
FNDA:64,_ZNSt12_Vector_baseISt5tupleIJS0_IJddEES1_S0_IJiiEEEESaIS3_EED2Ev
FNDA:0,_ZNSt12_Vector_baseISt5tupleIJddEESaIS1_EED2Ev
FNDA:269,_ZNSt12_Vector_baseISt5tupleIJdS0_IJddEEEESaIS2_EED2Ev
FNDA:16,_ZNSt12_Vector_baseISt5tupleIJiiEESaIS1_EE11_M_allocateEm
FNDA:106,_ZNSt12_Vector_baseISt5tupleIJS0_IJddEES1_S0_IJiiEEEESaIS3_EE11_M_allocateEm
FNDA:302,_ZNSt12_Vector_baseISt5tupleIJdS0_IJddEEEESaIS2_EE11_M_allocateEm
FNDA:0,_ZNSt12_Vector_baseISt5tupleIJddEESaIS1_EE11_M_allocateEm
FNDA:22,_ZNSt12_Vector_baseISt5tupleIJiiEESaIS1_EE13_M_deallocateEPS1_m
FNDA:116,_ZNSt12_Vector_baseISt5tupleIJS0_IJddEES1_S0_IJiiEEEESaIS3_EE13_M_deallocateEPS3_m
FNDA:319,_ZNSt12_Vector_baseISt5tupleIJdS0_IJddEEEESaIS2_EE13_M_deallocateEPS2_m
FNDA:0,_ZNSt12_Vector_baseISt5tupleIJddEESaIS1_EE13_M_deallocateEPS1_m
FNDA:54,_ZNSt12_Vector_baseISt5tupleIJS0_IJddEES1_S0_IJiiEEEESaIS3_EE17_M_create_storageEm
FNDA:220,_ZNSt12_Vector_baseISt5tupleIJdS0_IJddEEEESaIS2_EE17_M_create_storageEm
FNDA:6,_ZNSt6vectorISt5tupleIJiiEESaIS1_EEC2Ev
FNDA:10,_ZNSt6vectorISt5tupleIJS0_IJddEES1_S0_IJiiEEEESaIS3_EEC2Ev
FNDA:17,_ZNSt6vectorISt5tupleIJdS0_IJddEEEESaIS2_EEC2Ev
FNDA:10,_ZNSt6vectorISt5tupleIJddEESaIS1_EEC2Ev
FNDA:54,_ZNSt6vectorISt5tupleIJS0_IJddEES1_S0_IJiiEEEESaIS3_EEC2ERKS5_
FNDA:220,_ZNSt6vectorISt5tupleIJdS0_IJddEEEESaIS2_EEC2ERKS4_
FNDA:7,_ZNSt6vectorISt5tupleIJiiEESaIS1_EED2Ev
FNDA:64,_ZNSt6vectorISt5tupleIJS0_IJddEES1_S0_IJiiEEEESaIS3_EED2Ev
FNDA:0,_ZNSt6vectorISt5tupleIJddEESaIS1_EED2Ev
FNDA:269,_ZNSt6vectorISt5tupleIJdS0_IJddEEEESaIS2_EED2Ev
FNDA:15,_ZNSt6vectorISt5tupleIJiiEESaIS1_EE5beginEv
FNDA:52,_ZNSt6vectorISt5tupleIJS0_IJddEES1_S0_IJiiEEEESaIS3_EE5beginEv
FNDA:58,_ZNSt6vectorISt5tupleIJdS0_IJddEEEESaIS2_EE5beginEv
FNDA:10,_ZNSt6vectorISt5tupleIJddEESaIS1_EE5beginEv
FNDA:54,_ZNKSt6vectorISt5tupleIJS0_IJddEES1_S0_IJiiEEEESaIS3_EE5beginEv
FNDA:0,_ZNKSt6vectorISt5tupleIJddEESaIS1_EE5beginEv
FNDA:238,_ZNKSt6vectorISt5tupleIJdS0_IJddEEEESaIS2_EE5beginEv
FNDA:15,_ZNSt6vectorISt5tupleIJiiEESaIS1_EE3endEv
FNDA:52,_ZNSt6vectorISt5tupleIJS0_IJddEES1_S0_IJiiEEEESaIS3_EE3endEv
FNDA:58,_ZNSt6vectorISt5tupleIJdS0_IJddEEEESaIS2_EE3endEv
FNDA:10,_ZNSt6vectorISt5tupleIJddEESaIS1_EE3endEv
FNDA:54,_ZNKSt6vectorISt5tupleIJS0_IJddEES1_S0_IJiiEEEESaIS3_EE3endEv
FNDA:0,_ZNKSt6vectorISt5tupleIJddEESaIS1_EE3endEv
FNDA:238,_ZNKSt6vectorISt5tupleIJdS0_IJddEEEESaIS2_EE3endEv
FNDA:63,_ZNKSt6vectorISt5tupleIJiiEESaIS1_EE4sizeEv
FNDA:30,_ZNKSt6vectorIS_ISt5tupleIJdS0_IJddEEEESaIS2_EESaIS4_EE4sizeEv
FNDA:0,_ZNKSt6vectorISt5tupleIJddEESaIS1_EE4sizeEv
FNDA:4,_ZNKSt6vectorIS_ISt5tupleIJddEESaIS1_EESaIS3_EE4sizeEv
FNDA:417,_ZNKSt6vectorISt5tupleIJS0_IJddEES1_S0_IJiiEEEESaIS3_EE4sizeEv
FNDA:1420,_ZNKSt6vectorISt5tupleIJdS0_IJddEEEESaIS2_EE4sizeEv
FNDA:30,_ZNKSt6vectorISt5tupleIJiiEESaIS1_EE8max_sizeEv
FNDA:104,_ZNKSt6vectorISt5tupleIJS0_IJddEES1_S0_IJiiEEEESaIS3_EE8max_sizeEv
FNDA:16,_ZNKSt6vectorISt5tupleIJddEESaIS1_EE8max_sizeEv
FNDA:18,_ZNKSt6vectorISt5tupleIJdS0_IJddEEEESaIS2_EE8capacityEv
FNDA:3,_ZNKSt6vectorISt5tupleIJddEESaIS1_EE8capacityEv
FNDA:18,_ZNSt6vectorIS_ISt5tupleIJdS0_IJddEEEESaIS2_EESaIS4_EEixEm
FNDA:715,_ZNSt6vectorISt5tupleIJddEESaIS1_EEixEm
FNDA:3,_ZNSt6vectorIS_ISt5tupleIJddEESaIS1_EESaIS3_EEixEm
FNDA:350,_ZNSt6vectorISt5tupleIJS0_IJddEES1_S0_IJiiEEEESaIS3_EEixEm
FNDA:1359,_ZNSt6vectorISt5tupleIJdS0_IJddEEEESaIS2_EEixEm
FNDA:20,_ZNSt6vectorISt5tupleIJiiEESaIS1_EE9push_backERKS1_
FNDA:487,_ZNSt6vectorISt5tupleIJS0_IJddEES1_S0_IJiiEEEESaIS3_EE9push_backERKS3_
FNDA:8,_ZNSt6vectorISt5tupleIJddEESaIS1_EE9push_backERKS1_
FNDA:0,_ZNSt6vectorISt5tupleIJdS0_IJddEEEESaIS2_EE5clearEv
FNDA:0,_ZNSt6vectorISt5tupleIJddEESaIS1_EE5clearEv
FNDA:5,_ZNSt6vectorISt5tupleIJdS0_IJddEEEESaIS2_EE20_M_allocate_and_copyIN9__gnu_cxx17__normal_iteratorIPKS2_S4_EEEEPS2_mT_SC_
FNDA:1,_ZNSt6vectorISt5tupleIJddEESaIS1_EE20_M_allocate_and_copyIN9__gnu_cxx17__normal_iteratorIPKS1_S3_EEEEPS1_mT_SB_
FNDA:15,_ZNKSt6vectorISt5tupleIJiiEESaIS1_EE12_M_check_lenEmPKc
FNDA:52,_ZNKSt6vectorISt5tupleIJS0_IJddEES1_S0_IJiiEEEESaIS3_EE12_M_check_lenEmPKc
FNDA:8,_ZNKSt6vectorISt5tupleIJddEESaIS1_EE12_M_check_lenEmPKc
FNDA:0,_ZNSt6vectorISt5tupleIJdS0_IJddEEEESaIS2_EE15_M_erase_at_endEPS2_
FNDA:0,_ZNSt6vectorISt5tupleIJddEESaIS1_EE15_M_erase_at_endEPS1_
FNF:86
FNH:73
DA:95,43
DA:96,43
DA:97,43
DA:99,306
DA:100,306
DA:101,306
DA:237,1006
DA:238,1006
DA:241,498
DA:242,498
DA:248,43
DA:249,43
DA:258,274
DA:259,274
DA:260,274
DA:283,340
DA:285,340
DA:286,340
DA:287,340
DA:293,424
DA:296,424
DA:300,457
DA:303,457
DA:304,424
DA:305,457
DA:309,274
DA:311,274
DA:312,274
DA:313,274
DA:314,274
DA:391,43
DA:395,43
DA:458,274
DA:460,274
DA:462,274
DA:463,274
DA:465,274
DA:466,274
DA:565,340
DA:567,340
DA:568,340
DA:570,340
DA:698,135
DA:699,135
DA:707,292
DA:708,292
DA:716,135
DA:717,135
DA:725,292
DA:726,292
DA:805,1934
DA:806,1934
DA:810,150
DA:811,150
DA:885,21
DA:886,21
DA:887,21
DA:930,2445
DA:933,2445
DA:1074,515
DA:1076,515
DA:1079,440
DA:1081,440
DA:1085,75
DA:1086,515
DA:1385,0
DA:1386,0
DA:1395,6
DA:1398,6
DA:1401,6
DA:1402,6
DA:1403,6
DA:1405,0
DA:1407,0
DA:1408,0
DA:1640,75
DA:1642,75
DA:1643,0
DA:1645,75
DA:1646,75
DA:1654,0
DA:1656,0
DA:1658,0
DA:1659,0
DA:1660,0
DA:1663,0
LF:86
LH:74
end_of_record
SF:/usr/include/c++/8/tuple
FN:132,_ZNSt10_Head_baseILm0EiLb0EEC2IRiEEOT_
FN:132,_ZNSt10_Head_baseILm0ESt5tupleIJddEELb0EEC2IRS1_EEOT_
FN:132,_ZNSt10_Head_baseILm1ESt5tupleIJddEELb0EEC2IS1_EEOT_
FN:132,_ZNSt10_Head_baseILm1EdLb0EEC2IRdEEOT_
FN:132,_ZNSt10_Head_baseILm1EiLb0EEC2IRiEEOT_
FN:132,_ZNSt10_Head_baseILm0EiLb0EEC2IiEEOT_
FN:132,_ZNSt10_Head_baseILm0ESt5tupleIJddEELb0EEC2IS1_EEOT_
FN:132,_ZNSt10_Head_baseILm1EiLb0EEC2IiEEOT_
FN:132,_ZNSt10_Head_baseILm1EdLb0EEC2IdEEOT_
FN:132,_ZNSt10_Head_baseILm2ESt5tupleIJiiEELb0EEC2IRS1_EEOT_
FN:132,_ZNSt10_Head_baseILm1ESt5tupleIJddEELb0EEC2IRS1_EEOT_
FN:132,_ZNSt10_Head_baseILm2ESt5tupleIJiiEELb0EEC2IS1_EEOT_
FN:132,_ZNSt10_Head_baseILm0EdLb0EEC2IdEEOT_
FN:132,_ZNSt10_Head_baseILm0EdLb0EEC2IRdEEOT_
FN:160,_ZNSt10_Head_baseILm2ESt5tupleIJiiEELb0EE7_M_headERS2_
FN:160,_ZNSt10_Head_baseILm0EiLb0EE7_M_headERS0_
FN:160,_ZNSt10_Head_baseILm1EiLb0EE7_M_headERS0_
FN:160,_ZNSt10_Head_baseILm0EdLb0EE7_M_headERS0_
FN:160,_ZNSt10_Head_baseILm1ESt5tupleIJddEELb0EE7_M_headERS2_
FN:160,_ZNSt10_Head_baseILm1EdLb0EE7_M_headERS0_
FN:160,_ZNSt10_Head_baseILm0ESt5tupleIJddEELb0EE7_M_headERS2_
FN:163,_ZNSt10_Head_baseILm0EdLb0EE7_M_headERKS0_
FN:163,_ZNSt10_Head_baseILm1EdLb0EE7_M_headERKS0_
FN:163,_ZNSt10_Head_baseILm1ESt5tupleIJddEELb0EE7_M_headERKS2_
FN:195,_ZNSt11_Tuple_implILm1EJSt5tupleIJddEES0_IJiiEEEE7_M_headERS3_
FN:195,_ZNSt11_Tuple_implILm0EJSt5tupleIJddEES1_S0_IJiiEEEE7_M_headERS3_
FN:195,_ZNSt11_Tuple_implILm0EJddEE7_M_headERS0_
FN:195,_ZNSt11_Tuple_implILm0EJiiEE7_M_headERS0_
FN:195,_ZNSt11_Tuple_implILm0EJdSt5tupleIJddEEEE7_M_headERS2_
FN:198,_ZNSt11_Tuple_implILm0EJddEE7_M_headERKS0_
FN:198,_ZNSt11_Tuple_implILm0EJdSt5tupleIJddEEEE7_M_headERKS2_
FN:201,_ZNSt11_Tuple_implILm0EJSt5tupleIJddEES1_S0_IJiiEEEE7_M_tailERS3_
FN:201,_ZNSt11_Tuple_implILm1EJSt5tupleIJddEES0_IJiiEEEE7_M_tailERS3_
FN:201,_ZNSt11_Tuple_implILm0EJddEE7_M_tailERS0_
FN:201,_ZNSt11_Tuple_implILm0EJiiEE7_M_tailERS0_
FN:201,_ZNSt11_Tuple_implILm0EJdSt5tupleIJddEEEE7_M_tailERS2_
FN:204,_ZNSt11_Tuple_implILm0EJddEE7_M_tailERKS0_
FN:204,_ZNSt11_Tuple_implILm0EJdSt5tupleIJddEEEE7_M_tailERKS2_
FN:216,_ZNSt11_Tuple_implILm0EJddEEC2IRdJS2_EvEEOT_DpOT0_
FN:216,_ZNSt11_Tuple_implILm1EJSt5tupleIJddEES0_IJiiEEEEC2IRS1_JRS2_EvEEOT_DpOT0_
FN:216,_ZNSt11_Tuple_implILm0EJSt5tupleIJddEES1_S0_IJiiEEEEC2IRS1_JS5_RS2_EvEEOT_DpOT0_
FN:216,_ZNSt11_Tuple_implILm0EJiiEEC2IRiJS2_EvEEOT_DpOT0_
FN:223,_ZNSt11_Tuple_implILm1EJSt5tupleIJddEES0_IJiiEEEEC2EOS3_
FN:223,_ZNSt11_Tuple_implILm0EJiiEEC2EOS0_
FN:223,_ZNSt11_Tuple_implILm0EJSt5tupleIJddEES1_S0_IJiiEEEEC2EOS3_
FN:223,_ZNSt11_Tuple_implILm0EJddEEC2EOS0_
FN:292,_ZNSt11_Tuple_implILm0EJdSt5tupleIJddEEEEaSERKS2_
FN:292,_ZNSt11_Tuple_implILm0EJddEEaSERKS0_
FN:300,_ZNSt11_Tuple_implILm0EJiiEEaSEOS0_
FN:300,_ZNSt11_Tuple_implILm0EJddEEaSEOS0_
FN:351,_ZNSt11_Tuple_implILm1EJdEE7_M_headERS0_
FN:351,_ZNSt11_Tuple_implILm1EJiEE7_M_headERS0_
FN:351,_ZNSt11_Tuple_implILm1EJSt5tupleIJddEEEE7_M_headERS2_
FN:351,_ZNSt11_Tuple_implILm2EJSt5tupleIJiiEEEE7_M_headERS2_
FN:354,_ZNSt11_Tuple_implILm1EJdEE7_M_headERKS0_
FN:354,_ZNSt11_Tuple_implILm1EJSt5tupleIJddEEEE7_M_headERKS2_
FN:365,_ZNSt11_Tuple_implILm1EJdEEC2IRdEEOT_
FN:365,_ZNSt11_Tuple_implILm1EJiEEC2IRiEEOT_
FN:365,_ZNSt11_Tuple_implILm2EJSt5tupleIJiiEEEEC2IRS1_EEOT_
FN:371,_ZNSt11_Tuple_implILm1EJiEEC2EOS0_
FN:371,_ZNSt11_Tuple_implILm1EJdEEC2EOS0_
FN:371,_ZNSt11_Tuple_implILm2EJSt5tupleIJiiEEEEC2EOS2_
FN:424,_ZNSt11_Tuple_implILm1EJdEEaSERKS0_
FN:424,_ZNSt11_Tuple_implILm1EJSt5tupleIJddEEEEaSERKS2_
FN:431,_ZNSt11_Tuple_implILm1EJiEEaSEOS0_
FN:431,_ZNSt11_Tuple_implILm1EJdEEaSEOS0_
FN:646,_ZNSt5tupleIJS_IJddEES0_S_IJiiEEEEC1IJRS0_S4_RS1_ELb1EEEDpOT_
FN:662,_ZNSt5tupleIJS_IJddEES0_S_IJiiEEEEC2EOS2_
FN:971,_ZNSt5tupleIJddEEC1IRdS2_Lb1EEEOT_OT0_
FN:971,_ZNSt5tupleIJiiEEC1IRiS2_Lb1EEEOT_OT0_
FN:987,_ZNSt5tupleIJddEEC2EOS0_
FN:987,_ZNSt5tupleIJiiEEC2EOS0_
FN:1209,_ZNSt5tupleIJdS_IJddEEEEaSERKS1_
FN:1209,_ZNSt5tupleIJddEEaSERKS0_
FN:1216,_ZNSt5tupleIJddEEaSEOS0_
FN:1216,_ZNSt5tupleIJiiEEaSEOS0_
FN:1303,_ZSt12__get_helperILm0EiJiEERT0_RSt11_Tuple_implIXT_EJS0_DpT1_EE
FN:1303,_ZSt12__get_helperILm1EiJEERT0_RSt11_Tuple_implIXT_EJS0_DpT1_EE
FN:1314,_ZSt3getILm0EJiiEERNSt13tuple_elementIXT_ESt5tupleIJDpT0_EEE4typeERS4_
FN:1314,_ZSt3getILm1EJiiEERNSt13tuple_elementIXT_ESt5tupleIJDpT0_EEE4typeERS4_
FNDA:807,_ZNSt10_Head_baseILm0ESt5tupleIJddEELb0EEC2IS1_EEOT_
FNDA:822,_ZNSt10_Head_baseILm0EiLb0EEC2IiEEOT_
FNDA:1991,_ZNSt10_Head_baseILm0EdLb0EEC2IdEEOT_
FNDA:992,_ZNSt10_Head_baseILm1ESt5tupleIJddEELb0EEC2IS1_EEOT_
FNDA:807,_ZNSt10_Head_baseILm2ESt5tupleIJiiEELb0EEC2IS1_EEOT_
FNDA:680,_ZNSt10_Head_baseILm1ESt5tupleIJddEELb0EEC2IRS1_EEOT_
FNDA:487,_ZNSt10_Head_baseILm0ESt5tupleIJddEELb0EEC2IRS1_EEOT_
FNDA:1428,_ZNSt10_Head_baseILm0EdLb0EEC2IRdEEOT_
FNDA:487,_ZNSt10_Head_baseILm0EiLb0EEC2IRiEEOT_
FNDA:822,_ZNSt10_Head_baseILm1EiLb0EEC2IiEEOT_
FNDA:1806,_ZNSt10_Head_baseILm1EdLb0EEC2IdEEOT_
FNDA:487,_ZNSt10_Head_baseILm2ESt5tupleIJiiEELb0EEC2IRS1_EEOT_
FNDA:1235,_ZNSt10_Head_baseILm1EdLb0EEC2IRdEEOT_
FNDA:487,_ZNSt10_Head_baseILm1EiLb0EEC2IRiEEOT_
FNDA:960,_ZNSt10_Head_baseILm0ESt5tupleIJddEELb0EE7_M_headERS2_
FNDA:5760,_ZNSt10_Head_baseILm0EdLb0EE7_M_headERS0_
FNDA:1919,_ZNSt10_Head_baseILm1ESt5tupleIJddEELb0EE7_M_headERS2_
FNDA:851,_ZNSt10_Head_baseILm2ESt5tupleIJiiEELb0EE7_M_headERS2_
FNDA:934,_ZNSt10_Head_baseILm0EiLb0EE7_M_headERS0_
FNDA:934,_ZNSt10_Head_baseILm1EiLb0EE7_M_headERS0_
FNDA:4834,_ZNSt10_Head_baseILm1EdLb0EE7_M_headERS0_
FNDA:0,_ZNSt10_Head_baseILm1EdLb0EE7_M_headERKS0_
FNDA:0,_ZNSt10_Head_baseILm0EdLb0EE7_M_headERKS0_
FNDA:101,_ZNSt10_Head_baseILm1ESt5tupleIJddEELb0EE7_M_headERKS2_
FNDA:856,_ZNSt11_Tuple_implILm0EJdSt5tupleIJddEEEE7_M_headERS2_
FNDA:960,_ZNSt11_Tuple_implILm0EJSt5tupleIJddEES1_S0_IJiiEEEE7_M_headERS3_
FNDA:4904,_ZNSt11_Tuple_implILm0EJddEE7_M_headERS0_
FNDA:960,_ZNSt11_Tuple_implILm1EJSt5tupleIJddEES0_IJiiEEEE7_M_headERS3_
FNDA:934,_ZNSt11_Tuple_implILm0EJiiEE7_M_headERS0_
FNDA:0,_ZNSt11_Tuple_implILm0EJddEE7_M_headERKS0_
FNDA:117,_ZNSt11_Tuple_implILm0EJdSt5tupleIJddEEEE7_M_headERKS2_
FNDA:274,_ZNSt11_Tuple_implILm0EJdSt5tupleIJddEEEE7_M_tailERS2_
FNDA:807,_ZNSt11_Tuple_implILm0EJSt5tupleIJddEES1_S0_IJiiEEEE7_M_tailERS3_
FNDA:910,_ZNSt11_Tuple_implILm0EJiiEE7_M_tailERS0_
FNDA:1925,_ZNSt11_Tuple_implILm0EJddEE7_M_tailERS0_
FNDA:807,_ZNSt11_Tuple_implILm1EJSt5tupleIJddEES0_IJiiEEEE7_M_tailERS3_
FNDA:113,_ZNSt11_Tuple_implILm0EJddEE7_M_tailERKS0_
FNDA:89,_ZNSt11_Tuple_implILm0EJdSt5tupleIJddEEEE7_M_tailERKS2_
FNDA:487,_ZNSt11_Tuple_implILm1EJSt5tupleIJddEES0_IJiiEEEEC2IRS1_JRS2_EvEEOT_DpOT0_
FNDA:487,_ZNSt11_Tuple_implILm0EJSt5tupleIJddEES1_S0_IJiiEEEEC2IRS1_JS5_RS2_EvEEOT_DpOT0_
FNDA:1235,_ZNSt11_Tuple_implILm0EJddEEC2IRdJS2_EvEEOT_DpOT0_
FNDA:487,_ZNSt11_Tuple_implILm0EJiiEEC2IRiJS2_EvEEOT_DpOT0_
FNDA:807,_ZNSt11_Tuple_implILm0EJSt5tupleIJddEES1_S0_IJiiEEEEC2EOS3_
FNDA:822,_ZNSt11_Tuple_implILm0EJiiEEC2EOS0_
FNDA:1806,_ZNSt11_Tuple_implILm0EJddEEC2EOS0_
FNDA:807,_ZNSt11_Tuple_implILm1EJSt5tupleIJddEES0_IJiiEEEEC2EOS3_
FNDA:113,_ZNSt11_Tuple_implILm0EJddEEaSERKS0_
FNDA:89,_ZNSt11_Tuple_implILm0EJdSt5tupleIJddEEEEaSERKS2_
FNDA:3,_ZNSt11_Tuple_implILm0EJddEEaSEOS0_
FNDA:44,_ZNSt11_Tuple_implILm0EJiiEEaSEOS0_
FNDA:959,_ZNSt11_Tuple_implILm1EJSt5tupleIJddEEEE7_M_headERS2_
FNDA:851,_ZNSt11_Tuple_implILm2EJSt5tupleIJiiEEEE7_M_headERS2_
FNDA:934,_ZNSt11_Tuple_implILm1EJiEE7_M_headERS0_
FNDA:4834,_ZNSt11_Tuple_implILm1EJdEE7_M_headERS0_
FNDA:0,_ZNSt11_Tuple_implILm1EJdEE7_M_headERKS0_
FNDA:101,_ZNSt11_Tuple_implILm1EJSt5tupleIJddEEEE7_M_headERKS2_
FNDA:487,_ZNSt11_Tuple_implILm2EJSt5tupleIJiiEEEEC2IRS1_EEOT_
FNDA:1235,_ZNSt11_Tuple_implILm1EJdEEC2IRdEEOT_
FNDA:487,_ZNSt11_Tuple_implILm1EJiEEC2IRiEEOT_
FNDA:807,_ZNSt11_Tuple_implILm2EJSt5tupleIJiiEEEEC2EOS2_
FNDA:822,_ZNSt11_Tuple_implILm1EJiEEC2EOS0_
FNDA:1806,_ZNSt11_Tuple_implILm1EJdEEC2EOS0_
FNDA:113,_ZNSt11_Tuple_implILm1EJdEEaSERKS0_
FNDA:89,_ZNSt11_Tuple_implILm1EJSt5tupleIJddEEEEaSERKS2_
FNDA:3,_ZNSt11_Tuple_implILm1EJdEEaSEOS0_
FNDA:44,_ZNSt11_Tuple_implILm1EJiEEaSEOS0_
FNDA:487,_ZNSt5tupleIJS_IJddEES0_S_IJiiEEEEC1IJRS0_S4_RS1_ELb1EEEDpOT_
FNDA:807,_ZNSt5tupleIJS_IJddEES0_S_IJiiEEEEC2EOS2_
FNDA:1235,_ZNSt5tupleIJddEEC1IRdS2_Lb1EEEOT_OT0_
FNDA:487,_ZNSt5tupleIJiiEEC1IRiS2_Lb1EEEOT_OT0_
FNDA:822,_ZNSt5tupleIJiiEEC2EOS0_
FNDA:1806,_ZNSt5tupleIJddEEC2EOS0_
FNDA:113,_ZNSt5tupleIJddEEaSERKS0_
FNDA:89,_ZNSt5tupleIJdS_IJddEEEEaSERKS1_
FNDA:3,_ZNSt5tupleIJddEEaSEOS0_
FNDA:44,_ZNSt5tupleIJiiEEaSEOS0_
FNDA:24,_ZSt12__get_helperILm1EiJEERT0_RSt11_Tuple_implIXT_EJS0_DpT1_EE
FNDA:24,_ZSt12__get_helperILm0EiJiEERT0_RSt11_Tuple_implIXT_EJS0_DpT1_EE
FNDA:24,_ZSt3getILm1EJiiEERNSt13tuple_elementIXT_ESt5tupleIJDpT0_EEE4typeERS4_
FNDA:24,_ZSt3getILm0EJiiEERNSt13tuple_elementIXT_ESt5tupleIJDpT0_EEE4typeERS4_
FNF:80
FNH:76
DA:132,13338
DA:133,13338
DA:160,16192
DA:163,101
DA:195,8614
DA:198,117
DA:201,4723
DA:204,202
DA:216,2696
DA:218,2696
DA:223,4242
DA:226,4242
DA:227,8484
DA:292,202
DA:294,202
DA:295,202
DA:296,202
DA:300,47
DA:304,47
DA:305,47
DA:306,47
DA:351,7578
DA:354,101
DA:365,2209
DA:366,2209
DA:371,3435
DA:373,3435
DA:424,202
DA:426,202
DA:427,202
DA:431,47
DA:434,47
DA:435,47
DA:646,487
DA:647,487
DA:662,807
DA:971,1722
DA:972,1722
DA:987,2628
DA:1209,202
DA:1211,202
DA:1212,202
DA:1216,47
DA:1219,47
DA:1220,47
DA:1303,48
DA:1304,48
DA:1314,48
DA:1315,48
DA:1464,1722
DA:1468,1722
LF:51
LH:51
end_of_record
SF:/usr/include/c++/8/bits/vector.tcc
FN:186,_ZNSt6vectorISt5tupleIJdS0_IJddEEEESaIS2_EEaSERKS4_
FN:186,_ZNSt6vectorISt5tupleIJddEESaIS1_EEaSERKS3_
FN:413,_ZNSt6vectorISt5tupleIJS0_IJddEES1_S0_IJiiEEEESaIS3_EE17_M_realloc_insertIJRKS3_EEEvN9__gnu_cxx17__normal_iteratorIPS3_S5_EEDpOT_
FN:413,_ZNSt6vectorISt5tupleIJiiEESaIS1_EE17_M_realloc_insertIJRKS1_EEEvN9__gnu_cxx17__normal_iteratorIPS1_S3_EEDpOT_
FN:413,_ZNSt6vectorISt5tupleIJddEESaIS1_EE17_M_realloc_insertIJRKS1_EEEvN9__gnu_cxx17__normal_iteratorIPS1_S3_EEDpOT_
FNDA:18,_ZNSt6vectorISt5tupleIJdS0_IJddEEEESaIS2_EEaSERKS4_
FNDA:3,_ZNSt6vectorISt5tupleIJddEESaIS1_EEaSERKS3_
FNDA:15,_ZNSt6vectorISt5tupleIJiiEESaIS1_EE17_M_realloc_insertIJRKS1_EEEvN9__gnu_cxx17__normal_iteratorIPS1_S3_EEDpOT_
FNDA:52,_ZNSt6vectorISt5tupleIJS0_IJddEES1_S0_IJiiEEEESaIS3_EE17_M_realloc_insertIJRKS3_EEEvN9__gnu_cxx17__normal_iteratorIPS3_S5_EEDpOT_
FNDA:8,_ZNSt6vectorISt5tupleIJddEESaIS1_EE17_M_realloc_insertIJRKS1_EEEvN9__gnu_cxx17__normal_iteratorIPS1_S3_EEDpOT_
FNF:5
FNH:5
DA:186,21
DA:189,21
DA:193,21
DA:195,0
DA:196,0
DA:199,0
DA:200,0
DA:201,0
DA:202,0
DA:203,0
DA:204,0
DA:205,0
DA:207,0
DA:211,21
DA:212,21
DA:214,6
DA:216,6
DA:217,6
DA:218,12
DA:219,6
DA:220,6
DA:221,6
DA:222,6
DA:224,15
DA:226,15
DA:227,15
DA:231,0
DA:233,0
DA:234,0
DA:236,0
DA:238,21
DA:240,21
DA:413,75
DA:422,75
DA:424,75
DA:425,75
DA:426,75
DA:427,75
DA:428,75
DA:436,75
DA:437,75
DA:443,75
DA:447,75
DA:448,75
DA:450,75
DA:454,75
DA:455,75
DA:457,0
DA:459,0
DA:460,0
DA:461,0
DA:463,0
DA:464,0
DA:465,0
DA:468,75
DA:469,150
DA:470,75
DA:471,75
DA:472,75
DA:473,75
DA:474,75
LF:61
LH:40
end_of_record
TN:
SF:/home/leito-chan/Downloads/TPI/transporteUrbano/auxiliares.cpp
FN:7,_Z14obtenerLatitudSt5tupleIJddEE
FN:11,_Z15obtenerLongitudSt5tupleIJddEE
FN:15,_Z15obtenerPosicionSt5tupleIJdS_IJddEEEE
FN:19,_Z13obtenerTiempoSt5tupleIJdS_IJddEEEE
FN:23,_Z22obtenerEsquinaSuperiorSt5tupleIJS_IJddEES0_S_IJiiEEEE
FN:27,_Z22obtenerEsquinaInferiorSt5tupleIJS_IJddEES0_S_IJiiEEEE
FN:31,_Z13obtenerNombreSt5tupleIJS_IJddEES0_S_IJiiEEEE
FN:35,_Z7distMtsSt5tupleIJddEES0_
FN:40,_Z8distEnKMSt5tupleIJddEES0_
FN:63,_Z12desviarPuntoSt5tupleIJddEEdd
FN:76,_Z8puntoGpsdd
FN:80,_Z8mediciondSt5tupleIJddEE
FNDA:5938,_Z14obtenerLatitudSt5tupleIJddEE
FNDA:5802,_Z15obtenerLongitudSt5tupleIJddEE
FNDA:1370,_Z15obtenerPosicionSt5tupleIJdS_IJddEEEE
FNDA:1164,_Z13obtenerTiempoSt5tupleIJdS_IJddEEEE
FNDA:306,_Z22obtenerEsquinaSuperiorSt5tupleIJS_IJddEES0_S_IJiiEEEE
FNDA:306,_Z22obtenerEsquinaInferiorSt5tupleIJS_IJddEES0_S_IJiiEEEE
FNDA:88,_Z13obtenerNombreSt5tupleIJS_IJddEES0_S_IJiiEEEE
FNDA:1156,_Z7distMtsSt5tupleIJddEES0_
FNDA:1210,_Z8distEnKMSt5tupleIJddEES0_
FNDA:242,_Z12desviarPuntoSt5tupleIJddEEdd
FNDA:522,_Z8puntoGpsdd
FNDA:386,_Z8mediciondSt5tupleIJddEE
FNF:12
FNH:12
DA:7,5938
DA:8,5938
DA:11,5802
DA:12,5802
DA:15,1370
DA:16,1370
DA:19,1164
DA:20,1164
DA:23,306
DA:24,306
DA:27,306
DA:28,306
DA:31,88
DA:32,88
DA:35,1156
DA:36,1156
DA:40,1210
DA:41,1210
DA:42,1210
DA:43,1210
DA:44,1210
DA:47,1210
DA:48,1210
DA:51,1210
DA:52,1210
DA:55,1210
DA:56,1210
DA:57,2420
DA:59,1210
DA:60,1210
DA:63,242
DA:64,242
DA:65,242
DA:67,242
DA:68,242
DA:69,242
DA:70,242
DA:71,242
DA:76,522
DA:77,522
DA:80,386
DA:81,386
LF:42
LH:42
end_of_record
SF:/usr/include/c++/8/cmath
FN:415,_ZSt3powIdiEN9__gnu_cxx11__promote_2IT_T0_NS0_9__promoteIS2_XsrSt12__is_integerIS2_E7__valueEE6__typeENS4_IS3_XsrS5_IS3_E7__valueEE6__typeEE6__typeES2_S3_
FNDA:2420,_ZSt3powIdiEN9__gnu_cxx11__promote_2IT_T0_NS0_9__promoteIS2_XsrSt12__is_integerIS2_E7__valueEE6__typeENS4_IS3_XsrS5_IS3_E7__valueEE6__typeEE6__typeES2_S3_
FNF:1
FNH:1
DA:415,2420
DA:418,2420
LF:2
LH:2
end_of_record
SF:/usr/include/c++/8/bits/move.h
FN:74,_ZSt7forwardIRdEOT_RNSt16remove_referenceIS1_E4typeE
FN:74,_ZSt7forwardIRSt5tupleIJddEEEOT_RNSt16remove_referenceIS3_E4typeE
FNDA:0,_ZSt7forwardIRSt5tupleIJddEEEOT_RNSt16remove_referenceIS3_E4typeE
FNDA:0,_ZSt7forwardIRdEOT_RNSt16remove_referenceIS1_E4typeE
FNF:2
FNH:0
DA:74,0
DA:75,0
LF:2
LH:0
end_of_record
SF:/usr/include/c++/8/tuple
FN:132,_ZNSt10_Head_baseILm1EdLb0EEC2IRdEEOT_
FN:132,_ZNSt10_Head_baseILm1ESt5tupleIJddEELb0EEC2IRS1_EEOT_
FN:132,_ZNSt10_Head_baseILm0EdLb0EEC2IRdEEOT_
FN:160,_ZNSt10_Head_baseILm2ESt5tupleIJiiEELb0EE7_M_headERS2_
FN:160,_ZNSt10_Head_baseILm1EdLb0EE7_M_headERS0_
FN:160,_ZNSt10_Head_baseILm0ESt5tupleIJddEELb0EE7_M_headERS2_
FN:160,_ZNSt10_Head_baseILm0EdLb0EE7_M_headERS0_
FN:160,_ZNSt10_Head_baseILm1ESt5tupleIJddEELb0EE7_M_headERS2_
FN:195,_ZNSt11_Tuple_implILm1EJSt5tupleIJddEES0_IJiiEEEE7_M_headERS3_
FN:195,_ZNSt11_Tuple_implILm0EJSt5tupleIJddEES1_S0_IJiiEEEE7_M_headERS3_
FN:195,_ZNSt11_Tuple_implILm0EJddEE7_M_headERS0_
FN:195,_ZNSt11_Tuple_implILm0EJdSt5tupleIJddEEEE7_M_headERS2_
FN:216,_ZNSt11_Tuple_implILm0EJddEEC2IRdJS2_EvEEOT_DpOT0_
FN:216,_ZNSt11_Tuple_implILm0EJdSt5tupleIJddEEEEC2IRdJRS1_EvEEOT_DpOT0_
FN:351,_ZNSt11_Tuple_implILm1EJSt5tupleIJddEEEE7_M_headERS2_
FN:351,_ZNSt11_Tuple_implILm2EJSt5tupleIJiiEEEE7_M_headERS2_
FN:351,_ZNSt11_Tuple_implILm1EJdEE7_M_headERS0_
FN:365,_ZNSt11_Tuple_implILm1EJSt5tupleIJddEEEEC2IRS1_EEOT_
FN:365,_ZNSt11_Tuple_implILm1EJdEEC2IRdEEOT_
FN:971,_ZNSt5tupleIJddEEC1IRdS2_Lb1EEEOT_OT0_
FN:971,_ZNSt5tupleIJdS_IJddEEEEC1IRdRS0_Lb1EEEOT_OT0_
FN:1303,_ZSt12__get_helperILm1ESt5tupleIJddEEJEERT0_RSt11_Tuple_implIXT_EJS2_DpT1_EE
FN:1303,_ZSt12__get_helperILm1ESt5tupleIJddEEJS0_IJiiEEEERT0_RSt11_Tuple_implIXT_EJS3_DpT1_EE
FN:1303,_ZSt12__get_helperILm1EdJEERT0_RSt11_Tuple_implIXT_EJS0_DpT1_EE
FN:1303,_ZSt12__get_helperILm0ESt5tupleIJddEEJS1_S0_IJiiEEEERT0_RSt11_Tuple_implIXT_EJS3_DpT1_EE
FN:1303,_ZSt12__get_helperILm0EdJdEERT0_RSt11_Tuple_implIXT_EJS0_DpT1_EE
FN:1303,_ZSt12__get_helperILm2ESt5tupleIJiiEEJEERT0_RSt11_Tuple_implIXT_EJS2_DpT1_EE
FN:1303,_ZSt12__get_helperILm0EdJSt5tupleIJddEEEERT0_RSt11_Tuple_implIXT_EJS2_DpT1_EE
FN:1314,_ZSt3getILm2EJSt5tupleIJddEES1_S0_IJiiEEEERNSt13tuple_elementIXT_ES0_IJDpT0_EEE4typeERS6_
FN:1314,_ZSt3getILm1EJSt5tupleIJddEES1_S0_IJiiEEEERNSt13tuple_elementIXT_ES0_IJDpT0_EEE4typeERS6_
FN:1314,_ZSt3getILm0EJSt5tupleIJddEES1_S0_IJiiEEEERNSt13tuple_elementIXT_ES0_IJDpT0_EEE4typeERS6_
FN:1314,_ZSt3getILm0EJddEERNSt13tuple_elementIXT_ESt5tupleIJDpT0_EEE4typeERS4_
FN:1314,_ZSt3getILm0EJdSt5tupleIJddEEEERNSt13tuple_elementIXT_ES0_IJDpT0_EEE4typeERS5_
FN:1314,_ZSt3getILm1EJddEERNSt13tuple_elementIXT_ESt5tupleIJDpT0_EEE4typeERS4_
FN:1314,_ZSt3getILm1EJdSt5tupleIJddEEEERNSt13tuple_elementIXT_ES0_IJDpT0_EEE4typeERS5_
FNDA:0,_ZNSt10_Head_baseILm0EdLb0EEC2IRdEEOT_
FNDA:0,_ZNSt10_Head_baseILm1ESt5tupleIJddEELb0EEC2IRS1_EEOT_
FNDA:0,_ZNSt10_Head_baseILm1EdLb0EEC2IRdEEOT_
FNDA:0,_ZNSt10_Head_baseILm0EdLb0EE7_M_headERS0_
FNDA:0,_ZNSt10_Head_baseILm1EdLb0EE7_M_headERS0_
FNDA:0,_ZNSt10_Head_baseILm2ESt5tupleIJiiEELb0EE7_M_headERS2_
FNDA:0,_ZNSt10_Head_baseILm0ESt5tupleIJddEELb0EE7_M_headERS2_
FNDA:0,_ZNSt10_Head_baseILm1ESt5tupleIJddEELb0EE7_M_headERS2_
FNDA:0,_ZNSt11_Tuple_implILm0EJdSt5tupleIJddEEEE7_M_headERS2_
FNDA:0,_ZNSt11_Tuple_implILm0EJddEE7_M_headERS0_
FNDA:0,_ZNSt11_Tuple_implILm0EJSt5tupleIJddEES1_S0_IJiiEEEE7_M_headERS3_
FNDA:0,_ZNSt11_Tuple_implILm1EJSt5tupleIJddEES0_IJiiEEEE7_M_headERS3_
FNDA:386,_ZNSt11_Tuple_implILm0EJdSt5tupleIJddEEEEC2IRdJRS1_EvEEOT_DpOT0_
FNDA:0,_ZNSt11_Tuple_implILm0EJddEEC2IRdJS2_EvEEOT_DpOT0_
FNDA:0,_ZNSt11_Tuple_implILm1EJdEE7_M_headERS0_
FNDA:0,_ZNSt11_Tuple_implILm2EJSt5tupleIJiiEEEE7_M_headERS2_
FNDA:0,_ZNSt11_Tuple_implILm1EJSt5tupleIJddEEEE7_M_headERS2_
FNDA:386,_ZNSt11_Tuple_implILm1EJSt5tupleIJddEEEEC2IRS1_EEOT_
FNDA:0,_ZNSt11_Tuple_implILm1EJdEEC2IRdEEOT_
FNDA:386,_ZNSt5tupleIJdS_IJddEEEEC1IRdRS0_Lb1EEEOT_OT0_
FNDA:0,_ZNSt5tupleIJddEEC1IRdS2_Lb1EEEOT_OT0_
FNDA:1164,_ZSt12__get_helperILm0EdJSt5tupleIJddEEEERT0_RSt11_Tuple_implIXT_EJS2_DpT1_EE
FNDA:5818,_ZSt12__get_helperILm1EdJEERT0_RSt11_Tuple_implIXT_EJS0_DpT1_EE
FNDA:5958,_ZSt12__get_helperILm0EdJdEERT0_RSt11_Tuple_implIXT_EJS0_DpT1_EE
FNDA:88,_ZSt12__get_helperILm2ESt5tupleIJiiEEJEERT0_RSt11_Tuple_implIXT_EJS2_DpT1_EE
FNDA:306,_ZSt12__get_helperILm0ESt5tupleIJddEEJS1_S0_IJiiEEEERT0_RSt11_Tuple_implIXT_EJS3_DpT1_EE
FNDA:306,_ZSt12__get_helperILm1ESt5tupleIJddEEJS0_IJiiEEEERT0_RSt11_Tuple_implIXT_EJS3_DpT1_EE
FNDA:1370,_ZSt12__get_helperILm1ESt5tupleIJddEEJEERT0_RSt11_Tuple_implIXT_EJS2_DpT1_EE
FNDA:1164,_ZSt3getILm0EJdSt5tupleIJddEEEERNSt13tuple_elementIXT_ES0_IJDpT0_EEE4typeERS5_
FNDA:5818,_ZSt3getILm1EJddEERNSt13tuple_elementIXT_ESt5tupleIJDpT0_EEE4typeERS4_
FNDA:5958,_ZSt3getILm0EJddEERNSt13tuple_elementIXT_ESt5tupleIJDpT0_EEE4typeERS4_
FNDA:88,_ZSt3getILm2EJSt5tupleIJddEES1_S0_IJiiEEEERNSt13tuple_elementIXT_ES0_IJDpT0_EEE4typeERS6_
FNDA:306,_ZSt3getILm0EJSt5tupleIJddEES1_S0_IJiiEEEERNSt13tuple_elementIXT_ES0_IJDpT0_EEE4typeERS6_
FNDA:306,_ZSt3getILm1EJSt5tupleIJddEES1_S0_IJiiEEEERNSt13tuple_elementIXT_ES0_IJDpT0_EEE4typeERS6_
FNDA:1370,_ZSt3getILm1EJdSt5tupleIJddEEEERNSt13tuple_elementIXT_ES0_IJDpT0_EEE4typeERS5_
FNF:35
FNH:17
DA:132,0
DA:133,0
DA:160,0
DA:195,0
DA:216,386
DA:218,386
DA:351,0
DA:365,386
DA:366,386
DA:971,386
DA:972,386
DA:1303,15010
DA:1304,15010
DA:1314,15010
DA:1315,15010
DA:1464,386
DA:1468,386
LF:17
LH:12
end_of_record
TN:
SF:/usr/include/c++/8/bits/alloc_traits.h
FN:435,_ZNSt16allocator_traitsISaISt5tupleIJdS0_IJddEEEEEE8allocateERS3_m
FN:461,_ZNSt16allocator_traitsISaISt5tupleIJdS0_IJddEEEEEE10deallocateERS3_PS2_m
FN:504,_ZNSt16allocator_traitsISaISt5tupleIJdS0_IJddEEEEEE37select_on_container_copy_constructionERKS3_
FN:504,_ZNSt16allocator_traitsISaIcEE37select_on_container_copy_constructionERKS0_
FNDA:0,_ZNSt16allocator_traitsISaISt5tupleIJdS0_IJddEEEEEE8allocateERS3_m
FNDA:0,_ZNSt16allocator_traitsISaISt5tupleIJdS0_IJddEEEEEE10deallocateERS3_PS2_m
FNDA:0,_ZNSt16allocator_traitsISaISt5tupleIJdS0_IJddEEEEEE37select_on_container_copy_constructionERKS3_
FNDA:0,_ZNSt16allocator_traitsISaIcEE37select_on_container_copy_constructionERKS0_
FNF:4
FNH:0
DA:435,0
DA:436,0
DA:461,0
DA:462,0
DA:504,0
DA:505,0
LF:6
LH:0
end_of_record
SF:/usr/include/c++/8/ext/alloc_traits.h
FN:94,_ZN9__gnu_cxx14__alloc_traitsISaISt5tupleIJdS1_IJddEEEEES3_E17_S_select_on_copyERKS4_
FN:94,_ZN9__gnu_cxx14__alloc_traitsISaIcEcE17_S_select_on_copyERKS1_
FNDA:0,_ZN9__gnu_cxx14__alloc_traitsISaISt5tupleIJdS1_IJddEEEEES3_E17_S_select_on_copyERKS4_
FNDA:0,_ZN9__gnu_cxx14__alloc_traitsISaIcEcE17_S_select_on_copyERKS1_
FNF:2
FNH:0
DA:94,0
DA:95,0
LF:2
LH:0
end_of_record
SF:/usr/include/c++/8/bits/allocator.h
FN:131,_ZNSaISt5tupleIJdS_IJddEEEEEC2Ev
FN:133,_ZNSaISt5tupleIJdS_IJddEEEEEC2ERKS2_
FN:139,_ZNSaISt5tupleIJdS_IJddEEEEED2Ev
FNDA:0,_ZNSaISt5tupleIJdS_IJddEEEEEC2Ev
FNDA:0,_ZNSaISt5tupleIJdS_IJddEEEEEC2ERKS2_
FNDA:0,_ZNSaISt5tupleIJdS_IJddEEEEED2Ev
FNF:3
FNH:0
DA:131,0
DA:133,0
DA:134,0
DA:139,0
LF:4
LH:0
end_of_record
SF:/usr/include/c++/8/bits/basic_string.h
FN:232,_ZNSt7__cxx1112basic_stringIcSt11char_traitsIcESaIcEE16_M_construct_auxIPKcEEvT_S8_St12__false_type
FN:232,_ZNSt7__cxx1112basic_stringIcSt11char_traitsIcESaIcEE16_M_construct_auxIPcEEvT_S7_St12__false_type
FN:252,_ZNSt7__cxx1112basic_stringIcSt11char_traitsIcESaIcEE12_M_constructIPKcEEvT_S8_
FN:252,_ZNSt7__cxx1112basic_stringIcSt11char_traitsIcESaIcEE12_M_constructIPcEEvT_S7_
FNDA:0,_ZNSt7__cxx1112basic_stringIcSt11char_traitsIcESaIcEE16_M_construct_auxIPcEEvT_S7_St12__false_type
FNDA:0,_ZNSt7__cxx1112basic_stringIcSt11char_traitsIcESaIcEE16_M_construct_auxIPKcEEvT_S8_St12__false_type
FNDA:0,_ZNSt7__cxx1112basic_stringIcSt11char_traitsIcESaIcEE12_M_constructIPcEEvT_S7_
FNDA:0,_ZNSt7__cxx1112basic_stringIcSt11char_traitsIcESaIcEE12_M_constructIPKcEEvT_S8_
FNF:4
FNH:0
DA:232,0
DA:236,0
DA:237,0
DA:252,0
DA:255,0
DA:256,0
LF:6
LH:0
end_of_record
SF:/usr/include/c++/8/bits/basic_string.tcc
FN:206,_ZNSt7__cxx1112basic_stringIcSt11char_traitsIcESaIcEE12_M_constructIPcEEvT_S7_St20forward_iterator_tag
FN:206,_ZNSt7__cxx1112basic_stringIcSt11char_traitsIcESaIcEE12_M_constructIPKcEEvT_S8_St20forward_iterator_tag
FNDA:0,_ZNSt7__cxx1112basic_stringIcSt11char_traitsIcESaIcEE12_M_constructIPcEEvT_S7_St20forward_iterator_tag
FNDA:0,_ZNSt7__cxx1112basic_stringIcSt11char_traitsIcESaIcEE12_M_constructIPKcEEvT_S8_St20forward_iterator_tag
FNF:2
FNH:0
DA:206,0
DA:211,0
DA:212,0
DA:215,0
DA:217,0
DA:219,0
DA:220,0
DA:225,0
DA:226,0
DA:228,0
DA:229,0
DA:232,0
DA:233,0
LF:13
LH:0
end_of_record
SF:/usr/include/c++/8/bits/char_traits.h
FN:316,_ZNSt11char_traitsIcE6lengthEPKc
FNDA:0,_ZNSt11char_traitsIcE6lengthEPKc
FNF:1
FNH:0
DA:316,0
DA:322,0
LF:2
LH:0
end_of_record
SF:/home/leito-chan/Downloads/TPI/transporteUrbano/tests/excesoDeVelocidadTEST.cpp
FN:8,_ZN51excesoDeVelocidadTEST_viaje_normal_desordenado_Test8TestBodyEv
FN:8,_ZN51excesoDeVelocidadTEST_viaje_normal_desordenado_TestC2Ev
FN:18,_ZN48excesoDeVelocidadTEST_viaje_normal_ordenado_TestC2Ev
FN:18,_ZN48excesoDeVelocidadTEST_viaje_normal_ordenado_Test8TestBodyEv
FN:28,_ZN51excesoDeVelocidadTEST_viaje_rapido_desordenado_TestC2Ev
FN:28,_ZN51excesoDeVelocidadTEST_viaje_rapido_desordenado_Test8TestBodyEv
FNDA:2,_ZN51excesoDeVelocidadTEST_viaje_normal_desordenado_Test8TestBodyEv
FNDA:2,_ZN51excesoDeVelocidadTEST_viaje_normal_desordenado_TestC2Ev
FNDA:2,_ZN48excesoDeVelocidadTEST_viaje_normal_ordenado_Test8TestBodyEv
FNDA:2,_ZN48excesoDeVelocidadTEST_viaje_normal_ordenado_TestC2Ev
FNDA:2,_ZN51excesoDeVelocidadTEST_viaje_rapido_desordenado_Test8TestBodyEv
FNDA:2,_ZN51excesoDeVelocidadTEST_viaje_rapido_desordenado_TestC2Ev
FNF:6
FNH:6
DA:8,4
DA:9,2
DA:10,2
DA:11,2
DA:12,2
DA:13,8
DA:15,2
DA:18,4
DA:19,2
DA:20,2
DA:21,2
DA:22,2
DA:23,8
DA:25,2
DA:28,4
DA:29,2
DA:30,2
DA:31,2
DA:32,2
DA:33,8
DA:34,2
DA:37,4
DA:38,2
DA:39,2
DA:40,2
DA:41,2
DA:42,8
DA:43,2
LF:28
LH:28
end_of_record
SF:/home/leito-chan/Downloads/TPI/transporteUrbano/lib/googletest-master/googletest/include/gtest/internal/gtest-internal.h
FN:466,_ZN7testing8internal15TestFactoryBaseD2Ev
FN:466,_ZN7testing8internal15TestFactoryBaseD0Ev
FN:473,_ZN7testing8internal15TestFactoryBaseC2Ev
FN:484,_ZN7testing8internal15TestFactoryImplI51excesoDeVelocidadTEST_viaje_rapido_desordenado_TestE10CreateTestEv
FN:484,_ZN7testing8internal15TestFactoryImplI48excesoDeVelocidadTEST_viaje_rapido_ordenado_TestE10CreateTestEv
FN:484,_ZN7testing8internal15TestFactoryImplI48excesoDeVelocidadTEST_viaje_normal_ordenado_TestE10CreateTestEv
FN:484,_ZN7testing8internal15TestFactoryImplI51excesoDeVelocidadTEST_viaje_normal_desordenado_TestE10CreateTestEv
FN:505,_ZN7testing8internal12CodeLocationC2ERKNSt7__cxx1112basic_stringIcSt11char_traitsIcESaIcEEEi
FNDA:0,_ZN7testing8internal15TestFactoryBaseD0Ev
FNDA:0,_ZN7testing8internal15TestFactoryBaseD2Ev
FNDA:0,_ZN7testing8internal15TestFactoryBaseC2Ev
FNDA:2,_ZN7testing8internal15TestFactoryImplI51excesoDeVelocidadTEST_viaje_normal_desordenado_TestE10CreateTestEv
FNDA:2,_ZN7testing8internal15TestFactoryImplI48excesoDeVelocidadTEST_viaje_normal_ordenado_TestE10CreateTestEv
FNDA:2,_ZN7testing8internal15TestFactoryImplI51excesoDeVelocidadTEST_viaje_rapido_desordenado_TestE10CreateTestEv
FNDA:2,_ZN7testing8internal15TestFactoryImplI48excesoDeVelocidadTEST_viaje_rapido_ordenado_TestE10CreateTestEv
FNDA:0,_ZN7testing8internal12CodeLocationC2ERKNSt7__cxx1112basic_stringIcSt11char_traitsIcESaIcEEEi
FNF:8
FNH:4
DA:466,0
DA:473,0
DA:484,8
DA:505,0
DA:506,0
LF:5
LH:1
end_of_record
SF:/home/leito-chan/Downloads/TPI/transporteUrbano/lib/googletest-master/googletest/include/gtest/internal/gtest-port.h
FN:1156,_ZN7testing8internal10scoped_ptrINSt7__cxx1112basic_stringIcSt11char_traitsIcESaIcEEEEC2EPS7_
FN:1157,_ZN7testing8internal10scoped_ptrINSt7__cxx1112basic_stringIcSt11char_traitsIcESaIcEEEED2Ev
FN:1157,_ZN7testing8internal10scoped_ptrINSt7__cxx1118basic_stringstreamIcSt11char_traitsIcESaIcEEEED2Ev
FN:1169,_ZN7testing8internal10scoped_ptrINSt7__cxx1118basic_stringstreamIcSt11char_traitsIcESaIcEEEE5resetEPS7_
FN:1169,_ZN7testing8internal10scoped_ptrINSt7__cxx1112basic_stringIcSt11char_traitsIcESaIcEEEE5resetEPS7_
FNDA:118,_ZN7testing8internal10scoped_ptrINSt7__cxx1112basic_stringIcSt11char_traitsIcESaIcEEEEC2EPS7_
FNDA:0,_ZN7testing8internal10scoped_ptrINSt7__cxx1112basic_stringIcSt11char_traitsIcESaIcEEEED2Ev
FNDA:0,_ZN7testing8internal10scoped_ptrINSt7__cxx1118basic_stringstreamIcSt11char_traitsIcESaIcEEEED2Ev
FNDA:0,_ZN7testing8internal10scoped_ptrINSt7__cxx1118basic_stringstreamIcSt11char_traitsIcESaIcEEEE5resetEPS7_
FNDA:0,_ZN7testing8internal10scoped_ptrINSt7__cxx1112basic_stringIcSt11char_traitsIcESaIcEEEE5resetEPS7_
FNF:5
FNH:1
DA:1156,118
DA:1157,0
DA:1169,0
DA:1170,0
DA:1171,0
DA:1172,0
DA:1174,0
DA:1176,0
LF:8
LH:1
end_of_record
SF:/home/leito-chan/Downloads/TPI/transporteUrbano/lib/googletest-master/googletest/include/gtest/gtest.h
FN:272,_ZN7testing15AssertionResultC2IbEERKT_PNS_8internal8EnableIfIXntsrNS5_21ImplicitlyConvertibleIS2_S0_EE5valueEE4typeE
FN:288,_ZNK7testing15AssertionResultcvbEv
FN:389,_ZN7testing4Test13SetUpTestCaseEv
FN:397,_ZN7testing4Test16TearDownTestCaseEv
FN:474,_ZN7testing4Test5SetupEv
FNDA:118,_ZN7testing15AssertionResultC2IbEERKT_PNS_8internal8EnableIfIXntsrNS5_21ImplicitlyConvertibleIS2_S0_EE5valueEE4typeE
FNDA:0,_ZNK7testing15AssertionResultcvbEv
FNDA:0,_ZN7testing4Test13SetUpTestCaseEv
FNDA:0,_ZN7testing4Test16TearDownTestCaseEv
FNDA:0,_ZN7testing4Test5SetupEv
FNF:5
FNH:1
DA:272,118
DA:277,118
DA:288,0
DA:389,0
DA:397,0
DA:474,0
LF:6
LH:2
end_of_record
SF:/usr/include/c++/8/initializer_list
FN:71,_ZNKSt16initializer_listISt5tupleIJdS0_IJddEEEEE4sizeEv
FN:75,_ZNKSt16initializer_listISt5tupleIJdS0_IJddEEEEE5beginEv
FN:79,_ZNKSt16initializer_listISt5tupleIJdS0_IJddEEEEE3endEv
FNDA:64,_ZNKSt16initializer_listISt5tupleIJdS0_IJddEEEEE4sizeEv
FNDA:128,_ZNKSt16initializer_listISt5tupleIJdS0_IJddEEEEE5beginEv
FNDA:64,_ZNKSt16initializer_listISt5tupleIJdS0_IJddEEEEE3endEv
FNF:3
FNH:3
DA:71,64
DA:75,128
DA:79,64
LF:3
LH:3
end_of_record
SF:/usr/include/c++/8/bits/move.h
FN:47,_ZSt11__addressofISt5tupleIJdS0_IJddEEEEEPT_RS3_
FN:74,_ZSt7forwardIRKSt5tupleIJdS0_IJddEEEEEOT_RNSt16remove_referenceIS5_E4typeE
FN:99,_ZSt4moveIRSaIcEEONSt16remove_referenceIT_E4typeEOS3_
FNDA:0,_ZSt11__addressofISt5tupleIJdS0_IJddEEEEEPT_RS3_
FNDA:0,_ZSt7forwardIRKSt5tupleIJdS0_IJddEEEEEOT_RNSt16remove_referenceIS5_E4typeE
FNDA:0,_ZSt4moveIRSaIcEEONSt16remove_referenceIT_E4typeEOS3_
FNF:3
FNH:0
DA:47,0
DA:48,0
DA:74,0
DA:75,0
DA:99,0
DA:100,0
LF:6
LH:0
end_of_record
SF:/usr/include/c++/8/new
FN:168,_ZnwmPv
FNDA:0,_ZnwmPv
FNF:1
FNH:0
DA:168,0
DA:169,0
LF:2
LH:0
end_of_record
SF:/usr/include/c++/8/ext/new_allocator.h
FN:79,_ZN9__gnu_cxx13new_allocatorISt5tupleIJdS1_IJddEEEEEC2Ev
FN:79,_ZN9__gnu_cxx13new_allocatorIcEC2Ev
FN:81,_ZN9__gnu_cxx13new_allocatorISt5tupleIJdS1_IJddEEEEEC2ERKS4_
FN:81,_ZN9__gnu_cxx13new_allocatorIcEC2ERKS1_
FN:86,_ZN9__gnu_cxx13new_allocatorISt5tupleIJdS1_IJddEEEEED2Ev
FN:86,_ZN9__gnu_cxx13new_allocatorIcED2Ev
FN:99,_ZN9__gnu_cxx13new_allocatorISt5tupleIJdS1_IJddEEEEE8allocateEmPKv
FN:116,_ZN9__gnu_cxx13new_allocatorISt5tupleIJdS1_IJddEEEEE10deallocateEPS3_m
FN:129,_ZNK9__gnu_cxx13new_allocatorISt5tupleIJdS1_IJddEEEEE8max_sizeEv
FNDA:0,_ZN9__gnu_cxx13new_allocatorISt5tupleIJdS1_IJddEEEEEC2Ev
FNDA:0,_ZN9__gnu_cxx13new_allocatorIcEC2Ev
FNDA:0,_ZN9__gnu_cxx13new_allocatorISt5tupleIJdS1_IJddEEEEEC2ERKS4_
FNDA:0,_ZN9__gnu_cxx13new_allocatorIcEC2ERKS1_
FNDA:0,_ZN9__gnu_cxx13new_allocatorISt5tupleIJdS1_IJddEEEEED2Ev
FNDA:0,_ZN9__gnu_cxx13new_allocatorIcED2Ev
FNDA:0,_ZN9__gnu_cxx13new_allocatorISt5tupleIJdS1_IJddEEEEE8allocateEmPKv
FNDA:0,_ZN9__gnu_cxx13new_allocatorISt5tupleIJdS1_IJddEEEEE10deallocateEPS3_m
FNDA:0,_ZNK9__gnu_cxx13new_allocatorISt5tupleIJdS1_IJddEEEEE8max_sizeEv
FNF:9
FNH:0
DA:79,0
DA:81,0
DA:86,0
DA:99,0
DA:101,0
DA:102,0
DA:111,0
DA:116,0
DA:125,0
DA:126,0
DA:129,0
DA:130,0
LF:12
LH:0
end_of_record
SF:/usr/include/c++/8/bits/stl_construct.h
FN:74,_ZSt10_ConstructISt5tupleIJdS0_IJddEEEEJRKS2_EEvPT_DpOT0_
FN:117,_ZNSt12_Destroy_auxILb1EE9__destroyIPSt5tupleIJdS2_IJddEEEEEEvT_S6_
FN:127,_ZSt8_DestroyIPSt5tupleIJdS0_IJddEEEEEvT_S4_
FN:203,_ZSt8_DestroyIPSt5tupleIJdS0_IJddEEEES2_EvT_S4_RSaIT0_E
FNDA:0,_ZSt10_ConstructISt5tupleIJdS0_IJddEEEEJRKS2_EEvPT_DpOT0_
FNDA:0,_ZNSt12_Destroy_auxILb1EE9__destroyIPSt5tupleIJdS2_IJddEEEEEEvT_S6_
FNDA:0,_ZSt8_DestroyIPSt5tupleIJdS0_IJddEEEEEvT_S4_
FNDA:0,_ZSt8_DestroyIPSt5tupleIJdS0_IJddEEEES2_EvT_S4_RSaIT0_E
FNF:4
FNH:0
DA:74,0
DA:75,0
DA:117,0
DA:127,0
DA:137,0
DA:138,0
DA:203,0
DA:206,0
DA:207,0
LF:9
LH:0
end_of_record
SF:/usr/include/c++/8/bits/stl_iterator.h
FN:783,_ZN9__gnu_cxx17__normal_iteratorIPKSt5tupleIJdS1_IJddEEEESt6vectorIS3_SaIS3_EEEC2ERKS5_
FN:796,_ZNK9__gnu_cxx17__normal_iteratorIPKSt5tupleIJdS1_IJddEEEESt6vectorIS3_SaIS3_EEEdeEv
FN:804,_ZN9__gnu_cxx17__normal_iteratorIPKSt5tupleIJdS1_IJddEEEESt6vectorIS3_SaIS3_EEEppEv
FN:848,_ZNK9__gnu_cxx17__normal_iteratorIPKSt5tupleIJdS1_IJddEEEESt6vectorIS3_SaIS3_EEE4baseEv
FN:884,_ZN9__gnu_cxxneIPKSt5tupleIJdS1_IJddEEEESt6vectorIS3_SaIS3_EEEEbRKNS_17__normal_iteratorIT_T0_EESE_
FNDA:0,_ZN9__gnu_cxx17__normal_iteratorIPKSt5tupleIJdS1_IJddEEEESt6vectorIS3_SaIS3_EEEC2ERKS5_
FNDA:0,_ZNK9__gnu_cxx17__normal_iteratorIPKSt5tupleIJdS1_IJddEEEESt6vectorIS3_SaIS3_EEEdeEv
FNDA:0,_ZN9__gnu_cxx17__normal_iteratorIPKSt5tupleIJdS1_IJddEEEESt6vectorIS3_SaIS3_EEEppEv
FNDA:0,_ZNK9__gnu_cxx17__normal_iteratorIPKSt5tupleIJdS1_IJddEEEESt6vectorIS3_SaIS3_EEE4baseEv
FNDA:0,_ZN9__gnu_cxxneIPKSt5tupleIJdS1_IJddEEEESt6vectorIS3_SaIS3_EEEEbRKNS_17__normal_iteratorIT_T0_EESE_
FNF:5
FNH:0
DA:783,0
DA:784,0
DA:796,0
DA:797,0
DA:804,0
DA:806,0
DA:807,0
DA:848,0
DA:849,0
DA:884,0
DA:887,0
LF:11
LH:0
end_of_record
SF:/usr/include/c++/8/bits/stl_iterator_base_funcs.h
FN:98,_ZSt10__distanceIPcENSt15iterator_traitsIT_E15difference_typeES2_S2_St26random_access_iterator_tag
FN:98,_ZSt10__distanceIPKSt5tupleIJdS0_IJddEEEEENSt15iterator_traitsIT_E15difference_typeES6_S6_St26random_access_iterator_tag
FN:98,_ZSt10__distanceIPKcENSt15iterator_traitsIT_E15difference_typeES3_S3_St26random_access_iterator_tag
FNDA:0,_ZSt10__distanceIPcENSt15iterator_traitsIT_E15difference_typeES2_S2_St26random_access_iterator_tag
FNDA:0,_ZSt10__distanceIPKcENSt15iterator_traitsIT_E15difference_typeES3_S3_St26random_access_iterator_tag
FNDA:64,_ZSt10__distanceIPKSt5tupleIJdS0_IJddEEEEENSt15iterator_traitsIT_E15difference_typeES6_S6_St26random_access_iterator_tag
FNF:3
FNH:1
DA:98,64
DA:104,64
DA:138,64
DA:141,64
DA:142,128
LF:5
LH:5
end_of_record
SF:/usr/include/c++/8/bits/stl_iterator_base_types.h
FN:205,_ZSt19__iterator_categoryIPKSt5tupleIJdS0_IJddEEEEENSt15iterator_traitsIT_E17iterator_categoryERKS6_
FN:205,_ZSt19__iterator_categoryIPcENSt15iterator_traitsIT_E17iterator_categoryERKS2_
FN:205,_ZSt19__iterator_categoryIPKcENSt15iterator_traitsIT_E17iterator_categoryERKS3_
FNDA:0,_ZSt19__iterator_categoryIPcENSt15iterator_traitsIT_E17iterator_categoryERKS2_
FNDA:0,_ZSt19__iterator_categoryIPKcENSt15iterator_traitsIT_E17iterator_categoryERKS3_
FNDA:64,_ZSt19__iterator_categoryIPKSt5tupleIJdS0_IJddEEEEENSt15iterator_traitsIT_E17iterator_categoryERKS6_
FNF:3
FNH:1
DA:205,64
DA:206,64
LF:2
LH:2
end_of_record
SF:/usr/include/c++/8/bits/stl_uninitialized.h
FN:76,_ZNSt20__uninitialized_copyILb0EE13__uninit_copyIPKSt5tupleIJdS2_IJddEEEEPS4_EET0_T_S9_S8_
FN:76,_ZNSt20__uninitialized_copyILb0EE13__uninit_copyIN9__gnu_cxx17__normal_iteratorIPKSt5tupleIJdS4_IJddEEEESt6vectorIS6_SaIS6_EEEEPS6_EET0_T_SF_SE_
FN:115,_ZSt18uninitialized_copyIPKSt5tupleIJdS0_IJddEEEEPS2_ET0_T_S7_S6_
FN:115,_ZSt18uninitialized_copyIN9__gnu_cxx17__normal_iteratorIPKSt5tupleIJdS2_IJddEEEESt6vectorIS4_SaIS4_EEEEPS4_ET0_T_SD_SC_
FN:287,_ZSt22__uninitialized_copy_aIPKSt5tupleIJdS0_IJddEEEEPS2_S2_ET0_T_S7_S6_RSaIT1_E
FN:287,_ZSt22__uninitialized_copy_aIN9__gnu_cxx17__normal_iteratorIPKSt5tupleIJdS2_IJddEEEESt6vectorIS4_SaIS4_EEEEPS4_S4_ET0_T_SD_SC_RSaIT1_E
FNDA:64,_ZNSt20__uninitialized_copyILb0EE13__uninit_copyIPKSt5tupleIJdS2_IJddEEEEPS4_EET0_T_S9_S8_
FNDA:0,_ZNSt20__uninitialized_copyILb0EE13__uninit_copyIN9__gnu_cxx17__normal_iteratorIPKSt5tupleIJdS4_IJddEEEESt6vectorIS6_SaIS6_EEEEPS6_EET0_T_SF_SE_
FNDA:64,_ZSt18uninitialized_copyIPKSt5tupleIJdS0_IJddEEEEPS2_ET0_T_S7_S6_
FNDA:0,_ZSt18uninitialized_copyIN9__gnu_cxx17__normal_iteratorIPKSt5tupleIJdS2_IJddEEEESt6vectorIS4_SaIS4_EEEEPS4_ET0_T_SD_SC_
FNDA:64,_ZSt22__uninitialized_copy_aIPKSt5tupleIJdS0_IJddEEEEPS2_S2_ET0_T_S7_S6_RSaIT1_E
FNDA:0,_ZSt22__uninitialized_copy_aIN9__gnu_cxx17__normal_iteratorIPKSt5tupleIJdS2_IJddEEEESt6vectorIS4_SaIS4_EEEEPS4_S4_ET0_T_SD_SC_RSaIT1_E
FNF:6
FNH:3
DA:76,64
DA:79,64
DA:82,282
DA:83,218
DA:84,64
DA:115,64
DA:128,64
DA:134,64
DA:287,64
DA:289,64
LF:10
LH:10
end_of_record
SF:/usr/include/c++/8/bits/stl_vector.h
FN:99,_ZNSt12_Vector_baseISt5tupleIJdS0_IJddEEEESaIS2_EE12_Vector_implC2ERKS3_
FN:237,_ZNSt12_Vector_baseISt5tupleIJdS0_IJddEEEESaIS2_EE19_M_get_Tp_allocatorEv
FN:241,_ZNKSt12_Vector_baseISt5tupleIJdS0_IJddEEEESaIS2_EE19_M_get_Tp_allocatorEv
FN:251,_ZNSt12_Vector_baseISt5tupleIJdS0_IJddEEEESaIS2_EEC2ERKS3_
FN:258,_ZNSt12_Vector_baseISt5tupleIJdS0_IJddEEEESaIS2_EEC2EmRKS3_
FN:283,_ZNSt12_Vector_baseISt5tupleIJdS0_IJddEEEESaIS2_EED2Ev
FN:293,_ZNSt12_Vector_baseISt5tupleIJdS0_IJddEEEESaIS2_EE11_M_allocateEm
FN:300,_ZNSt12_Vector_baseISt5tupleIJdS0_IJddEEEESaIS2_EE13_M_deallocateEPS2_m
FN:309,_ZNSt12_Vector_baseISt5tupleIJdS0_IJddEEEESaIS2_EE17_M_create_storageEm
FN:458,_ZNSt6vectorISt5tupleIJdS0_IJddEEEESaIS2_EEC2ERKS4_
FN:515,_ZNSt6vectorISt5tupleIJdS0_IJddEEEESaIS2_EEC2ESt16initializer_listIS2_ERKS3_
FN:565,_ZNSt6vectorISt5tupleIJdS0_IJddEEEESaIS2_EED2Ev
FN:707,_ZNKSt6vectorISt5tupleIJdS0_IJddEEEESaIS2_EE5beginEv
FN:725,_ZNKSt6vectorISt5tupleIJdS0_IJddEEEESaIS2_EE3endEv
FN:805,_ZNKSt6vectorISt5tupleIJdS0_IJddEEEESaIS2_EE4sizeEv
FN:1462,_ZNSt6vectorISt5tupleIJdS0_IJddEEEESaIS2_EE19_M_range_initializeIPKS2_EEvT_S8_St20forward_iterator_tag
FNDA:0,_ZNSt12_Vector_baseISt5tupleIJdS0_IJddEEEESaIS2_EE12_Vector_implC2ERKS3_
FNDA:0,_ZNSt12_Vector_baseISt5tupleIJdS0_IJddEEEESaIS2_EE19_M_get_Tp_allocatorEv
FNDA:0,_ZNKSt12_Vector_baseISt5tupleIJdS0_IJddEEEESaIS2_EE19_M_get_Tp_allocatorEv
FNDA:64,_ZNSt12_Vector_baseISt5tupleIJdS0_IJddEEEESaIS2_EEC2ERKS3_
FNDA:0,_ZNSt12_Vector_baseISt5tupleIJdS0_IJddEEEESaIS2_EEC2EmRKS3_
FNDA:0,_ZNSt12_Vector_baseISt5tupleIJdS0_IJddEEEESaIS2_EED2Ev
FNDA:0,_ZNSt12_Vector_baseISt5tupleIJdS0_IJddEEEESaIS2_EE11_M_allocateEm
FNDA:0,_ZNSt12_Vector_baseISt5tupleIJdS0_IJddEEEESaIS2_EE13_M_deallocateEPS2_m
FNDA:0,_ZNSt12_Vector_baseISt5tupleIJdS0_IJddEEEESaIS2_EE17_M_create_storageEm
FNDA:0,_ZNSt6vectorISt5tupleIJdS0_IJddEEEESaIS2_EEC2ERKS4_
FNDA:64,_ZNSt6vectorISt5tupleIJdS0_IJddEEEESaIS2_EEC2ESt16initializer_listIS2_ERKS3_
FNDA:0,_ZNSt6vectorISt5tupleIJdS0_IJddEEEESaIS2_EED2Ev
FNDA:0,_ZNKSt6vectorISt5tupleIJdS0_IJddEEEESaIS2_EE5beginEv
FNDA:0,_ZNKSt6vectorISt5tupleIJdS0_IJddEEEESaIS2_EE3endEv
FNDA:0,_ZNKSt6vectorISt5tupleIJdS0_IJddEEEESaIS2_EE4sizeEv
FNDA:64,_ZNSt6vectorISt5tupleIJdS0_IJddEEEESaIS2_EE19_M_range_initializeIPKS2_EEvT_S8_St20forward_iterator_tag
FNF:16
FNH:3
DA:99,0
DA:100,0
DA:101,0
DA:237,0
DA:238,0
DA:241,0
DA:242,0
DA:251,64
DA:252,64
DA:258,0
DA:259,0
DA:260,0
DA:283,0
DA:285,0
DA:286,0
DA:287,0
DA:293,0
DA:296,0
DA:300,0
DA:303,0
DA:304,0
DA:305,0
DA:309,0
DA:311,0
DA:312,0
DA:313,0
DA:314,0
DA:458,0
DA:460,0
DA:462,0
DA:463,0
DA:465,0
DA:466,0
DA:515,64
DA:517,64
DA:519,64
DA:521,64
DA:565,0
DA:567,0
DA:568,0
DA:570,0
DA:707,0
DA:708,0
DA:725,0
DA:726,0
DA:805,0
DA:806,0
DA:1462,64
DA:1465,64
DA:1466,64
DA:1467,64
DA:1468,64
DA:1469,64
DA:1471,64
DA:1472,64
LF:55
LH:14
end_of_record
SF:/usr/include/c++/8/ext/type_traits.h
FN:152,_ZN9__gnu_cxx17__is_null_pointerIcEEbPT_
FN:152,_ZN9__gnu_cxx17__is_null_pointerIKcEEbPT_
FNDA:0,_ZN9__gnu_cxx17__is_null_pointerIcEEbPT_
FNDA:0,_ZN9__gnu_cxx17__is_null_pointerIKcEEbPT_
FNF:2
FNH:0
DA:152,0
DA:153,0
LF:2
LH:0
end_of_record
TN:
SF:/usr/include/c++/8/bits/alloc_traits.h
FN:435,_ZNSt16allocator_traitsISaISt5tupleIJddEEEE8allocateERS2_m
FN:435,_ZNSt16allocator_traitsISaISt5tupleIJS0_IJddEES1_S0_IJiiEEEEEE8allocateERS4_m
FN:435,_ZNSt16allocator_traitsISaIiEE8allocateERS0_m
FN:435,_ZNSt16allocator_traitsISaISt5tupleIJdS0_IJddEEEEEE8allocateERS3_m
FN:461,_ZNSt16allocator_traitsISaISt5tupleIJddEEEE10deallocateERS2_PS1_m
FN:461,_ZNSt16allocator_traitsISaISt5tupleIJS0_IJddEES1_S0_IJiiEEEEEE10deallocateERS4_PS3_m
FN:461,_ZNSt16allocator_traitsISaIiEE10deallocateERS0_Pim
FN:461,_ZNSt16allocator_traitsISaISt5tupleIJdS0_IJddEEEEEE10deallocateERS3_PS2_m
FN:461,_ZNSt16allocator_traitsISaISt5tupleIJiiEEEE10deallocateERS2_PS1_m
FN:474,_ZNSt16allocator_traitsISaISt5tupleIJdS0_IJddEEEEEE9constructIS2_JS2_EEEvRS3_PT_DpOT0_
FN:486,_ZNSt16allocator_traitsISaISt5tupleIJdS0_IJddEEEEEE7destroyIS2_EEvRS3_PT_
FN:495,_ZNSt16allocator_traitsISaISt5tupleIJdS0_IJddEEEEEE8max_sizeERKS3_
FN:504,_ZNSt16allocator_traitsISaISt5tupleIJS0_IJddEES1_S0_IJiiEEEEEE37select_on_container_copy_constructionERKS4_
FN:504,_ZNSt16allocator_traitsISaIcEE37select_on_container_copy_constructionERKS0_
FN:504,_ZNSt16allocator_traitsISaISt5tupleIJdS0_IJddEEEEEE37select_on_container_copy_constructionERKS3_
FN:504,_ZNSt16allocator_traitsISaISt5tupleIJddEEEE37select_on_container_copy_constructionERKS2_
FNDA:0,_ZNSt16allocator_traitsISaISt5tupleIJS0_IJddEES1_S0_IJiiEEEEEE8allocateERS4_m
FNDA:0,_ZNSt16allocator_traitsISaISt5tupleIJdS0_IJddEEEEEE8allocateERS3_m
FNDA:0,_ZNSt16allocator_traitsISaIiEE8allocateERS0_m
FNDA:0,_ZNSt16allocator_traitsISaISt5tupleIJddEEEE8allocateERS2_m
FNDA:0,_ZNSt16allocator_traitsISaISt5tupleIJiiEEEE10deallocateERS2_PS1_m
FNDA:0,_ZNSt16allocator_traitsISaIiEE10deallocateERS0_Pim
FNDA:0,_ZNSt16allocator_traitsISaISt5tupleIJdS0_IJddEEEEEE10deallocateERS3_PS2_m
FNDA:0,_ZNSt16allocator_traitsISaISt5tupleIJddEEEE10deallocateERS2_PS1_m
FNDA:0,_ZNSt16allocator_traitsISaISt5tupleIJS0_IJddEES1_S0_IJiiEEEEEE10deallocateERS4_PS3_m
FNDA:0,_ZNSt16allocator_traitsISaISt5tupleIJdS0_IJddEEEEEE9constructIS2_JS2_EEEvRS3_PT_DpOT0_
FNDA:0,_ZNSt16allocator_traitsISaISt5tupleIJdS0_IJddEEEEEE7destroyIS2_EEvRS3_PT_
FNDA:0,_ZNSt16allocator_traitsISaISt5tupleIJdS0_IJddEEEEEE8max_sizeERKS3_
FNDA:0,_ZNSt16allocator_traitsISaISt5tupleIJdS0_IJddEEEEEE37select_on_container_copy_constructionERKS3_
FNDA:0,_ZNSt16allocator_traitsISaISt5tupleIJS0_IJddEES1_S0_IJiiEEEEEE37select_on_container_copy_constructionERKS4_
FNDA:0,_ZNSt16allocator_traitsISaISt5tupleIJddEEEE37select_on_container_copy_constructionERKS2_
FNDA:0,_ZNSt16allocator_traitsISaIcEE37select_on_container_copy_constructionERKS0_
FNF:16
FNH:0
DA:435,0
DA:436,0
DA:461,0
DA:462,0
DA:474,0
DA:475,0
DA:486,0
DA:487,0
DA:495,0
DA:496,0
DA:504,0
DA:505,0
LF:12
LH:0
end_of_record
SF:/usr/include/c++/8/ext/alloc_traits.h
FN:94,_ZN9__gnu_cxx14__alloc_traitsISaISt5tupleIJddEEES2_E17_S_select_on_copyERKS3_
FN:94,_ZN9__gnu_cxx14__alloc_traitsISaISt5tupleIJS1_IJddEES2_S1_IJiiEEEEES4_E17_S_select_on_copyERKS5_
FN:94,_ZN9__gnu_cxx14__alloc_traitsISaISt5tupleIJdS1_IJddEEEEES3_E17_S_select_on_copyERKS4_
FN:94,_ZN9__gnu_cxx14__alloc_traitsISaIcEcE17_S_select_on_copyERKS1_
FNDA:0,_ZN9__gnu_cxx14__alloc_traitsISaISt5tupleIJdS1_IJddEEEEES3_E17_S_select_on_copyERKS4_
FNDA:0,_ZN9__gnu_cxx14__alloc_traitsISaISt5tupleIJS1_IJddEES2_S1_IJiiEEEEES4_E17_S_select_on_copyERKS5_
FNDA:0,_ZN9__gnu_cxx14__alloc_traitsISaISt5tupleIJddEEES2_E17_S_select_on_copyERKS3_
FNDA:0,_ZN9__gnu_cxx14__alloc_traitsISaIcEcE17_S_select_on_copyERKS1_
FNF:4
FNH:0
DA:94,0
DA:95,0
LF:2
LH:0
end_of_record
SF:/usr/include/c++/8/bits/allocator.h
FN:131,_ZNSaISt5tupleIJddEEEC2Ev
FN:131,_ZNSaIiEC2Ev
FN:131,_ZNSaISt5tupleIJdS_IJddEEEEEC2Ev
FN:133,_ZNSaIiEC2ERKS_
FN:133,_ZNSaISt5tupleIJS_IJddEES0_S_IJiiEEEEEC2ERKS3_
FN:133,_ZNSaISt5tupleIJddEEEC2ERKS1_
FN:133,_ZNSaISt5tupleIJdS_IJddEEEEEC2ERKS2_
FN:139,_ZNSaIiED2Ev
FN:139,_ZNSaISt5tupleIJS_IJddEES0_S_IJiiEEEEED2Ev
FN:139,_ZNSaISt5tupleIJiiEEED2Ev
FN:139,_ZNSaISt5tupleIJddEEED2Ev
FN:139,_ZNSaISt5tupleIJdS_IJddEEEEED2Ev
FNDA:0,_ZNSaISt5tupleIJdS_IJddEEEEEC2Ev
FNDA:0,_ZNSaIiEC2Ev
FNDA:0,_ZNSaISt5tupleIJddEEEC2Ev
FNDA:0,_ZNSaIiEC2ERKS_
FNDA:0,_ZNSaISt5tupleIJdS_IJddEEEEEC2ERKS2_
FNDA:0,_ZNSaISt5tupleIJS_IJddEES0_S_IJiiEEEEEC2ERKS3_
FNDA:0,_ZNSaISt5tupleIJddEEEC2ERKS1_
FNDA:0,_ZNSaISt5tupleIJiiEEED2Ev
FNDA:0,_ZNSaISt5tupleIJdS_IJddEEEEED2Ev
FNDA:0,_ZNSaISt5tupleIJS_IJddEES0_S_IJiiEEEEED2Ev
FNDA:0,_ZNSaIiED2Ev
FNDA:0,_ZNSaISt5tupleIJddEEED2Ev
FNF:12
FNH:0
DA:131,0
DA:133,0
DA:134,0
DA:139,0
LF:4
LH:0
end_of_record
SF:/usr/include/c++/8/bits/basic_string.h
FN:232,_ZNSt7__cxx1112basic_stringIcSt11char_traitsIcESaIcEE16_M_construct_auxIPKcEEvT_S8_St12__false_type
FN:232,_ZNSt7__cxx1112basic_stringIcSt11char_traitsIcESaIcEE16_M_construct_auxIPcEEvT_S7_St12__false_type
FN:252,_ZNSt7__cxx1112basic_stringIcSt11char_traitsIcESaIcEE12_M_constructIPKcEEvT_S8_
FN:252,_ZNSt7__cxx1112basic_stringIcSt11char_traitsIcESaIcEE12_M_constructIPcEEvT_S7_
FNDA:0,_ZNSt7__cxx1112basic_stringIcSt11char_traitsIcESaIcEE16_M_construct_auxIPcEEvT_S7_St12__false_type
FNDA:0,_ZNSt7__cxx1112basic_stringIcSt11char_traitsIcESaIcEE16_M_construct_auxIPKcEEvT_S8_St12__false_type
FNDA:0,_ZNSt7__cxx1112basic_stringIcSt11char_traitsIcESaIcEE12_M_constructIPcEEvT_S7_
FNDA:0,_ZNSt7__cxx1112basic_stringIcSt11char_traitsIcESaIcEE12_M_constructIPKcEEvT_S8_
FNF:4
FNH:0
DA:232,0
DA:236,0
DA:237,0
DA:252,0
DA:255,0
DA:256,0
LF:6
LH:0
end_of_record
SF:/usr/include/c++/8/bits/basic_string.tcc
FN:206,_ZNSt7__cxx1112basic_stringIcSt11char_traitsIcESaIcEE12_M_constructIPKcEEvT_S8_St20forward_iterator_tag
FN:206,_ZNSt7__cxx1112basic_stringIcSt11char_traitsIcESaIcEE12_M_constructIPcEEvT_S7_St20forward_iterator_tag
FNDA:0,_ZNSt7__cxx1112basic_stringIcSt11char_traitsIcESaIcEE12_M_constructIPcEEvT_S7_St20forward_iterator_tag
FNDA:0,_ZNSt7__cxx1112basic_stringIcSt11char_traitsIcESaIcEE12_M_constructIPKcEEvT_S8_St20forward_iterator_tag
FNF:2
FNH:0
DA:206,0
DA:211,0
DA:212,0
DA:215,0
DA:217,0
DA:219,0
DA:220,0
DA:225,0
DA:226,0
DA:228,0
DA:229,0
DA:232,0
DA:233,0
LF:13
LH:0
end_of_record
SF:/home/leito-chan/Downloads/TPI/transporteUrbano/tests/cantidadDeSaltosTEST.cpp
FN:7,_ZN54cantidadDeSaltosTEST_viaje_sin_ordenar_sin_saltos_Test8TestBodyEv
FN:7,_ZN54cantidadDeSaltosTEST_viaje_sin_ordenar_sin_saltos_TestC2Ev
FN:30,_ZN54cantidadDeSaltosTEST_viaje_sin_ordenar_con_saltos_TestC2Ev
FN:30,_ZN54cantidadDeSaltosTEST_viaje_sin_ordenar_con_saltos_Test8TestBodyEv
FN:55,_ZN51cantidadDeSaltosTEST_viaje_ordenado_sin_saltos_TestC2Ev
FN:55,_ZN51cantidadDeSaltosTEST_viaje_ordenado_sin_saltos_Test8TestBodyEv
FNDA:2,_ZN54cantidadDeSaltosTEST_viaje_sin_ordenar_sin_saltos_Test8TestBodyEv
FNDA:2,_ZN54cantidadDeSaltosTEST_viaje_sin_ordenar_sin_saltos_TestC2Ev
FNDA:2,_ZN54cantidadDeSaltosTEST_viaje_sin_ordenar_con_saltos_Test8TestBodyEv
FNDA:2,_ZN54cantidadDeSaltosTEST_viaje_sin_ordenar_con_saltos_TestC2Ev
FNDA:2,_ZN51cantidadDeSaltosTEST_viaje_ordenado_sin_saltos_Test8TestBodyEv
FNDA:2,_ZN51cantidadDeSaltosTEST_viaje_ordenado_sin_saltos_TestC2Ev
FNF:6
FNH:6
DA:7,4
DA:8,2
DA:9,2
DA:10,2
DA:18,2
DA:20,2
DA:21,2
DA:22,10
DA:23,8
DA:26,4
DA:27,2
DA:30,4
DA:31,2
DA:32,2
DA:33,2
DA:41,2
DA:43,2
DA:44,2
DA:45,10
DA:46,8
DA:49,4
DA:51,2
DA:55,4
DA:56,2
DA:57,2
DA:58,2
DA:66,2
DA:68,2
DA:69,10
DA:70,8
DA:73,4
DA:74,2
DA:77,4
DA:78,2
DA:79,2
DA:80,2
DA:88,2
DA:90,2
DA:91,10
DA:92,8
DA:95,4
DA:96,2
LF:42
LH:42
end_of_record
SF:/usr/include/c++/8/bits/char_traits.h
FN:316,_ZNSt11char_traitsIcE6lengthEPKc
FNDA:0,_ZNSt11char_traitsIcE6lengthEPKc
FNF:1
FNH:0
DA:316,0
DA:322,0
LF:2
LH:0
end_of_record
SF:/usr/include/c++/8/bits/cpp_type_traits.h
FN:419,_ZSt12__miter_baseIPKiET_S2_
FNDA:8,_ZSt12__miter_baseIPKiET_S2_
FNF:1
FNH:1
DA:419,8
DA:420,8
LF:2
LH:2
end_of_record
SF:/home/leito-chan/Downloads/TPI/transporteUrbano/lib/googletest-master/googletest/include/gtest/internal/gtest-internal.h
FN:466,_ZN7testing8internal15TestFactoryBaseD0Ev
FN:466,_ZN7testing8internal15TestFactoryBaseD2Ev
FN:473,_ZN7testing8internal15TestFactoryBaseC2Ev
FN:484,_ZN7testing8internal15TestFactoryImplI54cantidadDeSaltosTEST_viaje_sin_ordenar_sin_saltos_TestE10CreateTestEv
FN:484,_ZN7testing8internal15TestFactoryImplI54cantidadDeSaltosTEST_viaje_sin_ordenar_con_saltos_TestE10CreateTestEv
FN:484,_ZN7testing8internal15TestFactoryImplI51cantidadDeSaltosTEST_viaje_ordenado_sin_saltos_TestE10CreateTestEv
FN:484,_ZN7testing8internal15TestFactoryImplI51cantidadDeSaltosTEST_viaje_ordenado_con_saltos_TestE10CreateTestEv
FN:505,_ZN7testing8internal12CodeLocationC2ERKNSt7__cxx1112basic_stringIcSt11char_traitsIcESaIcEEEi
FNDA:0,_ZN7testing8internal15TestFactoryBaseD0Ev
FNDA:0,_ZN7testing8internal15TestFactoryBaseD2Ev
FNDA:0,_ZN7testing8internal15TestFactoryBaseC2Ev
FNDA:2,_ZN7testing8internal15TestFactoryImplI54cantidadDeSaltosTEST_viaje_sin_ordenar_sin_saltos_TestE10CreateTestEv
FNDA:2,_ZN7testing8internal15TestFactoryImplI54cantidadDeSaltosTEST_viaje_sin_ordenar_con_saltos_TestE10CreateTestEv
FNDA:2,_ZN7testing8internal15TestFactoryImplI51cantidadDeSaltosTEST_viaje_ordenado_sin_saltos_TestE10CreateTestEv
FNDA:2,_ZN7testing8internal15TestFactoryImplI51cantidadDeSaltosTEST_viaje_ordenado_con_saltos_TestE10CreateTestEv
FNDA:0,_ZN7testing8internal12CodeLocationC2ERKNSt7__cxx1112basic_stringIcSt11char_traitsIcESaIcEEEi
FNF:8
FNH:4
DA:466,0
DA:473,0
DA:484,8
DA:505,0
DA:506,0
LF:5
LH:1
end_of_record
SF:/home/leito-chan/Downloads/TPI/transporteUrbano/lib/googletest-master/googletest/include/gtest/internal/gtest-port.h
FN:1157,_ZN7testing8internal10scoped_ptrINSt7__cxx1112basic_stringIcSt11char_traitsIcESaIcEEEED2Ev
FN:1157,_ZN7testing8internal10scoped_ptrINSt7__cxx1118basic_stringstreamIcSt11char_traitsIcESaIcEEEED2Ev
FN:1160,_ZNK7testing8internal10scoped_ptrINSt7__cxx1112basic_stringIcSt11char_traitsIcESaIcEEEEptEv
FN:1161,_ZNK7testing8internal10scoped_ptrINSt7__cxx1112basic_stringIcSt11char_traitsIcESaIcEEEE3getEv
FN:1169,_ZN7testing8internal10scoped_ptrINSt7__cxx1118basic_stringstreamIcSt11char_traitsIcESaIcEEEE5resetEPS7_
FN:1169,_ZN7testing8internal10scoped_ptrINSt7__cxx1112basic_stringIcSt11char_traitsIcESaIcEEEE5resetEPS7_
FNDA:0,_ZN7testing8internal10scoped_ptrINSt7__cxx1112basic_stringIcSt11char_traitsIcESaIcEEEED2Ev
FNDA:0,_ZN7testing8internal10scoped_ptrINSt7__cxx1118basic_stringstreamIcSt11char_traitsIcESaIcEEEED2Ev
FNDA:0,_ZNK7testing8internal10scoped_ptrINSt7__cxx1112basic_stringIcSt11char_traitsIcESaIcEEEEptEv
FNDA:0,_ZNK7testing8internal10scoped_ptrINSt7__cxx1112basic_stringIcSt11char_traitsIcESaIcEEEE3getEv
FNDA:0,_ZN7testing8internal10scoped_ptrINSt7__cxx1118basic_stringstreamIcSt11char_traitsIcESaIcEEEE5resetEPS7_
FNDA:0,_ZN7testing8internal10scoped_ptrINSt7__cxx1112basic_stringIcSt11char_traitsIcESaIcEEEE5resetEPS7_
FNF:6
FNH:0
DA:1157,0
DA:1160,0
DA:1161,0
DA:1169,0
DA:1170,0
DA:1171,0
DA:1172,0
DA:1174,0
DA:1176,0
LF:9
LH:0
end_of_record
SF:/home/leito-chan/Downloads/TPI/transporteUrbano/lib/googletest-master/googletest/include/gtest/gtest-printers.h
FN:222,_ZN16testing_internal26DefaultPrintNonContainerToIiEEvRKT_PSo
FN:275,_ZN7testing8internal19FormatForComparisonIiiE6FormatB5cxx11ERKi
FN:349,_ZN7testing8internal33FormatForComparisonFailureMessageIiiEENSt7__cxx1112basic_stringIcSt11char_traitsIcESaIcEEERKT_RKT0_
FN:442,_ZN7testing8internal14DefaultPrintToIiEEvNS0_15WrapPrinterTypeILNS0_18DefaultPrinterTypeE3EEERKT_PSo
FN:459,_ZN7testing8internal7PrintToIiEEvRKT_PSo
FN:714,_ZN7testing8internal16UniversalPrinterIiE5PrintERKiPSo
FN:799,_ZN7testing8internal21UniversalTersePrinterIiE5PrintERKiPSo
FN:868,_ZN7testing8internal14UniversalPrintIiEEvRKT_PSo
FN:996,_ZN7testing13PrintToStringIiEENSt7__cxx1112basic_stringIcSt11char_traitsIcESaIcEEERKT_
FNDA:0,_ZN16testing_internal26DefaultPrintNonContainerToIiEEvRKT_PSo
FNDA:0,_ZN7testing8internal19FormatForComparisonIiiE6FormatB5cxx11ERKi
FNDA:0,_ZN7testing8internal33FormatForComparisonFailureMessageIiiEENSt7__cxx1112basic_stringIcSt11char_traitsIcESaIcEEERKT_RKT0_
FNDA:0,_ZN7testing8internal14DefaultPrintToIiEEvNS0_15WrapPrinterTypeILNS0_18DefaultPrinterTypeE3EEERKT_PSo
FNDA:0,_ZN7testing8internal7PrintToIiEEvRKT_PSo
FNDA:0,_ZN7testing8internal16UniversalPrinterIiE5PrintERKiPSo
FNDA:0,_ZN7testing8internal21UniversalTersePrinterIiE5PrintERKiPSo
FNDA:0,_ZN7testing8internal14UniversalPrintIiEEvRKT_PSo
FNDA:0,_ZN7testing13PrintToStringIiEENSt7__cxx1112basic_stringIcSt11char_traitsIcESaIcEEERKT_
FNF:9
FNH:0
DA:222,0
DA:249,0
DA:250,0
DA:275,0
DA:276,0
DA:349,0
DA:351,0
DA:442,0
DA:444,0
DA:445,0
DA:459,0
DA:481,0
DA:494,0
DA:714,0
DA:723,0
DA:724,0
DA:799,0
DA:800,0
DA:801,0
DA:868,0
DA:872,0
DA:873,0
DA:996,0
DA:997,0
DA:998,0
DA:999,0
LF:26
LH:0
end_of_record
SF:/home/leito-chan/Downloads/TPI/transporteUrbano/lib/googletest-master/googletest/include/gtest/gtest.h
FN:288,_ZNK7testing15AssertionResultcvbEv
FN:297,_ZNK7testing15AssertionResult7messageEv
FN:302,_ZNK7testing15AssertionResult15failure_messageEv
FN:389,_ZN7testing4Test13SetUpTestCaseEv
FN:397,_ZN7testing4Test16TearDownTestCaseEv
FN:474,_ZN7testing4Test5SetupEv
FN:1375,_ZN7testing8internal18CmpHelperEQFailureIiiEENS_15AssertionResultEPKcS4_RKT_RKT0_
FN:1387,_ZN7testing8internal11CmpHelperEQIiiEENS_15AssertionResultEPKcS4_RKT_RKT0_
FN:1417,_ZN7testing8internal8EqHelperILb0EE7CompareIiiEENS_15AssertionResultEPKcS6_RKT_RKT0_
FNDA:0,_ZNK7testing15AssertionResultcvbEv
FNDA:0,_ZNK7testing15AssertionResult7messageEv
FNDA:0,_ZNK7testing15AssertionResult15failure_messageEv
FNDA:0,_ZN7testing4Test13SetUpTestCaseEv
FNDA:0,_ZN7testing4Test16TearDownTestCaseEv
FNDA:0,_ZN7testing4Test5SetupEv
FNDA:0,_ZN7testing8internal18CmpHelperEQFailureIiiEENS_15AssertionResultEPKcS4_RKT_RKT0_
FNDA:0,_ZN7testing8internal11CmpHelperEQIiiEENS_15AssertionResultEPKcS4_RKT_RKT0_
FNDA:0,_ZN7testing8internal8EqHelperILb0EE7CompareIiiEENS_15AssertionResultEPKcS6_RKT_RKT0_
FNF:9
FNH:0
DA:288,0
DA:297,0
DA:298,0
DA:302,0
DA:389,0
DA:397,0
DA:474,0
DA:1375,0
DA:1382,0
DA:1387,0
DA:1392,0
DA:1393,0
DA:1397,0
DA:1417,0
DA:1421,0
LF:15
LH:0
end_of_record
SF:/usr/include/c++/8/initializer_list
FN:71,_ZNKSt16initializer_listIiE4sizeEv
FN:71,_ZNKSt16initializer_listISt5tupleIJddEEE4sizeEv
FN:75,_ZNKSt16initializer_listISt5tupleIJddEEE5beginEv
FN:75,_ZNKSt16initializer_listIiE5beginEv
FN:79,_ZNKSt16initializer_listISt5tupleIJddEEE3endEv
FN:79,_ZNKSt16initializer_listIiE3endEv
FNDA:4,_ZNKSt16initializer_listIiE4sizeEv
FNDA:0,_ZNKSt16initializer_listISt5tupleIJddEEE4sizeEv
FNDA:8,_ZNKSt16initializer_listIiE5beginEv
FNDA:0,_ZNKSt16initializer_listISt5tupleIJddEEE5beginEv
FNDA:4,_ZNKSt16initializer_listIiE3endEv
FNDA:0,_ZNKSt16initializer_listISt5tupleIJddEEE3endEv
FNF:6
FNH:3
DA:71,4
DA:75,8
DA:79,4
LF:3
LH:3
end_of_record
SF:/usr/include/c++/8/bits/ios_base.h
FN:129,_ZStorSt13_Ios_OpenmodeS_
FNDA:0,_ZStorSt13_Ios_OpenmodeS_
FNF:1
FNH:0
DA:129,0
DA:130,0
LF:2
LH:0
end_of_record
SF:/usr/include/c++/8/bits/move.h
FN:47,_ZSt11__addressofISt5tupleIJS0_IJddEES1_S0_IJiiEEEEEPT_RS4_
FN:47,_ZSt11__addressofISt5tupleIJddEEEPT_RS2_
FN:47,_ZSt11__addressofISt5tupleIJdS0_IJddEEEEEPT_RS3_
FN:74,_ZSt7forwardIRKSt5tupleIJddEEEOT_RNSt16remove_referenceIS4_E4typeE
FN:74,_ZSt7forwardISt5tupleIJddEEEOT_RNSt16remove_referenceIS2_E4typeE
FN:74,_ZSt7forwardIRKSt5tupleIJS0_IJddEES1_S0_IJiiEEEEEOT_RNSt16remove_referenceIS6_E4typeE
FN:74,_ZSt7forwardIdEOT_RNSt16remove_referenceIS0_E4typeE
FN:74,_ZSt7forwardISt5tupleIJdS0_IJddEEEEEOT_RNSt16remove_referenceIS3_E4typeE
FN:74,_ZSt7forwardIRKSt5tupleIJdS0_IJddEEEEEOT_RNSt16remove_referenceIS5_E4typeE
FN:99,_ZSt4moveIRSt11_Tuple_implILm1EJSt5tupleIJddEEEEEONSt16remove_referenceIT_E4typeEOS6_
FN:99,_ZSt4moveIRSt5tupleIJdS0_IJddEEEEEONSt16remove_referenceIT_E4typeEOS5_
FN:99,_ZSt4moveIRSaIcEEONSt16remove_referenceIT_E4typeEOS3_
FN:99,_ZSt4moveIRSt11_Tuple_implILm1EJdEEEONSt16remove_referenceIT_E4typeEOS4_
FNDA:0,_ZSt11__addressofISt5tupleIJdS0_IJddEEEEEPT_RS3_
FNDA:0,_ZSt11__addressofISt5tupleIJS0_IJddEES1_S0_IJiiEEEEEPT_RS4_
FNDA:0,_ZSt11__addressofISt5tupleIJddEEEPT_RS2_
FNDA:0,_ZSt7forwardIRKSt5tupleIJdS0_IJddEEEEEOT_RNSt16remove_referenceIS5_E4typeE
FNDA:0,_ZSt7forwardIRKSt5tupleIJS0_IJddEES1_S0_IJiiEEEEEOT_RNSt16remove_referenceIS6_E4typeE
FNDA:0,_ZSt7forwardIRKSt5tupleIJddEEEOT_RNSt16remove_referenceIS4_E4typeE
FNDA:0,_ZSt7forwardISt5tupleIJddEEEOT_RNSt16remove_referenceIS2_E4typeE
FNDA:0,_ZSt7forwardISt5tupleIJdS0_IJddEEEEEOT_RNSt16remove_referenceIS3_E4typeE
FNDA:0,_ZSt7forwardIdEOT_RNSt16remove_referenceIS0_E4typeE
FNDA:0,_ZSt4moveIRSt11_Tuple_implILm1EJSt5tupleIJddEEEEEONSt16remove_referenceIT_E4typeEOS6_
FNDA:0,_ZSt4moveIRSaIcEEONSt16remove_referenceIT_E4typeEOS3_
FNDA:0,_ZSt4moveIRSt5tupleIJdS0_IJddEEEEEONSt16remove_referenceIT_E4typeEOS5_
FNDA:0,_ZSt4moveIRSt11_Tuple_implILm1EJdEEEONSt16remove_referenceIT_E4typeEOS4_
FNF:13
FNH:0
DA:47,0
DA:48,0
DA:74,0
DA:75,0
DA:99,0
DA:100,0
LF:6
LH:0
end_of_record
SF:/usr/include/c++/8/new
FN:168,_ZnwmPv
FNDA:0,_ZnwmPv
FNF:1
FNH:0
DA:168,0
DA:169,0
LF:2
LH:0
end_of_record
SF:/usr/include/c++/8/ext/new_allocator.h
FN:79,_ZN9__gnu_cxx13new_allocatorIiEC2Ev
FN:79,_ZN9__gnu_cxx13new_allocatorISt5tupleIJdS1_IJddEEEEEC2Ev
FN:79,_ZN9__gnu_cxx13new_allocatorIcEC2Ev
FN:79,_ZN9__gnu_cxx13new_allocatorISt5tupleIJddEEEC2Ev
FN:81,_ZN9__gnu_cxx13new_allocatorISt5tupleIJdS1_IJddEEEEEC2ERKS4_
FN:81,_ZN9__gnu_cxx13new_allocatorIiEC2ERKS1_
FN:81,_ZN9__gnu_cxx13new_allocatorISt5tupleIJddEEEC2ERKS3_
FN:81,_ZN9__gnu_cxx13new_allocatorIcEC2ERKS1_
FN:81,_ZN9__gnu_cxx13new_allocatorISt5tupleIJS1_IJddEES2_S1_IJiiEEEEEC2ERKS5_
FN:86,_ZN9__gnu_cxx13new_allocatorIcED2Ev
FN:86,_ZN9__gnu_cxx13new_allocatorISt5tupleIJddEEED2Ev
FN:86,_ZN9__gnu_cxx13new_allocatorIiED2Ev
FN:86,_ZN9__gnu_cxx13new_allocatorISt5tupleIJiiEEED2Ev
FN:86,_ZN9__gnu_cxx13new_allocatorISt5tupleIJS1_IJddEES2_S1_IJiiEEEEED2Ev
FN:86,_ZN9__gnu_cxx13new_allocatorISt5tupleIJdS1_IJddEEEEED2Ev
FN:99,_ZN9__gnu_cxx13new_allocatorISt5tupleIJddEEE8allocateEmPKv
FN:99,_ZN9__gnu_cxx13new_allocatorISt5tupleIJdS1_IJddEEEEE8allocateEmPKv
FN:99,_ZN9__gnu_cxx13new_allocatorIiE8allocateEmPKv
FN:99,_ZN9__gnu_cxx13new_allocatorISt5tupleIJS1_IJddEES2_S1_IJiiEEEEE8allocateEmPKv
FN:116,_ZN9__gnu_cxx13new_allocatorISt5tupleIJS1_IJddEES2_S1_IJiiEEEEE10deallocateEPS4_m
FN:116,_ZN9__gnu_cxx13new_allocatorIiE10deallocateEPim
FN:116,_ZN9__gnu_cxx13new_allocatorISt5tupleIJddEEE10deallocateEPS2_m
FN:116,_ZN9__gnu_cxx13new_allocatorISt5tupleIJdS1_IJddEEEEE10deallocateEPS3_m
FN:116,_ZN9__gnu_cxx13new_allocatorISt5tupleIJiiEEE10deallocateEPS2_m
FN:129,_ZNK9__gnu_cxx13new_allocatorIiE8max_sizeEv
FN:129,_ZNK9__gnu_cxx13new_allocatorISt5tupleIJdS1_IJddEEEEE8max_sizeEv
FN:129,_ZNK9__gnu_cxx13new_allocatorISt5tupleIJddEEE8max_sizeEv
FN:129,_ZNK9__gnu_cxx13new_allocatorISt5tupleIJS1_IJddEES2_S1_IJiiEEEEE8max_sizeEv
FN:135,_ZN9__gnu_cxx13new_allocatorISt5tupleIJdS1_IJddEEEEE9constructIS3_JS3_EEEvPT_DpOT0_
FN:140,_ZN9__gnu_cxx13new_allocatorISt5tupleIJdS1_IJddEEEEE7destroyIS3_EEvPT_
FNDA:0,_ZN9__gnu_cxx13new_allocatorISt5tupleIJdS1_IJddEEEEEC2Ev
FNDA:0,_ZN9__gnu_cxx13new_allocatorIiEC2Ev
FNDA:0,_ZN9__gnu_cxx13new_allocatorISt5tupleIJddEEEC2Ev
FNDA:0,_ZN9__gnu_cxx13new_allocatorIcEC2Ev
FNDA:0,_ZN9__gnu_cxx13new_allocatorIiEC2ERKS1_
FNDA:0,_ZN9__gnu_cxx13new_allocatorISt5tupleIJdS1_IJddEEEEEC2ERKS4_
FNDA:0,_ZN9__gnu_cxx13new_allocatorISt5tupleIJS1_IJddEES2_S1_IJiiEEEEEC2ERKS5_
FNDA:0,_ZN9__gnu_cxx13new_allocatorISt5tupleIJddEEEC2ERKS3_
FNDA:0,_ZN9__gnu_cxx13new_allocatorIcEC2ERKS1_
FNDA:0,_ZN9__gnu_cxx13new_allocatorISt5tupleIJiiEEED2Ev
FNDA:0,_ZN9__gnu_cxx13new_allocatorISt5tupleIJdS1_IJddEEEEED2Ev
FNDA:0,_ZN9__gnu_cxx13new_allocatorISt5tupleIJS1_IJddEES2_S1_IJiiEEEEED2Ev
FNDA:0,_ZN9__gnu_cxx13new_allocatorIiED2Ev
FNDA:0,_ZN9__gnu_cxx13new_allocatorISt5tupleIJddEEED2Ev
FNDA:0,_ZN9__gnu_cxx13new_allocatorIcED2Ev
FNDA:0,_ZN9__gnu_cxx13new_allocatorISt5tupleIJS1_IJddEES2_S1_IJiiEEEEE8allocateEmPKv
FNDA:0,_ZN9__gnu_cxx13new_allocatorISt5tupleIJdS1_IJddEEEEE8allocateEmPKv
FNDA:0,_ZN9__gnu_cxx13new_allocatorIiE8allocateEmPKv
FNDA:0,_ZN9__gnu_cxx13new_allocatorISt5tupleIJddEEE8allocateEmPKv
FNDA:0,_ZN9__gnu_cxx13new_allocatorISt5tupleIJiiEEE10deallocateEPS2_m
FNDA:0,_ZN9__gnu_cxx13new_allocatorIiE10deallocateEPim
FNDA:0,_ZN9__gnu_cxx13new_allocatorISt5tupleIJdS1_IJddEEEEE10deallocateEPS3_m
FNDA:0,_ZN9__gnu_cxx13new_allocatorISt5tupleIJddEEE10deallocateEPS2_m
FNDA:0,_ZN9__gnu_cxx13new_allocatorISt5tupleIJS1_IJddEES2_S1_IJiiEEEEE10deallocateEPS4_m
FNDA:0,_ZNK9__gnu_cxx13new_allocatorISt5tupleIJS1_IJddEES2_S1_IJiiEEEEE8max_sizeEv
FNDA:0,_ZNK9__gnu_cxx13new_allocatorISt5tupleIJdS1_IJddEEEEE8max_sizeEv
FNDA:0,_ZNK9__gnu_cxx13new_allocatorIiE8max_sizeEv
FNDA:0,_ZNK9__gnu_cxx13new_allocatorISt5tupleIJddEEE8max_sizeEv
FNDA:0,_ZN9__gnu_cxx13new_allocatorISt5tupleIJdS1_IJddEEEEE9constructIS3_JS3_EEEvPT_DpOT0_
FNDA:0,_ZN9__gnu_cxx13new_allocatorISt5tupleIJdS1_IJddEEEEE7destroyIS3_EEvPT_
FNF:30
FNH:0
DA:79,0
DA:81,0
DA:86,0
DA:99,0
DA:101,0
DA:102,0
DA:111,0
DA:116,0
DA:125,0
DA:126,0
DA:129,0
DA:130,0
DA:135,0
DA:136,0
DA:140,0
LF:15
LH:0
end_of_record
SF:/usr/include/c++/8/bits/stl_algobase.h
FN:219,_ZSt3maxImERKT_S2_S2_
FN:277,_ZSt12__niter_baseIPiET_S1_
FN:277,_ZSt12__niter_baseIPKiET_S2_
FN:357,_ZNSt11__copy_moveILb0ELb1ESt26random_access_iterator_tagE8__copy_mIiEEPT_PKS3_S6_S4_
FN:375,_ZSt13__copy_move_aILb0EPKiPiET1_T0_S4_S3_
FN:420,_ZSt14__copy_move_a2ILb0EPKiPiET1_T0_S4_S3_
FN:446,_ZSt4copyIPKiPiET0_T_S4_S3_
FNDA:0,_ZSt3maxImERKT_S2_S2_
FNDA:0,_ZSt12__niter_baseIPiET_S1_
FNDA:8,_ZSt12__niter_baseIPKiET_S2_
FNDA:18,_ZNSt11__copy_moveILb0ELb1ESt26random_access_iterator_tagE8__copy_mIiEEPT_PKS3_S6_S4_
FNDA:18,_ZSt13__copy_move_aILb0EPKiPiET1_T0_S4_S3_
FNDA:4,_ZSt14__copy_move_a2ILb0EPKiPiET1_T0_S4_S3_
FNDA:4,_ZSt4copyIPKiPiET0_T_S4_S3_
FNF:7
FNH:5
DA:219,0
DA:224,0
DA:225,0
DA:226,0
DA:277,8
DA:278,8
DA:357,18
DA:366,18
DA:367,18
DA:368,18
DA:369,18
DA:375,18
DA:380,18
DA:386,18
DA:420,4
DA:422,4
DA:424,4
DA:446,4
DA:455,4
DA:456,4
LF:20
LH:16
end_of_record
SF:/usr/include/c++/8/bits/stl_construct.h
FN:74,_ZSt10_ConstructISt5tupleIJS0_IJddEES1_S0_IJiiEEEEJRKS3_EEvPT_DpOT0_
FN:74,_ZSt10_ConstructISt5tupleIJdS0_IJddEEEEJRKS2_EEvPT_DpOT0_
FN:74,_ZSt10_ConstructISt5tupleIJddEEJRKS1_EEvPT_DpOT0_
FN:74,_ZSt10_ConstructISt5tupleIJdS0_IJddEEEEJS2_EEvPT_DpOT0_
FN:117,_ZNSt12_Destroy_auxILb1EE9__destroyIPSt5tupleIJS2_IJddEES3_S2_IJiiEEEEEEvT_S7_
FN:117,_ZNSt12_Destroy_auxILb1EE9__destroyIPSt5tupleIJdS2_IJddEEEEEEvT_S6_
FN:117,_ZNSt12_Destroy_auxILb1EE9__destroyIPiEEvT_S3_
FN:117,_ZNSt12_Destroy_auxILb1EE9__destroyIPSt5tupleIJddEEEEvT_S5_
FN:117,_ZNSt12_Destroy_auxILb1EE9__destroyIPSt5tupleIJiiEEEEvT_S5_
FN:127,_ZSt8_DestroyIPSt5tupleIJddEEEvT_S3_
FN:127,_ZSt8_DestroyIPSt5tupleIJiiEEEvT_S3_
FN:127,_ZSt8_DestroyIPiEvT_S1_
FN:127,_ZSt8_DestroyIPSt5tupleIJS0_IJddEES1_S0_IJiiEEEEEvT_S5_
FN:127,_ZSt8_DestroyIPSt5tupleIJdS0_IJddEEEEEvT_S4_
FN:203,_ZSt8_DestroyIPSt5tupleIJS0_IJddEES1_S0_IJiiEEEES3_EvT_S5_RSaIT0_E
FN:203,_ZSt8_DestroyIPSt5tupleIJiiEES1_EvT_S3_RSaIT0_E
FN:203,_ZSt8_DestroyIPiiEvT_S1_RSaIT0_E
FN:203,_ZSt8_DestroyIPSt5tupleIJdS0_IJddEEEES2_EvT_S4_RSaIT0_E
FN:203,_ZSt8_DestroyIPSt5tupleIJddEES1_EvT_S3_RSaIT0_E
FNDA:0,_ZSt10_ConstructISt5tupleIJdS0_IJddEEEEJS2_EEvPT_DpOT0_
FNDA:0,_ZSt10_ConstructISt5tupleIJdS0_IJddEEEEJRKS2_EEvPT_DpOT0_
FNDA:0,_ZSt10_ConstructISt5tupleIJS0_IJddEES1_S0_IJiiEEEEJRKS3_EEvPT_DpOT0_
FNDA:0,_ZSt10_ConstructISt5tupleIJddEEJRKS1_EEvPT_DpOT0_
FNDA:0,_ZNSt12_Destroy_auxILb1EE9__destroyIPSt5tupleIJiiEEEEvT_S5_
FNDA:0,_ZNSt12_Destroy_auxILb1EE9__destroyIPiEEvT_S3_
FNDA:0,_ZNSt12_Destroy_auxILb1EE9__destroyIPSt5tupleIJdS2_IJddEEEEEEvT_S6_
FNDA:0,_ZNSt12_Destroy_auxILb1EE9__destroyIPSt5tupleIJddEEEEvT_S5_
FNDA:0,_ZNSt12_Destroy_auxILb1EE9__destroyIPSt5tupleIJS2_IJddEES3_S2_IJiiEEEEEEvT_S7_
FNDA:0,_ZSt8_DestroyIPSt5tupleIJiiEEEvT_S3_
FNDA:0,_ZSt8_DestroyIPiEvT_S1_
FNDA:0,_ZSt8_DestroyIPSt5tupleIJdS0_IJddEEEEEvT_S4_
FNDA:0,_ZSt8_DestroyIPSt5tupleIJddEEEvT_S3_
FNDA:0,_ZSt8_DestroyIPSt5tupleIJS0_IJddEES1_S0_IJiiEEEEEvT_S5_
FNDA:0,_ZSt8_DestroyIPSt5tupleIJiiEES1_EvT_S3_RSaIT0_E
FNDA:0,_ZSt8_DestroyIPiiEvT_S1_RSaIT0_E
FNDA:0,_ZSt8_DestroyIPSt5tupleIJdS0_IJddEEEES2_EvT_S4_RSaIT0_E
FNDA:0,_ZSt8_DestroyIPSt5tupleIJddEES1_EvT_S3_RSaIT0_E
FNDA:0,_ZSt8_DestroyIPSt5tupleIJS0_IJddEES1_S0_IJiiEEEES3_EvT_S5_RSaIT0_E
FNF:19
FNH:0
DA:74,0
DA:75,0
DA:117,0
DA:127,0
DA:137,0
DA:138,0
DA:203,0
DA:206,0
DA:207,0
LF:9
LH:0
end_of_record
SF:/usr/include/c++/8/bits/stl_iterator.h
FN:783,_ZN9__gnu_cxx17__normal_iteratorIPKSt5tupleIJS1_IJddEES2_S1_IJiiEEEESt6vectorIS4_SaIS4_EEEC2ERKS6_
FN:783,_ZN9__gnu_cxx17__normal_iteratorIPKSt5tupleIJdS1_IJddEEEESt6vectorIS3_SaIS3_EEEC2ERKS5_
FN:783,_ZN9__gnu_cxx17__normal_iteratorIPKSt5tupleIJddEESt6vectorIS2_SaIS2_EEEC2ERKS4_
FN:783,_ZN9__gnu_cxx17__normal_iteratorIPSt5tupleIJdS1_IJddEEEESt6vectorIS3_SaIS3_EEEC2ERKS4_
FN:796,_ZNK9__gnu_cxx17__normal_iteratorIPKSt5tupleIJS1_IJddEES2_S1_IJiiEEEESt6vectorIS4_SaIS4_EEEdeEv
FN:796,_ZNK9__gnu_cxx17__normal_iteratorIPKSt5tupleIJdS1_IJddEEEESt6vectorIS3_SaIS3_EEEdeEv
FN:796,_ZNK9__gnu_cxx17__normal_iteratorIPKSt5tupleIJddEESt6vectorIS2_SaIS2_EEEdeEv
FN:804,_ZN9__gnu_cxx17__normal_iteratorIPKSt5tupleIJS1_IJddEES2_S1_IJiiEEEESt6vectorIS4_SaIS4_EEEppEv
FN:804,_ZN9__gnu_cxx17__normal_iteratorIPKSt5tupleIJdS1_IJddEEEESt6vectorIS3_SaIS3_EEEppEv
FN:804,_ZN9__gnu_cxx17__normal_iteratorIPKSt5tupleIJddEESt6vectorIS2_SaIS2_EEEppEv
FN:848,_ZNK9__gnu_cxx17__normal_iteratorIPSt5tupleIJdS1_IJddEEEESt6vectorIS3_SaIS3_EEE4baseEv
FN:848,_ZNK9__gnu_cxx17__normal_iteratorIPKSt5tupleIJddEESt6vectorIS2_SaIS2_EEE4baseEv
FN:848,_ZNK9__gnu_cxx17__normal_iteratorIPKSt5tupleIJdS1_IJddEEEESt6vectorIS3_SaIS3_EEE4baseEv
FN:848,_ZNK9__gnu_cxx17__normal_iteratorIPKSt5tupleIJS1_IJddEES2_S1_IJiiEEEESt6vectorIS4_SaIS4_EEE4baseEv
FN:884,_ZN9__gnu_cxxneIPKSt5tupleIJS1_IJddEES2_S1_IJiiEEEESt6vectorIS4_SaIS4_EEEEbRKNS_17__normal_iteratorIT_T0_EESF_
FN:884,_ZN9__gnu_cxxneIPKSt5tupleIJdS1_IJddEEEESt6vectorIS3_SaIS3_EEEEbRKNS_17__normal_iteratorIT_T0_EESE_
FN:884,_ZN9__gnu_cxxneIPKSt5tupleIJddEESt6vectorIS2_SaIS2_EEEEbRKNS_17__normal_iteratorIT_T0_EESD_
FN:966,_ZN9__gnu_cxxmiIPSt5tupleIJdS1_IJddEEEESt6vectorIS3_SaIS3_EEEENS_17__normal_iteratorIT_T0_E15difference_typeERKSB_SE_
FN:1033,_ZNSt13move_iteratorIPSt5tupleIJdS0_IJddEEEEEC2ES3_
FN:1042,_ZNKSt13move_iteratorIPSt5tupleIJdS0_IJddEEEEE4baseEv
FN:1046,_ZNKSt13move_iteratorIPSt5tupleIJdS0_IJddEEEEEdeEv
FN:1054,_ZNSt13move_iteratorIPSt5tupleIJdS0_IJddEEEEEppEv
FN:1121,_ZSteqIPSt5tupleIJdS0_IJddEEEEEbRKSt13move_iteratorIT_ES8_
FN:1133,_ZStneIPSt5tupleIJdS0_IJddEEEEEbRKSt13move_iteratorIT_ES8_
FN:1218,_ZSt32__make_move_if_noexcept_iteratorISt5tupleIJdS0_IJddEEEESt13move_iteratorIPS2_EET0_PT_
FNDA:0,_ZN9__gnu_cxx17__normal_iteratorIPSt5tupleIJdS1_IJddEEEESt6vectorIS3_SaIS3_EEEC2ERKS4_
FNDA:0,_ZN9__gnu_cxx17__normal_iteratorIPKSt5tupleIJdS1_IJddEEEESt6vectorIS3_SaIS3_EEEC2ERKS5_
FNDA:0,_ZN9__gnu_cxx17__normal_iteratorIPKSt5tupleIJS1_IJddEES2_S1_IJiiEEEESt6vectorIS4_SaIS4_EEEC2ERKS6_
FNDA:0,_ZN9__gnu_cxx17__normal_iteratorIPKSt5tupleIJddEESt6vectorIS2_SaIS2_EEEC2ERKS4_
FNDA:0,_ZNK9__gnu_cxx17__normal_iteratorIPKSt5tupleIJdS1_IJddEEEESt6vectorIS3_SaIS3_EEEdeEv
FNDA:0,_ZNK9__gnu_cxx17__normal_iteratorIPKSt5tupleIJS1_IJddEES2_S1_IJiiEEEESt6vectorIS4_SaIS4_EEEdeEv
FNDA:0,_ZNK9__gnu_cxx17__normal_iteratorIPKSt5tupleIJddEESt6vectorIS2_SaIS2_EEEdeEv
FNDA:0,_ZN9__gnu_cxx17__normal_iteratorIPKSt5tupleIJdS1_IJddEEEESt6vectorIS3_SaIS3_EEEppEv
FNDA:0,_ZN9__gnu_cxx17__normal_iteratorIPKSt5tupleIJS1_IJddEES2_S1_IJiiEEEESt6vectorIS4_SaIS4_EEEppEv
FNDA:0,_ZN9__gnu_cxx17__normal_iteratorIPKSt5tupleIJddEESt6vectorIS2_SaIS2_EEEppEv
FNDA:0,_ZNK9__gnu_cxx17__normal_iteratorIPKSt5tupleIJdS1_IJddEEEESt6vectorIS3_SaIS3_EEE4baseEv
FNDA:0,_ZNK9__gnu_cxx17__normal_iteratorIPKSt5tupleIJS1_IJddEES2_S1_IJiiEEEESt6vectorIS4_SaIS4_EEE4baseEv
FNDA:0,_ZNK9__gnu_cxx17__normal_iteratorIPKSt5tupleIJddEESt6vectorIS2_SaIS2_EEE4baseEv
FNDA:0,_ZNK9__gnu_cxx17__normal_iteratorIPSt5tupleIJdS1_IJddEEEESt6vectorIS3_SaIS3_EEE4baseEv
FNDA:0,_ZN9__gnu_cxxneIPKSt5tupleIJdS1_IJddEEEESt6vectorIS3_SaIS3_EEEEbRKNS_17__normal_iteratorIT_T0_EESE_
FNDA:0,_ZN9__gnu_cxxneIPKSt5tupleIJS1_IJddEES2_S1_IJiiEEEESt6vectorIS4_SaIS4_EEEEbRKNS_17__normal_iteratorIT_T0_EESF_
FNDA:0,_ZN9__gnu_cxxneIPKSt5tupleIJddEESt6vectorIS2_SaIS2_EEEEbRKNS_17__normal_iteratorIT_T0_EESD_
FNDA:0,_ZN9__gnu_cxxmiIPSt5tupleIJdS1_IJddEEEESt6vectorIS3_SaIS3_EEEENS_17__normal_iteratorIT_T0_E15difference_typeERKSB_SE_
FNDA:0,_ZNSt13move_iteratorIPSt5tupleIJdS0_IJddEEEEEC2ES3_
FNDA:0,_ZNKSt13move_iteratorIPSt5tupleIJdS0_IJddEEEEE4baseEv
FNDA:0,_ZNKSt13move_iteratorIPSt5tupleIJdS0_IJddEEEEEdeEv
FNDA:0,_ZNSt13move_iteratorIPSt5tupleIJdS0_IJddEEEEEppEv
FNDA:0,_ZSteqIPSt5tupleIJdS0_IJddEEEEEbRKSt13move_iteratorIT_ES8_
FNDA:0,_ZStneIPSt5tupleIJdS0_IJddEEEEEbRKSt13move_iteratorIT_ES8_
FNDA:0,_ZSt32__make_move_if_noexcept_iteratorISt5tupleIJdS0_IJddEEEESt13move_iteratorIPS2_EET0_PT_
FNF:25
FNH:0
DA:783,0
DA:784,0
DA:796,0
DA:797,0
DA:804,0
DA:806,0
DA:807,0
DA:848,0
DA:849,0
DA:884,0
DA:887,0
DA:966,0
DA:969,0
DA:1033,0
DA:1034,0
DA:1042,0
DA:1043,0
DA:1046,0
DA:1047,0
DA:1054,0
DA:1056,0
DA:1057,0
DA:1121,0
DA:1123,0
DA:1133,0
DA:1135,0
DA:1218,0
DA:1219,0
LF:28
LH:0
end_of_record
SF:/usr/include/c++/8/bits/stl_iterator_base_funcs.h
FN:98,_ZSt10__distanceIPKiENSt15iterator_traitsIT_E15difference_typeES3_S3_St26random_access_iterator_tag
FN:98,_ZSt10__distanceIPcENSt15iterator_traitsIT_E15difference_typeES2_S2_St26random_access_iterator_tag
FN:98,_ZSt10__distanceIPKcENSt15iterator_traitsIT_E15difference_typeES3_S3_St26random_access_iterator_tag
FN:98,_ZSt10__distanceIPKSt5tupleIJddEEENSt15iterator_traitsIT_E15difference_typeES5_S5_St26random_access_iterator_tag
FNDA:0,_ZSt10__distanceIPcENSt15iterator_traitsIT_E15difference_typeES2_S2_St26random_access_iterator_tag
FNDA:0,_ZSt10__distanceIPKcENSt15iterator_traitsIT_E15difference_typeES3_S3_St26random_access_iterator_tag
FNDA:4,_ZSt10__distanceIPKiENSt15iterator_traitsIT_E15difference_typeES3_S3_St26random_access_iterator_tag
FNDA:0,_ZSt10__distanceIPKSt5tupleIJddEEENSt15iterator_traitsIT_E15difference_typeES5_S5_St26random_access_iterator_tag
FNF:4
FNH:1
DA:98,4
DA:104,4
DA:138,4
DA:141,4
DA:142,8
LF:5
LH:5
end_of_record
SF:/usr/include/c++/8/bits/stl_iterator_base_types.h
FN:205,_ZSt19__iterator_categoryIPKiENSt15iterator_traitsIT_E17iterator_categoryERKS3_
FN:205,_ZSt19__iterator_categoryIPcENSt15iterator_traitsIT_E17iterator_categoryERKS2_
FN:205,_ZSt19__iterator_categoryIPKcENSt15iterator_traitsIT_E17iterator_categoryERKS3_
FN:205,_ZSt19__iterator_categoryIPKSt5tupleIJddEEENSt15iterator_traitsIT_E17iterator_categoryERKS5_
FNDA:0,_ZSt19__iterator_categoryIPcENSt15iterator_traitsIT_E17iterator_categoryERKS2_
FNDA:0,_ZSt19__iterator_categoryIPKcENSt15iterator_traitsIT_E17iterator_categoryERKS3_
FNDA:4,_ZSt19__iterator_categoryIPKiENSt15iterator_traitsIT_E17iterator_categoryERKS3_
FNDA:0,_ZSt19__iterator_categoryIPKSt5tupleIJddEEENSt15iterator_traitsIT_E17iterator_categoryERKS5_
FNF:4
FNH:1
DA:205,4
DA:206,4
LF:2
LH:2
end_of_record
SF:/usr/include/c++/8/bits/stl_uninitialized.h
FN:76,_ZNSt20__uninitialized_copyILb0EE13__uninit_copyIN9__gnu_cxx17__normal_iteratorIPKSt5tupleIJS4_IJddEES5_S4_IJiiEEEESt6vectorIS7_SaIS7_EEEEPS7_EET0_T_SG_SF_
FN:76,_ZNSt20__uninitialized_copyILb0EE13__uninit_copyISt13move_iteratorIPSt5tupleIJdS3_IJddEEEEES6_EET0_T_S9_S8_
FN:76,_ZNSt20__uninitialized_copyILb0EE13__uninit_copyIN9__gnu_cxx17__normal_iteratorIPKSt5tupleIJdS4_IJddEEEESt6vectorIS6_SaIS6_EEEEPS6_EET0_T_SF_SE_
FN:76,_ZNSt20__uninitialized_copyILb0EE13__uninit_copyIN9__gnu_cxx17__normal_iteratorIPKSt5tupleIJddEESt6vectorIS5_SaIS5_EEEEPS5_EET0_T_SE_SD_
FN:76,_ZNSt20__uninitialized_copyILb0EE13__uninit_copyIPKSt5tupleIJddEEPS3_EET0_T_S8_S7_
FN:99,_ZNSt20__uninitialized_copyILb1EE13__uninit_copyIPKiPiEET0_T_S6_S5_
FN:115,_ZSt18uninitialized_copyIPKSt5tupleIJddEEPS1_ET0_T_S6_S5_
FN:115,_ZSt18uninitialized_copyIN9__gnu_cxx17__normal_iteratorIPKSt5tupleIJddEESt6vectorIS3_SaIS3_EEEEPS3_ET0_T_SC_SB_
FN:115,_ZSt18uninitialized_copyIPKiPiET0_T_S4_S3_
FN:115,_ZSt18uninitialized_copyIN9__gnu_cxx17__normal_iteratorIPKSt5tupleIJdS2_IJddEEEESt6vectorIS4_SaIS4_EEEEPS4_ET0_T_SD_SC_
FN:115,_ZSt18uninitialized_copyISt13move_iteratorIPSt5tupleIJdS1_IJddEEEEES4_ET0_T_S7_S6_
FN:115,_ZSt18uninitialized_copyIN9__gnu_cxx17__normal_iteratorIPKSt5tupleIJS2_IJddEES3_S2_IJiiEEEESt6vectorIS5_SaIS5_EEEEPS5_ET0_T_SE_SD_
FN:287,_ZSt22__uninitialized_copy_aIN9__gnu_cxx17__normal_iteratorIPKSt5tupleIJdS2_IJddEEEESt6vectorIS4_SaIS4_EEEEPS4_S4_ET0_T_SD_SC_RSaIT1_E
FN:287,_ZSt22__uninitialized_copy_aIPKiPiiET0_T_S4_S3_RSaIT1_E
FN:287,_ZSt22__uninitialized_copy_aIPKSt5tupleIJddEEPS1_S1_ET0_T_S6_S5_RSaIT1_E
FN:287,_ZSt22__uninitialized_copy_aISt13move_iteratorIPSt5tupleIJdS1_IJddEEEEES4_S3_ET0_T_S7_S6_RSaIT1_E
FN:287,_ZSt22__uninitialized_copy_aIN9__gnu_cxx17__normal_iteratorIPKSt5tupleIJS2_IJddEES3_S2_IJiiEEEESt6vectorIS5_SaIS5_EEEEPS5_S5_ET0_T_SE_SD_RSaIT1_E
FN:287,_ZSt22__uninitialized_copy_aIN9__gnu_cxx17__normal_iteratorIPKSt5tupleIJddEESt6vectorIS3_SaIS3_EEEEPS3_S3_ET0_T_SC_SB_RSaIT1_E
FN:305,_ZSt34__uninitialized_move_if_noexcept_aIPSt5tupleIJdS0_IJddEEEES3_SaIS2_EET0_T_S6_S5_RT1_
FNDA:0,_ZNSt20__uninitialized_copyILb0EE13__uninit_copyISt13move_iteratorIPSt5tupleIJdS3_IJddEEEEES6_EET0_T_S9_S8_
FNDA:0,_ZNSt20__uninitialized_copyILb0EE13__uninit_copyIPKSt5tupleIJddEEPS3_EET0_T_S8_S7_
FNDA:0,_ZNSt20__uninitialized_copyILb0EE13__uninit_copyIN9__gnu_cxx17__normal_iteratorIPKSt5tupleIJdS4_IJddEEEESt6vectorIS6_SaIS6_EEEEPS6_EET0_T_SF_SE_
FNDA:0,_ZNSt20__uninitialized_copyILb0EE13__uninit_copyIN9__gnu_cxx17__normal_iteratorIPKSt5tupleIJS4_IJddEES5_S4_IJiiEEEESt6vectorIS7_SaIS7_EEEEPS7_EET0_T_SG_SF_
FNDA:0,_ZNSt20__uninitialized_copyILb0EE13__uninit_copyIN9__gnu_cxx17__normal_iteratorIPKSt5tupleIJddEESt6vectorIS5_SaIS5_EEEEPS5_EET0_T_SE_SD_
FNDA:4,_ZNSt20__uninitialized_copyILb1EE13__uninit_copyIPKiPiEET0_T_S6_S5_
FNDA:0,_ZSt18uninitialized_copyISt13move_iteratorIPSt5tupleIJdS1_IJddEEEEES4_ET0_T_S7_S6_
FNDA:4,_ZSt18uninitialized_copyIPKiPiET0_T_S4_S3_
FNDA:0,_ZSt18uninitialized_copyIPKSt5tupleIJddEEPS1_ET0_T_S6_S5_
FNDA:0,_ZSt18uninitialized_copyIN9__gnu_cxx17__normal_iteratorIPKSt5tupleIJdS2_IJddEEEESt6vectorIS4_SaIS4_EEEEPS4_ET0_T_SD_SC_
FNDA:0,_ZSt18uninitialized_copyIN9__gnu_cxx17__normal_iteratorIPKSt5tupleIJS2_IJddEES3_S2_IJiiEEEESt6vectorIS5_SaIS5_EEEEPS5_ET0_T_SE_SD_
FNDA:0,_ZSt18uninitialized_copyIN9__gnu_cxx17__normal_iteratorIPKSt5tupleIJddEESt6vectorIS3_SaIS3_EEEEPS3_ET0_T_SC_SB_
FNDA:0,_ZSt22__uninitialized_copy_aISt13move_iteratorIPSt5tupleIJdS1_IJddEEEEES4_S3_ET0_T_S7_S6_RSaIT1_E
FNDA:4,_ZSt22__uninitialized_copy_aIPKiPiiET0_T_S4_S3_RSaIT1_E
FNDA:0,_ZSt22__uninitialized_copy_aIPKSt5tupleIJddEEPS1_S1_ET0_T_S6_S5_RSaIT1_E
FNDA:0,_ZSt22__uninitialized_copy_aIN9__gnu_cxx17__normal_iteratorIPKSt5tupleIJdS2_IJddEEEESt6vectorIS4_SaIS4_EEEEPS4_S4_ET0_T_SD_SC_RSaIT1_E
FNDA:0,_ZSt22__uninitialized_copy_aIN9__gnu_cxx17__normal_iteratorIPKSt5tupleIJS2_IJddEES3_S2_IJiiEEEESt6vectorIS5_SaIS5_EEEEPS5_S5_ET0_T_SE_SD_RSaIT1_E
FNDA:0,_ZSt22__uninitialized_copy_aIN9__gnu_cxx17__normal_iteratorIPKSt5tupleIJddEESt6vectorIS3_SaIS3_EEEEPS3_S3_ET0_T_SC_SB_RSaIT1_E
FNDA:0,_ZSt34__uninitialized_move_if_noexcept_aIPSt5tupleIJdS0_IJddEEEES3_SaIS2_EET0_T_S6_S5_RT1_
FNF:19
FNH:3
DA:76,0
DA:79,0
DA:82,0
DA:83,0
DA:84,0
DA:86,0
DA:88,0
DA:89,0
DA:99,4
DA:101,4
DA:115,4
DA:128,4
DA:134,4
DA:287,4
DA:289,4
DA:305,0
DA:311,0
DA:312,0
LF:18
LH:7
end_of_record
SF:/usr/include/c++/8/bits/stl_vector.h
FN:95,_ZNSt12_Vector_baseISt5tupleIJdS0_IJddEEEESaIS2_EE12_Vector_implC2Ev
FN:99,_ZNSt12_Vector_baseISt5tupleIJddEESaIS1_EE12_Vector_implC2ERKS2_
FN:99,_ZNSt12_Vector_baseISt5tupleIJdS0_IJddEEEESaIS2_EE12_Vector_implC2ERKS3_
FN:99,_ZNSt12_Vector_baseISt5tupleIJS0_IJddEES1_S0_IJiiEEEESaIS3_EE12_Vector_implC2ERKS4_
FN:99,_ZNSt12_Vector_baseIiSaIiEE12_Vector_implC2ERKS0_
FN:237,_ZNSt12_Vector_baseISt5tupleIJiiEESaIS1_EE19_M_get_Tp_allocatorEv
FN:237,_ZNSt12_Vector_baseISt5tupleIJdS0_IJddEEEESaIS2_EE19_M_get_Tp_allocatorEv
FN:237,_ZNSt12_Vector_baseISt5tupleIJddEESaIS1_EE19_M_get_Tp_allocatorEv
FN:237,_ZNSt12_Vector_baseIiSaIiEE19_M_get_Tp_allocatorEv
FN:237,_ZNSt12_Vector_baseISt5tupleIJS0_IJddEES1_S0_IJiiEEEESaIS3_EE19_M_get_Tp_allocatorEv
FN:241,_ZNKSt12_Vector_baseISt5tupleIJddEESaIS1_EE19_M_get_Tp_allocatorEv
FN:241,_ZNKSt12_Vector_baseISt5tupleIJS0_IJddEES1_S0_IJiiEEEESaIS3_EE19_M_get_Tp_allocatorEv
FN:241,_ZNKSt12_Vector_baseISt5tupleIJdS0_IJddEEEESaIS2_EE19_M_get_Tp_allocatorEv
FN:248,_ZNSt12_Vector_baseISt5tupleIJdS0_IJddEEEESaIS2_EEC2Ev
FN:251,_ZNSt12_Vector_baseIiSaIiEEC2ERKS0_
FN:251,_ZNSt12_Vector_baseISt5tupleIJddEESaIS1_EEC2ERKS2_
FN:258,_ZNSt12_Vector_baseISt5tupleIJS0_IJddEES1_S0_IJiiEEEESaIS3_EEC2EmRKS4_
FN:258,_ZNSt12_Vector_baseISt5tupleIJdS0_IJddEEEESaIS2_EEC2EmRKS3_
FN:258,_ZNSt12_Vector_baseISt5tupleIJddEESaIS1_EEC2EmRKS2_
FN:283,_ZNSt12_Vector_baseISt5tupleIJddEESaIS1_EED2Ev
FN:283,_ZNSt12_Vector_baseISt5tupleIJdS0_IJddEEEESaIS2_EED2Ev
FN:283,_ZNSt12_Vector_baseISt5tupleIJiiEESaIS1_EED2Ev
FN:283,_ZNSt12_Vector_baseIiSaIiEED2Ev
FN:283,_ZNSt12_Vector_baseISt5tupleIJS0_IJddEES1_S0_IJiiEEEESaIS3_EED2Ev
FN:293,_ZNSt12_Vector_baseISt5tupleIJS0_IJddEES1_S0_IJiiEEEESaIS3_EE11_M_allocateEm
FN:293,_ZNSt12_Vector_baseISt5tupleIJddEESaIS1_EE11_M_allocateEm
FN:293,_ZNSt12_Vector_baseISt5tupleIJdS0_IJddEEEESaIS2_EE11_M_allocateEm
FN:293,_ZNSt12_Vector_baseIiSaIiEE11_M_allocateEm
FN:300,_ZNSt12_Vector_baseISt5tupleIJS0_IJddEES1_S0_IJiiEEEESaIS3_EE13_M_deallocateEPS3_m
FN:300,_ZNSt12_Vector_baseISt5tupleIJdS0_IJddEEEESaIS2_EE13_M_deallocateEPS2_m
FN:300,_ZNSt12_Vector_baseISt5tupleIJddEESaIS1_EE13_M_deallocateEPS1_m
FN:300,_ZNSt12_Vector_baseISt5tupleIJiiEESaIS1_EE13_M_deallocateEPS1_m
FN:300,_ZNSt12_Vector_baseIiSaIiEE13_M_deallocateEPim
FN:309,_ZNSt12_Vector_baseISt5tupleIJS0_IJddEES1_S0_IJiiEEEESaIS3_EE17_M_create_storageEm
FN:309,_ZNSt12_Vector_baseISt5tupleIJddEESaIS1_EE17_M_create_storageEm
FN:309,_ZNSt12_Vector_baseISt5tupleIJdS0_IJddEEEESaIS2_EE17_M_create_storageEm
FN:391,_ZNSt6vectorISt5tupleIJdS0_IJddEEEESaIS2_EEC2Ev
FN:458,_ZNSt6vectorISt5tupleIJdS0_IJddEEEESaIS2_EEC2ERKS4_
FN:458,_ZNSt6vectorISt5tupleIJS0_IJddEES1_S0_IJiiEEEESaIS3_EEC2ERKS5_
FN:458,_ZNSt6vectorISt5tupleIJddEESaIS1_EEC2ERKS3_
FN:515,_ZNSt6vectorIiSaIiEEC2ESt16initializer_listIiERKS0_
FN:515,_ZNSt6vectorISt5tupleIJddEESaIS1_EEC2ESt16initializer_listIS1_ERKS2_
FN:565,_ZNSt6vectorISt5tupleIJS0_IJddEES1_S0_IJiiEEEESaIS3_EED2Ev
FN:565,_ZNSt6vectorISt5tupleIJdS0_IJddEEEESaIS2_EED2Ev
FN:565,_ZNSt6vectorIiSaIiEED2Ev
FN:565,_ZNSt6vectorISt5tupleIJddEESaIS1_EED2Ev
FN:565,_ZNSt6vectorISt5tupleIJiiEESaIS1_EED2Ev
FN:698,_ZNSt6vectorISt5tupleIJdS0_IJddEEEESaIS2_EE5beginEv
FN:707,_ZNKSt6vectorISt5tupleIJS0_IJddEES1_S0_IJiiEEEESaIS3_EE5beginEv
FN:707,_ZNKSt6vectorISt5tupleIJddEESaIS1_EE5beginEv
FN:707,_ZNKSt6vectorISt5tupleIJdS0_IJddEEEESaIS2_EE5beginEv
FN:716,_ZNSt6vectorISt5tupleIJdS0_IJddEEEESaIS2_EE3endEv
FN:725,_ZNKSt6vectorISt5tupleIJdS0_IJddEEEESaIS2_EE3endEv
FN:725,_ZNKSt6vectorISt5tupleIJddEESaIS1_EE3endEv
FN:725,_ZNKSt6vectorISt5tupleIJS0_IJddEES1_S0_IJiiEEEESaIS3_EE3endEv
FN:805,_ZNKSt6vectorISt5tupleIJddEESaIS1_EE4sizeEv
FN:805,_ZNKSt6vectorISt5tupleIJS0_IJddEES1_S0_IJiiEEEESaIS3_EE4sizeEv
FN:805,_ZNKSt6vectorISt5tupleIJdS0_IJddEEEESaIS2_EE4sizeEv
FN:810,_ZNKSt6vectorISt5tupleIJdS0_IJddEEEESaIS2_EE8max_sizeEv
FN:930,_ZNSt6vectorIiSaIiEEixEm
FN:930,_ZNSt6vectorISt5tupleIJddEESaIS1_EEixEm
FN:1090,_ZNSt6vectorISt5tupleIJdS0_IJddEEEESaIS2_EE9push_backEOS2_
FN:1462,_ZNSt6vectorISt5tupleIJddEESaIS1_EE19_M_range_initializeIPKS1_EEvT_S7_St20forward_iterator_tag
FN:1462,_ZNSt6vectorIiSaIiEE19_M_range_initializeIPKiEEvT_S5_St20forward_iterator_tag
FN:1640,_ZNKSt6vectorISt5tupleIJdS0_IJddEEEESaIS2_EE12_M_check_lenEmPKc
FNDA:0,_ZNSt12_Vector_baseISt5tupleIJdS0_IJddEEEESaIS2_EE12_Vector_implC2Ev
FNDA:0,_ZNSt12_Vector_baseISt5tupleIJdS0_IJddEEEESaIS2_EE12_Vector_implC2ERKS3_
FNDA:0,_ZNSt12_Vector_baseISt5tupleIJS0_IJddEES1_S0_IJiiEEEESaIS3_EE12_Vector_implC2ERKS4_
FNDA:0,_ZNSt12_Vector_baseIiSaIiEE12_Vector_implC2ERKS0_
FNDA:0,_ZNSt12_Vector_baseISt5tupleIJddEESaIS1_EE12_Vector_implC2ERKS2_
FNDA:0,_ZNSt12_Vector_baseISt5tupleIJiiEESaIS1_EE19_M_get_Tp_allocatorEv
FNDA:0,_ZNSt12_Vector_baseIiSaIiEE19_M_get_Tp_allocatorEv
FNDA:0,_ZNSt12_Vector_baseISt5tupleIJdS0_IJddEEEESaIS2_EE19_M_get_Tp_allocatorEv
FNDA:0,_ZNSt12_Vector_baseISt5tupleIJddEESaIS1_EE19_M_get_Tp_allocatorEv
FNDA:0,_ZNSt12_Vector_baseISt5tupleIJS0_IJddEES1_S0_IJiiEEEESaIS3_EE19_M_get_Tp_allocatorEv
FNDA:0,_ZNKSt12_Vector_baseISt5tupleIJdS0_IJddEEEESaIS2_EE19_M_get_Tp_allocatorEv
FNDA:0,_ZNKSt12_Vector_baseISt5tupleIJS0_IJddEES1_S0_IJiiEEEESaIS3_EE19_M_get_Tp_allocatorEv
FNDA:0,_ZNKSt12_Vector_baseISt5tupleIJddEESaIS1_EE19_M_get_Tp_allocatorEv
FNDA:0,_ZNSt12_Vector_baseISt5tupleIJdS0_IJddEEEESaIS2_EEC2Ev
FNDA:4,_ZNSt12_Vector_baseIiSaIiEEC2ERKS0_
FNDA:0,_ZNSt12_Vector_baseISt5tupleIJddEESaIS1_EEC2ERKS2_
FNDA:0,_ZNSt12_Vector_baseISt5tupleIJdS0_IJddEEEESaIS2_EEC2EmRKS3_
FNDA:0,_ZNSt12_Vector_baseISt5tupleIJS0_IJddEES1_S0_IJiiEEEESaIS3_EEC2EmRKS4_
FNDA:0,_ZNSt12_Vector_baseISt5tupleIJddEESaIS1_EEC2EmRKS2_
FNDA:0,_ZNSt12_Vector_baseISt5tupleIJiiEESaIS1_EED2Ev
FNDA:0,_ZNSt12_Vector_baseIiSaIiEED2Ev
FNDA:0,_ZNSt12_Vector_baseISt5tupleIJdS0_IJddEEEESaIS2_EED2Ev
FNDA:0,_ZNSt12_Vector_baseISt5tupleIJddEESaIS1_EED2Ev
FNDA:0,_ZNSt12_Vector_baseISt5tupleIJS0_IJddEES1_S0_IJiiEEEESaIS3_EED2Ev
FNDA:0,_ZNSt12_Vector_baseISt5tupleIJS0_IJddEES1_S0_IJiiEEEESaIS3_EE11_M_allocateEm
FNDA:0,_ZNSt12_Vector_baseISt5tupleIJdS0_IJddEEEESaIS2_EE11_M_allocateEm
FNDA:0,_ZNSt12_Vector_baseIiSaIiEE11_M_allocateEm
FNDA:0,_ZNSt12_Vector_baseISt5tupleIJddEESaIS1_EE11_M_allocateEm
FNDA:0,_ZNSt12_Vector_baseISt5tupleIJiiEESaIS1_EE13_M_deallocateEPS1_m
FNDA:0,_ZNSt12_Vector_baseIiSaIiEE13_M_deallocateEPim
FNDA:0,_ZNSt12_Vector_baseISt5tupleIJdS0_IJddEEEESaIS2_EE13_M_deallocateEPS2_m
FNDA:0,_ZNSt12_Vector_baseISt5tupleIJddEESaIS1_EE13_M_deallocateEPS1_m
FNDA:0,_ZNSt12_Vector_baseISt5tupleIJS0_IJddEES1_S0_IJiiEEEESaIS3_EE13_M_deallocateEPS3_m
FNDA:0,_ZNSt12_Vector_baseISt5tupleIJdS0_IJddEEEESaIS2_EE17_M_create_storageEm
FNDA:0,_ZNSt12_Vector_baseISt5tupleIJS0_IJddEES1_S0_IJiiEEEESaIS3_EE17_M_create_storageEm
FNDA:0,_ZNSt12_Vector_baseISt5tupleIJddEESaIS1_EE17_M_create_storageEm
FNDA:0,_ZNSt6vectorISt5tupleIJdS0_IJddEEEESaIS2_EEC2Ev
FNDA:0,_ZNSt6vectorISt5tupleIJdS0_IJddEEEESaIS2_EEC2ERKS4_
FNDA:0,_ZNSt6vectorISt5tupleIJS0_IJddEES1_S0_IJiiEEEESaIS3_EEC2ERKS5_
FNDA:0,_ZNSt6vectorISt5tupleIJddEESaIS1_EEC2ERKS3_
FNDA:4,_ZNSt6vectorIiSaIiEEC2ESt16initializer_listIiERKS0_
FNDA:0,_ZNSt6vectorISt5tupleIJddEESaIS1_EEC2ESt16initializer_listIS1_ERKS2_
FNDA:0,_ZNSt6vectorISt5tupleIJiiEESaIS1_EED2Ev
FNDA:0,_ZNSt6vectorIiSaIiEED2Ev
FNDA:0,_ZNSt6vectorISt5tupleIJdS0_IJddEEEESaIS2_EED2Ev
FNDA:0,_ZNSt6vectorISt5tupleIJddEESaIS1_EED2Ev
FNDA:0,_ZNSt6vectorISt5tupleIJS0_IJddEES1_S0_IJiiEEEESaIS3_EED2Ev
FNDA:0,_ZNSt6vectorISt5tupleIJdS0_IJddEEEESaIS2_EE5beginEv
FNDA:0,_ZNKSt6vectorISt5tupleIJdS0_IJddEEEESaIS2_EE5beginEv
FNDA:0,_ZNKSt6vectorISt5tupleIJS0_IJddEES1_S0_IJiiEEEESaIS3_EE5beginEv
FNDA:0,_ZNKSt6vectorISt5tupleIJddEESaIS1_EE5beginEv
FNDA:0,_ZNSt6vectorISt5tupleIJdS0_IJddEEEESaIS2_EE3endEv
FNDA:0,_ZNKSt6vectorISt5tupleIJdS0_IJddEEEESaIS2_EE3endEv
FNDA:0,_ZNKSt6vectorISt5tupleIJS0_IJddEES1_S0_IJiiEEEESaIS3_EE3endEv
FNDA:0,_ZNKSt6vectorISt5tupleIJddEESaIS1_EE3endEv
FNDA:0,_ZNKSt6vectorISt5tupleIJdS0_IJddEEEESaIS2_EE4sizeEv
FNDA:0,_ZNKSt6vectorISt5tupleIJS0_IJddEES1_S0_IJiiEEEESaIS3_EE4sizeEv
FNDA:0,_ZNKSt6vectorISt5tupleIJddEESaIS1_EE4sizeEv
FNDA:0,_ZNKSt6vectorISt5tupleIJdS0_IJddEEEESaIS2_EE8max_sizeEv
FNDA:0,_ZNSt6vectorISt5tupleIJddEESaIS1_EEixEm
FNDA:0,_ZNSt6vectorIiSaIiEEixEm
FNDA:0,_ZNSt6vectorISt5tupleIJdS0_IJddEEEESaIS2_EE9push_backEOS2_
FNDA:4,_ZNSt6vectorIiSaIiEE19_M_range_initializeIPKiEEvT_S5_St20forward_iterator_tag
FNDA:0,_ZNSt6vectorISt5tupleIJddEESaIS1_EE19_M_range_initializeIPKS1_EEvT_S7_St20forward_iterator_tag
FNDA:0,_ZNKSt6vectorISt5tupleIJdS0_IJddEEEESaIS2_EE12_M_check_lenEmPKc
FNF:65
FNH:3
DA:95,0
DA:96,0
DA:97,0
DA:99,0
DA:100,0
DA:101,0
DA:237,0
DA:238,0
DA:241,0
DA:242,0
DA:248,0
DA:249,0
DA:251,4
DA:252,4
DA:258,0
DA:259,0
DA:260,0
DA:283,0
DA:285,0
DA:286,0
DA:287,0
DA:293,0
DA:296,0
DA:300,0
DA:303,0
DA:304,0
DA:305,0
DA:309,0
DA:311,0
DA:312,0
DA:313,0
DA:314,0
DA:391,0
DA:395,0
DA:458,0
DA:460,0
DA:462,0
DA:463,0
DA:465,0
DA:466,0
DA:515,4
DA:517,4
DA:519,4
DA:521,4
DA:565,0
DA:567,0
DA:568,0
DA:570,0
DA:698,0
DA:699,0
DA:707,0
DA:708,0
DA:716,0
DA:717,0
DA:725,0
DA:726,0
DA:805,0
DA:806,0
DA:810,0
DA:811,0
DA:930,0
DA:933,0
DA:1090,0
DA:1091,0
DA:1462,4
DA:1465,4
DA:1466,4
DA:1467,4
DA:1468,4
DA:1469,4
DA:1471,4
DA:1472,4
DA:1640,0
DA:1642,0
DA:1643,0
DA:1645,0
DA:1646,0
LF:77
LH:14
end_of_record
SF:/usr/include/c++/8/tuple
FN:132,_ZNSt10_Head_baseILm1EdLb0EEC2IdEEOT_
FN:132,_ZNSt10_Head_baseILm0EdLb0EEC2IdEEOT_
FN:132,_ZNSt10_Head_baseILm1ESt5tupleIJddEELb0EEC2IS1_EEOT_
FN:160,_ZNSt10_Head_baseILm0EdLb0EE7_M_headERS0_
FN:160,_ZNSt10_Head_baseILm1EdLb0EE7_M_headERS0_
FN:160,_ZNSt10_Head_baseILm1ESt5tupleIJddEELb0EE7_M_headERS2_
FN:195,_ZNSt11_Tuple_implILm0EJdSt5tupleIJddEEEE7_M_headERS2_
FN:195,_ZNSt11_Tuple_implILm0EJddEE7_M_headERS0_
FN:201,_ZNSt11_Tuple_implILm0EJddEE7_M_tailERS0_
FN:201,_ZNSt11_Tuple_implILm0EJdSt5tupleIJddEEEE7_M_tailERS2_
FN:223,_ZNSt11_Tuple_implILm0EJdSt5tupleIJddEEEEC2EOS2_
FN:223,_ZNSt11_Tuple_implILm0EJddEEC2EOS0_
FN:351,_ZNSt11_Tuple_implILm1EJSt5tupleIJddEEEE7_M_headERS2_
FN:351,_ZNSt11_Tuple_implILm1EJdEE7_M_headERS0_
FN:371,_ZNSt11_Tuple_implILm1EJdEEC2EOS0_
FN:371,_ZNSt11_Tuple_implILm1EJSt5tupleIJddEEEEC2EOS2_
FN:987,_ZNSt5tupleIJdS_IJddEEEEC2EOS1_
FN:987,_ZNSt5tupleIJddEEC2EOS0_
FNDA:0,_ZNSt10_Head_baseILm1ESt5tupleIJddEELb0EEC2IS1_EEOT_
FNDA:0,_ZNSt10_Head_baseILm0EdLb0EEC2IdEEOT_
FNDA:0,_ZNSt10_Head_baseILm1EdLb0EEC2IdEEOT_
FNDA:0,_ZNSt10_Head_baseILm1ESt5tupleIJddEELb0EE7_M_headERS2_
FNDA:0,_ZNSt10_Head_baseILm0EdLb0EE7_M_headERS0_
FNDA:0,_ZNSt10_Head_baseILm1EdLb0EE7_M_headERS0_
FNDA:0,_ZNSt11_Tuple_implILm0EJdSt5tupleIJddEEEE7_M_headERS2_
FNDA:0,_ZNSt11_Tuple_implILm0EJddEE7_M_headERS0_
FNDA:0,_ZNSt11_Tuple_implILm0EJdSt5tupleIJddEEEE7_M_tailERS2_
FNDA:0,_ZNSt11_Tuple_implILm0EJddEE7_M_tailERS0_
FNDA:0,_ZNSt11_Tuple_implILm0EJdSt5tupleIJddEEEEC2EOS2_
FNDA:0,_ZNSt11_Tuple_implILm0EJddEEC2EOS0_
FNDA:0,_ZNSt11_Tuple_implILm1EJSt5tupleIJddEEEE7_M_headERS2_
FNDA:0,_ZNSt11_Tuple_implILm1EJdEE7_M_headERS0_
FNDA:0,_ZNSt11_Tuple_implILm1EJSt5tupleIJddEEEEC2EOS2_
FNDA:0,_ZNSt11_Tuple_implILm1EJdEEC2EOS0_
FNDA:0,_ZNSt5tupleIJdS_IJddEEEEC2EOS1_
FNDA:0,_ZNSt5tupleIJddEEC2EOS0_
FNF:18
FNH:0
DA:132,0
DA:133,0
DA:160,0
DA:195,0
DA:201,0
DA:223,0
DA:226,0
DA:227,0
DA:351,0
DA:371,0
DA:373,0
DA:987,0
LF:12
LH:0
end_of_record
SF:/usr/include/c++/8/ext/type_traits.h
FN:152,_ZN9__gnu_cxx17__is_null_pointerIcEEbPT_
FN:152,_ZN9__gnu_cxx17__is_null_pointerIKcEEbPT_
FNDA:0,_ZN9__gnu_cxx17__is_null_pointerIcEEbPT_
FNDA:0,_ZN9__gnu_cxx17__is_null_pointerIKcEEbPT_
FNF:2
FNH:0
DA:152,0
DA:153,0
LF:2
LH:0
end_of_record
SF:/usr/include/c++/8/bits/vector.tcc
FN:97,_ZNSt6vectorISt5tupleIJdS0_IJddEEEESaIS2_EE12emplace_backIJS2_EEEvDpOT_
FN:413,_ZNSt6vectorISt5tupleIJdS0_IJddEEEESaIS2_EE17_M_realloc_insertIJS2_EEEvN9__gnu_cxx17__normal_iteratorIPS2_S4_EEDpOT_
FNDA:0,_ZNSt6vectorISt5tupleIJdS0_IJddEEEESaIS2_EE12emplace_backIJS2_EEEvDpOT_
FNDA:0,_ZNSt6vectorISt5tupleIJdS0_IJddEEEESaIS2_EE17_M_realloc_insertIJS2_EEEvN9__gnu_cxx17__normal_iteratorIPS2_S4_EEDpOT_
FNF:2
FNH:0
DA:97,0
DA:100,0
DA:103,0
DA:105,0
DA:109,0
DA:113,0
DA:413,0
DA:422,0
DA:424,0
DA:425,0
DA:426,0
DA:427,0
DA:428,0
DA:436,0
DA:437,0
DA:443,0
DA:447,0
DA:448,0
DA:450,0
DA:454,0
DA:455,0
DA:457,0
DA:459,0
DA:460,0
DA:461,0
DA:463,0
DA:464,0
DA:465,0
DA:468,0
DA:469,0
DA:470,0
DA:471,0
DA:472,0
DA:473,0
DA:474,0
LF:35
LH:0
end_of_record
TN:
SF:/usr/include/c++/8/bits/alloc_traits.h
FN:435,_ZNSt16allocator_traitsISaISt5tupleIJdS0_IJddEEEEEE8allocateERS3_m
FN:461,_ZNSt16allocator_traitsISaISt5tupleIJdS0_IJddEEEEEE10deallocateERS3_PS2_m
FN:504,_ZNSt16allocator_traitsISaIcEE37select_on_container_copy_constructionERKS0_
FN:504,_ZNSt16allocator_traitsISaISt5tupleIJdS0_IJddEEEEEE37select_on_container_copy_constructionERKS3_
FNDA:0,_ZNSt16allocator_traitsISaISt5tupleIJdS0_IJddEEEEEE8allocateERS3_m
FNDA:0,_ZNSt16allocator_traitsISaISt5tupleIJdS0_IJddEEEEEE10deallocateERS3_PS2_m
FNDA:0,_ZNSt16allocator_traitsISaISt5tupleIJdS0_IJddEEEEEE37select_on_container_copy_constructionERKS3_
FNDA:0,_ZNSt16allocator_traitsISaIcEE37select_on_container_copy_constructionERKS0_
FNF:4
FNH:0
DA:435,0
DA:436,0
DA:461,0
DA:462,0
DA:504,0
DA:505,0
LF:6
LH:0
end_of_record
SF:/usr/include/c++/8/ext/alloc_traits.h
FN:94,_ZN9__gnu_cxx14__alloc_traitsISaISt5tupleIJdS1_IJddEEEEES3_E17_S_select_on_copyERKS4_
FN:94,_ZN9__gnu_cxx14__alloc_traitsISaIcEcE17_S_select_on_copyERKS1_
FNDA:0,_ZN9__gnu_cxx14__alloc_traitsISaISt5tupleIJdS1_IJddEEEEES3_E17_S_select_on_copyERKS4_
FNDA:0,_ZN9__gnu_cxx14__alloc_traitsISaIcEcE17_S_select_on_copyERKS1_
FNF:2
FNH:0
DA:94,0
DA:95,0
LF:2
LH:0
end_of_record
SF:/usr/include/c++/8/bits/allocator.h
FN:131,_ZNSaISt5tupleIJdS_IJddEEEEEC2Ev
FN:133,_ZNSaISt5tupleIJdS_IJddEEEEEC2ERKS2_
FN:139,_ZNSaISt5tupleIJdS_IJddEEEEED2Ev
FNDA:0,_ZNSaISt5tupleIJdS_IJddEEEEEC2Ev
FNDA:0,_ZNSaISt5tupleIJdS_IJddEEEEEC2ERKS2_
FNDA:0,_ZNSaISt5tupleIJdS_IJddEEEEED2Ev
FNF:3
FNH:0
DA:131,0
DA:133,0
DA:134,0
DA:139,0
LF:4
LH:0
end_of_record
SF:/usr/include/c++/8/bits/basic_string.h
FN:232,_ZNSt7__cxx1112basic_stringIcSt11char_traitsIcESaIcEE16_M_construct_auxIPKcEEvT_S8_St12__false_type
FN:232,_ZNSt7__cxx1112basic_stringIcSt11char_traitsIcESaIcEE16_M_construct_auxIPcEEvT_S7_St12__false_type
FN:252,_ZNSt7__cxx1112basic_stringIcSt11char_traitsIcESaIcEE12_M_constructIPKcEEvT_S8_
FN:252,_ZNSt7__cxx1112basic_stringIcSt11char_traitsIcESaIcEE12_M_constructIPcEEvT_S7_
FNDA:0,_ZNSt7__cxx1112basic_stringIcSt11char_traitsIcESaIcEE16_M_construct_auxIPcEEvT_S7_St12__false_type
FNDA:0,_ZNSt7__cxx1112basic_stringIcSt11char_traitsIcESaIcEE16_M_construct_auxIPKcEEvT_S8_St12__false_type
FNDA:0,_ZNSt7__cxx1112basic_stringIcSt11char_traitsIcESaIcEE12_M_constructIPcEEvT_S7_
FNDA:0,_ZNSt7__cxx1112basic_stringIcSt11char_traitsIcESaIcEE12_M_constructIPKcEEvT_S8_
FNF:4
FNH:0
DA:232,0
DA:236,0
DA:237,0
DA:252,0
DA:255,0
DA:256,0
LF:6
LH:0
end_of_record
SF:/usr/include/c++/8/bits/basic_string.tcc
FN:206,_ZNSt7__cxx1112basic_stringIcSt11char_traitsIcESaIcEE12_M_constructIPcEEvT_S7_St20forward_iterator_tag
FN:206,_ZNSt7__cxx1112basic_stringIcSt11char_traitsIcESaIcEE12_M_constructIPKcEEvT_S8_St20forward_iterator_tag
FNDA:0,_ZNSt7__cxx1112basic_stringIcSt11char_traitsIcESaIcEE12_M_constructIPcEEvT_S7_St20forward_iterator_tag
FNDA:0,_ZNSt7__cxx1112basic_stringIcSt11char_traitsIcESaIcEE12_M_constructIPKcEEvT_S8_St20forward_iterator_tag
FNF:2
FNH:0
DA:206,0
DA:211,0
DA:212,0
DA:215,0
DA:217,0
DA:219,0
DA:220,0
DA:225,0
DA:226,0
DA:228,0
DA:229,0
DA:232,0
DA:233,0
LF:13
LH:0
end_of_record
SF:/usr/include/c++/8/bits/char_traits.h
FN:316,_ZNSt11char_traitsIcE6lengthEPKc
FNDA:0,_ZNSt11char_traitsIcE6lengthEPKc
FNF:1
FNH:0
DA:316,0
DA:322,0
LF:2
LH:0
end_of_record
SF:/home/leito-chan/Downloads/TPI/transporteUrbano/tests/distanciaTotalTEST.cpp
FN:7,_ZN37distanciaTotalTEST_viajeOrdenado_Test8TestBodyEv
FN:7,_ZN37distanciaTotalTEST_viajeOrdenado_TestC2Ev
FN:19,_ZN40distanciaTotalTEST_viajeDesordenado_Test8TestBodyEv
FN:19,_ZN40distanciaTotalTEST_viajeDesordenado_TestC2Ev
FN:30,_ZN35distanciaTotalTEST_viajeParado_TestC2Ev
FN:30,_ZN35distanciaTotalTEST_viajeParado_Test8TestBodyEv
FN:40,_ZN38distanciaTotalTEST_viajeVaYVuelve_Test8TestBodyEv
FN:40,_ZN38distanciaTotalTEST_viajeVaYVuelve_TestC2Ev
FNDA:2,_ZN37distanciaTotalTEST_viajeOrdenado_Test8TestBodyEv
FNDA:2,_ZN37distanciaTotalTEST_viajeOrdenado_TestC2Ev
FNDA:2,_ZN40distanciaTotalTEST_viajeDesordenado_Test8TestBodyEv
FNDA:2,_ZN40distanciaTotalTEST_viajeDesordenado_TestC2Ev
FNDA:2,_ZN35distanciaTotalTEST_viajeParado_Test8TestBodyEv
FNDA:2,_ZN35distanciaTotalTEST_viajeParado_TestC2Ev
FNDA:2,_ZN38distanciaTotalTEST_viajeVaYVuelve_Test8TestBodyEv
FNDA:2,_ZN38distanciaTotalTEST_viajeVaYVuelve_TestC2Ev
FNF:8
FNH:8
DA:7,4
DA:8,2
DA:9,2
DA:10,2
DA:14,4
DA:16,4
DA:17,2
DA:19,4
DA:20,2
DA:21,2
DA:22,2
DA:26,4
DA:28,4
DA:29,2
DA:30,4
DA:31,2
DA:36,4
DA:37,4
DA:38,2
DA:40,4
DA:41,2
DA:42,2
DA:43,2
DA:47,4
DA:48,4
DA:49,2
LF:26
LH:26
end_of_record
SF:/home/leito-chan/Downloads/TPI/transporteUrbano/lib/googletest-master/googletest/include/gtest/internal/gtest-internal.h
FN:310,_ZN7testing8internal13FloatingPointIdEC2ERKd
FN:337,_ZNK7testing8internal13FloatingPointIdE13exponent_bitsEv
FN:340,_ZNK7testing8internal13FloatingPointIdE13fraction_bitsEv
FN:346,_ZNK7testing8internal13FloatingPointIdE6is_nanEv
FN:358,_ZNK7testing8internal13FloatingPointIdE12AlmostEqualsERKS2_
FN:389,_ZN7testing8internal13FloatingPointIdE24SignAndMagnitudeToBiasedERKy
FN:401,_ZN7testing8internal13FloatingPointIdE38DistanceBetweenSignAndMagnitudeNumbersERKyS4_
FN:466,_ZN7testing8internal15TestFactoryBaseD2Ev
FN:466,_ZN7testing8internal15TestFactoryBaseD0Ev
FN:473,_ZN7testing8internal15TestFactoryBaseC2Ev
FN:484,_ZN7testing8internal15TestFactoryImplI38distanciaTotalTEST_viajeVaYVuelve_TestE10CreateTestEv
FN:484,_ZN7testing8internal15TestFactoryImplI35distanciaTotalTEST_viajeParado_TestE10CreateTestEv
FN:484,_ZN7testing8internal15TestFactoryImplI37distanciaTotalTEST_viajeOrdenado_TestE10CreateTestEv
FN:484,_ZN7testing8internal15TestFactoryImplI40distanciaTotalTEST_viajeDesordenado_TestE10CreateTestEv
FN:505,_ZN7testing8internal12CodeLocationC2ERKNSt7__cxx1112basic_stringIcSt11char_traitsIcESaIcEEEi
FNDA:0,_ZN7testing8internal13FloatingPointIdEC2ERKd
FNDA:0,_ZNK7testing8internal13FloatingPointIdE13exponent_bitsEv
FNDA:0,_ZNK7testing8internal13FloatingPointIdE13fraction_bitsEv
FNDA:0,_ZNK7testing8internal13FloatingPointIdE6is_nanEv
FNDA:0,_ZNK7testing8internal13FloatingPointIdE12AlmostEqualsERKS2_
FNDA:0,_ZN7testing8internal13FloatingPointIdE24SignAndMagnitudeToBiasedERKy
FNDA:0,_ZN7testing8internal13FloatingPointIdE38DistanceBetweenSignAndMagnitudeNumbersERKyS4_
FNDA:0,_ZN7testing8internal15TestFactoryBaseD0Ev
FNDA:0,_ZN7testing8internal15TestFactoryBaseD2Ev
FNDA:0,_ZN7testing8internal15TestFactoryBaseC2Ev
FNDA:2,_ZN7testing8internal15TestFactoryImplI37distanciaTotalTEST_viajeOrdenado_TestE10CreateTestEv
FNDA:2,_ZN7testing8internal15TestFactoryImplI40distanciaTotalTEST_viajeDesordenado_TestE10CreateTestEv
FNDA:2,_ZN7testing8internal15TestFactoryImplI35distanciaTotalTEST_viajeParado_TestE10CreateTestEv
FNDA:2,_ZN7testing8internal15TestFactoryImplI38distanciaTotalTEST_viajeVaYVuelve_TestE10CreateTestEv
FNDA:0,_ZN7testing8internal12CodeLocationC2ERKNSt7__cxx1112basic_stringIcSt11char_traitsIcESaIcEEEi
FNF:15
FNH:4
DA:310,0
DA:337,0
DA:340,0
DA:346,0
DA:349,0
DA:358,0
DA:361,0
DA:363,0
DA:364,0
DA:389,0
DA:390,0
DA:392,0
DA:395,0
DA:401,0
DA:403,0
DA:404,0
DA:405,0
DA:466,0
DA:473,0
DA:484,8
DA:505,0
DA:506,0
LF:22
LH:1
end_of_record
SF:/home/leito-chan/Downloads/TPI/transporteUrbano/lib/googletest-master/googletest/include/gtest/internal/gtest-port.h
FN:1157,_ZN7testing8internal10scoped_ptrINSt7__cxx1112basic_stringIcSt11char_traitsIcESaIcEEEED2Ev
FN:1157,_ZN7testing8internal10scoped_ptrINSt7__cxx1118basic_stringstreamIcSt11char_traitsIcESaIcEEEED2Ev
FN:1160,_ZNK7testing8internal10scoped_ptrINSt7__cxx1112basic_stringIcSt11char_traitsIcESaIcEEEEptEv
FN:1161,_ZNK7testing8internal10scoped_ptrINSt7__cxx1112basic_stringIcSt11char_traitsIcESaIcEEEE3getEv
FN:1169,_ZN7testing8internal10scoped_ptrINSt7__cxx1118basic_stringstreamIcSt11char_traitsIcESaIcEEEE5resetEPS7_
FN:1169,_ZN7testing8internal10scoped_ptrINSt7__cxx1112basic_stringIcSt11char_traitsIcESaIcEEEE5resetEPS7_
FNDA:0,_ZN7testing8internal10scoped_ptrINSt7__cxx1112basic_stringIcSt11char_traitsIcESaIcEEEED2Ev
FNDA:0,_ZN7testing8internal10scoped_ptrINSt7__cxx1118basic_stringstreamIcSt11char_traitsIcESaIcEEEED2Ev
FNDA:0,_ZNK7testing8internal10scoped_ptrINSt7__cxx1112basic_stringIcSt11char_traitsIcESaIcEEEEptEv
FNDA:0,_ZNK7testing8internal10scoped_ptrINSt7__cxx1112basic_stringIcSt11char_traitsIcESaIcEEEE3getEv
FNDA:0,_ZN7testing8internal10scoped_ptrINSt7__cxx1118basic_stringstreamIcSt11char_traitsIcESaIcEEEE5resetEPS7_
FNDA:0,_ZN7testing8internal10scoped_ptrINSt7__cxx1112basic_stringIcSt11char_traitsIcESaIcEEEE5resetEPS7_
FNF:6
FNH:0
DA:1157,0
DA:1160,0
DA:1161,0
DA:1169,0
DA:1170,0
DA:1171,0
DA:1172,0
DA:1174,0
DA:1176,0
LF:9
LH:0
end_of_record
SF:/home/leito-chan/Downloads/TPI/transporteUrbano/lib/googletest-master/googletest/include/gtest/gtest.h
FN:288,_ZNK7testing15AssertionResultcvbEv
FN:297,_ZNK7testing15AssertionResult7messageEv
FN:302,_ZNK7testing15AssertionResult15failure_messageEv
FN:389,_ZN7testing4Test13SetUpTestCaseEv
FN:397,_ZN7testing4Test16TearDownTestCaseEv
FN:474,_ZN7testing4Test5SetupEv
FN:1631,_ZN7testing8internal24CmpHelperFloatingPointEQIdEENS_15AssertionResultEPKcS4_T_S5_
FNDA:0,_ZNK7testing15AssertionResultcvbEv
FNDA:0,_ZNK7testing15AssertionResult7messageEv
FNDA:0,_ZNK7testing15AssertionResult15failure_messageEv
FNDA:0,_ZN7testing4Test13SetUpTestCaseEv
FNDA:0,_ZN7testing4Test16TearDownTestCaseEv
FNDA:0,_ZN7testing4Test5SetupEv
FNDA:0,_ZN7testing8internal24CmpHelperFloatingPointEQIdEENS_15AssertionResultEPKcS4_T_S5_
FNF:7
FNH:0
DA:288,0
DA:297,0
DA:298,0
DA:302,0
DA:389,0
DA:397,0
DA:474,0
DA:1631,0
DA:1635,0
DA:1637,0
DA:1638,0
DA:1641,0
DA:1642,0
DA:1643,0
DA:1645,0
DA:1646,0
DA:1647,0
DA:1653,0
LF:18
LH:0
end_of_record
SF:/usr/include/c++/8/initializer_list
FN:71,_ZNKSt16initializer_listISt5tupleIJdS0_IJddEEEEE4sizeEv
FN:75,_ZNKSt16initializer_listISt5tupleIJdS0_IJddEEEEE5beginEv
FN:79,_ZNKSt16initializer_listISt5tupleIJdS0_IJddEEEEE3endEv
FNDA:0,_ZNKSt16initializer_listISt5tupleIJdS0_IJddEEEEE4sizeEv
FNDA:0,_ZNKSt16initializer_listISt5tupleIJdS0_IJddEEEEE5beginEv
FNDA:0,_ZNKSt16initializer_listISt5tupleIJdS0_IJddEEEEE3endEv
FNF:3
FNH:0
DA:71,0
DA:75,0
DA:79,0
LF:3
LH:0
end_of_record
SF:/usr/include/c++/8/iomanip
FN:195,_ZSt12setprecisioni
FNDA:0,_ZSt12setprecisioni
FNF:1
FNH:0
DA:195,0
DA:196,0
LF:2
LH:0
end_of_record
SF:/usr/include/c++/8/bits/ios_base.h
FN:129,_ZStorSt13_Ios_OpenmodeS_
FNDA:0,_ZStorSt13_Ios_OpenmodeS_
FNF:1
FNH:0
DA:129,0
DA:130,0
LF:2
LH:0
end_of_record
SF:/usr/include/c++/8/bits/move.h
FN:47,_ZSt11__addressofISt5tupleIJdS0_IJddEEEEEPT_RS3_
FN:74,_ZSt7forwardIRKSt5tupleIJdS0_IJddEEEEEOT_RNSt16remove_referenceIS5_E4typeE
FN:99,_ZSt4moveIRSaIcEEONSt16remove_referenceIT_E4typeEOS3_
FNDA:0,_ZSt11__addressofISt5tupleIJdS0_IJddEEEEEPT_RS3_
FNDA:0,_ZSt7forwardIRKSt5tupleIJdS0_IJddEEEEEOT_RNSt16remove_referenceIS5_E4typeE
FNDA:0,_ZSt4moveIRSaIcEEONSt16remove_referenceIT_E4typeEOS3_
FNF:3
FNH:0
DA:47,0
DA:48,0
DA:74,0
DA:75,0
DA:99,0
DA:100,0
LF:6
LH:0
end_of_record
SF:/usr/include/c++/8/new
FN:168,_ZnwmPv
FNDA:0,_ZnwmPv
FNF:1
FNH:0
DA:168,0
DA:169,0
LF:2
LH:0
end_of_record
SF:/usr/include/c++/8/ext/new_allocator.h
FN:79,_ZN9__gnu_cxx13new_allocatorIcEC2Ev
FN:79,_ZN9__gnu_cxx13new_allocatorISt5tupleIJdS1_IJddEEEEEC2Ev
FN:81,_ZN9__gnu_cxx13new_allocatorISt5tupleIJdS1_IJddEEEEEC2ERKS4_
FN:81,_ZN9__gnu_cxx13new_allocatorIcEC2ERKS1_
FN:86,_ZN9__gnu_cxx13new_allocatorIcED2Ev
FN:86,_ZN9__gnu_cxx13new_allocatorISt5tupleIJdS1_IJddEEEEED2Ev
FN:99,_ZN9__gnu_cxx13new_allocatorISt5tupleIJdS1_IJddEEEEE8allocateEmPKv
FN:116,_ZN9__gnu_cxx13new_allocatorISt5tupleIJdS1_IJddEEEEE10deallocateEPS3_m
FN:129,_ZNK9__gnu_cxx13new_allocatorISt5tupleIJdS1_IJddEEEEE8max_sizeEv
FNDA:0,_ZN9__gnu_cxx13new_allocatorISt5tupleIJdS1_IJddEEEEEC2Ev
FNDA:0,_ZN9__gnu_cxx13new_allocatorIcEC2Ev
FNDA:0,_ZN9__gnu_cxx13new_allocatorISt5tupleIJdS1_IJddEEEEEC2ERKS4_
FNDA:0,_ZN9__gnu_cxx13new_allocatorIcEC2ERKS1_
FNDA:0,_ZN9__gnu_cxx13new_allocatorISt5tupleIJdS1_IJddEEEEED2Ev
FNDA:0,_ZN9__gnu_cxx13new_allocatorIcED2Ev
FNDA:0,_ZN9__gnu_cxx13new_allocatorISt5tupleIJdS1_IJddEEEEE8allocateEmPKv
FNDA:0,_ZN9__gnu_cxx13new_allocatorISt5tupleIJdS1_IJddEEEEE10deallocateEPS3_m
FNDA:0,_ZNK9__gnu_cxx13new_allocatorISt5tupleIJdS1_IJddEEEEE8max_sizeEv
FNF:9
FNH:0
DA:79,0
DA:81,0
DA:86,0
DA:99,0
DA:101,0
DA:102,0
DA:111,0
DA:116,0
DA:125,0
DA:126,0
DA:129,0
DA:130,0
LF:12
LH:0
end_of_record
SF:/usr/include/c++/8/bits/stl_construct.h
FN:74,_ZSt10_ConstructISt5tupleIJdS0_IJddEEEEJRKS2_EEvPT_DpOT0_
FN:117,_ZNSt12_Destroy_auxILb1EE9__destroyIPSt5tupleIJdS2_IJddEEEEEEvT_S6_
FN:127,_ZSt8_DestroyIPSt5tupleIJdS0_IJddEEEEEvT_S4_
FN:203,_ZSt8_DestroyIPSt5tupleIJdS0_IJddEEEES2_EvT_S4_RSaIT0_E
FNDA:0,_ZSt10_ConstructISt5tupleIJdS0_IJddEEEEJRKS2_EEvPT_DpOT0_
FNDA:0,_ZNSt12_Destroy_auxILb1EE9__destroyIPSt5tupleIJdS2_IJddEEEEEEvT_S6_
FNDA:0,_ZSt8_DestroyIPSt5tupleIJdS0_IJddEEEEEvT_S4_
FNDA:0,_ZSt8_DestroyIPSt5tupleIJdS0_IJddEEEES2_EvT_S4_RSaIT0_E
FNF:4
FNH:0
DA:74,0
DA:75,0
DA:117,0
DA:127,0
DA:137,0
DA:138,0
DA:203,0
DA:206,0
DA:207,0
LF:9
LH:0
end_of_record
SF:/usr/include/c++/8/bits/stl_iterator.h
FN:783,_ZN9__gnu_cxx17__normal_iteratorIPKSt5tupleIJdS1_IJddEEEESt6vectorIS3_SaIS3_EEEC2ERKS5_
FN:796,_ZNK9__gnu_cxx17__normal_iteratorIPKSt5tupleIJdS1_IJddEEEESt6vectorIS3_SaIS3_EEEdeEv
FN:804,_ZN9__gnu_cxx17__normal_iteratorIPKSt5tupleIJdS1_IJddEEEESt6vectorIS3_SaIS3_EEEppEv
FN:848,_ZNK9__gnu_cxx17__normal_iteratorIPKSt5tupleIJdS1_IJddEEEESt6vectorIS3_SaIS3_EEE4baseEv
FN:884,_ZN9__gnu_cxxneIPKSt5tupleIJdS1_IJddEEEESt6vectorIS3_SaIS3_EEEEbRKNS_17__normal_iteratorIT_T0_EESE_
FNDA:0,_ZN9__gnu_cxx17__normal_iteratorIPKSt5tupleIJdS1_IJddEEEESt6vectorIS3_SaIS3_EEEC2ERKS5_
FNDA:0,_ZNK9__gnu_cxx17__normal_iteratorIPKSt5tupleIJdS1_IJddEEEESt6vectorIS3_SaIS3_EEEdeEv
FNDA:0,_ZN9__gnu_cxx17__normal_iteratorIPKSt5tupleIJdS1_IJddEEEESt6vectorIS3_SaIS3_EEEppEv
FNDA:0,_ZNK9__gnu_cxx17__normal_iteratorIPKSt5tupleIJdS1_IJddEEEESt6vectorIS3_SaIS3_EEE4baseEv
FNDA:0,_ZN9__gnu_cxxneIPKSt5tupleIJdS1_IJddEEEESt6vectorIS3_SaIS3_EEEEbRKNS_17__normal_iteratorIT_T0_EESE_
FNF:5
FNH:0
DA:783,0
DA:784,0
DA:796,0
DA:797,0
DA:804,0
DA:806,0
DA:807,0
DA:848,0
DA:849,0
DA:884,0
DA:887,0
LF:11
LH:0
end_of_record
SF:/usr/include/c++/8/bits/stl_iterator_base_funcs.h
FN:98,_ZSt10__distanceIPKSt5tupleIJdS0_IJddEEEEENSt15iterator_traitsIT_E15difference_typeES6_S6_St26random_access_iterator_tag
FN:98,_ZSt10__distanceIPcENSt15iterator_traitsIT_E15difference_typeES2_S2_St26random_access_iterator_tag
FN:98,_ZSt10__distanceIPKcENSt15iterator_traitsIT_E15difference_typeES3_S3_St26random_access_iterator_tag
FNDA:0,_ZSt10__distanceIPcENSt15iterator_traitsIT_E15difference_typeES2_S2_St26random_access_iterator_tag
FNDA:0,_ZSt10__distanceIPKcENSt15iterator_traitsIT_E15difference_typeES3_S3_St26random_access_iterator_tag
FNDA:0,_ZSt10__distanceIPKSt5tupleIJdS0_IJddEEEEENSt15iterator_traitsIT_E15difference_typeES6_S6_St26random_access_iterator_tag
FNF:3
FNH:0
DA:98,0
DA:104,0
DA:138,0
DA:141,0
DA:142,0
LF:5
LH:0
end_of_record
SF:/usr/include/c++/8/bits/stl_iterator_base_types.h
FN:205,_ZSt19__iterator_categoryIPKSt5tupleIJdS0_IJddEEEEENSt15iterator_traitsIT_E17iterator_categoryERKS6_
FN:205,_ZSt19__iterator_categoryIPcENSt15iterator_traitsIT_E17iterator_categoryERKS2_
FN:205,_ZSt19__iterator_categoryIPKcENSt15iterator_traitsIT_E17iterator_categoryERKS3_
FNDA:0,_ZSt19__iterator_categoryIPcENSt15iterator_traitsIT_E17iterator_categoryERKS2_
FNDA:0,_ZSt19__iterator_categoryIPKcENSt15iterator_traitsIT_E17iterator_categoryERKS3_
FNDA:0,_ZSt19__iterator_categoryIPKSt5tupleIJdS0_IJddEEEEENSt15iterator_traitsIT_E17iterator_categoryERKS6_
FNF:3
FNH:0
DA:205,0
DA:206,0
LF:2
LH:0
end_of_record
SF:/usr/include/c++/8/bits/stl_uninitialized.h
FN:76,_ZNSt20__uninitialized_copyILb0EE13__uninit_copyIPKSt5tupleIJdS2_IJddEEEEPS4_EET0_T_S9_S8_
FN:76,_ZNSt20__uninitialized_copyILb0EE13__uninit_copyIN9__gnu_cxx17__normal_iteratorIPKSt5tupleIJdS4_IJddEEEESt6vectorIS6_SaIS6_EEEEPS6_EET0_T_SF_SE_
FN:115,_ZSt18uninitialized_copyIN9__gnu_cxx17__normal_iteratorIPKSt5tupleIJdS2_IJddEEEESt6vectorIS4_SaIS4_EEEEPS4_ET0_T_SD_SC_
FN:115,_ZSt18uninitialized_copyIPKSt5tupleIJdS0_IJddEEEEPS2_ET0_T_S7_S6_
FN:287,_ZSt22__uninitialized_copy_aIPKSt5tupleIJdS0_IJddEEEEPS2_S2_ET0_T_S7_S6_RSaIT1_E
FN:287,_ZSt22__uninitialized_copy_aIN9__gnu_cxx17__normal_iteratorIPKSt5tupleIJdS2_IJddEEEESt6vectorIS4_SaIS4_EEEEPS4_S4_ET0_T_SD_SC_RSaIT1_E
FNDA:0,_ZNSt20__uninitialized_copyILb0EE13__uninit_copyIPKSt5tupleIJdS2_IJddEEEEPS4_EET0_T_S9_S8_
FNDA:0,_ZNSt20__uninitialized_copyILb0EE13__uninit_copyIN9__gnu_cxx17__normal_iteratorIPKSt5tupleIJdS4_IJddEEEESt6vectorIS6_SaIS6_EEEEPS6_EET0_T_SF_SE_
FNDA:0,_ZSt18uninitialized_copyIPKSt5tupleIJdS0_IJddEEEEPS2_ET0_T_S7_S6_
FNDA:0,_ZSt18uninitialized_copyIN9__gnu_cxx17__normal_iteratorIPKSt5tupleIJdS2_IJddEEEESt6vectorIS4_SaIS4_EEEEPS4_ET0_T_SD_SC_
FNDA:0,_ZSt22__uninitialized_copy_aIPKSt5tupleIJdS0_IJddEEEEPS2_S2_ET0_T_S7_S6_RSaIT1_E
FNDA:0,_ZSt22__uninitialized_copy_aIN9__gnu_cxx17__normal_iteratorIPKSt5tupleIJdS2_IJddEEEESt6vectorIS4_SaIS4_EEEEPS4_S4_ET0_T_SD_SC_RSaIT1_E
FNF:6
FNH:0
DA:76,0
DA:79,0
DA:82,0
DA:83,0
DA:84,0
DA:115,0
DA:128,0
DA:134,0
DA:287,0
DA:289,0
LF:10
LH:0
end_of_record
SF:/usr/include/c++/8/bits/stl_vector.h
FN:99,_ZNSt12_Vector_baseISt5tupleIJdS0_IJddEEEESaIS2_EE12_Vector_implC2ERKS3_
FN:237,_ZNSt12_Vector_baseISt5tupleIJdS0_IJddEEEESaIS2_EE19_M_get_Tp_allocatorEv
FN:241,_ZNKSt12_Vector_baseISt5tupleIJdS0_IJddEEEESaIS2_EE19_M_get_Tp_allocatorEv
FN:251,_ZNSt12_Vector_baseISt5tupleIJdS0_IJddEEEESaIS2_EEC2ERKS3_
FN:258,_ZNSt12_Vector_baseISt5tupleIJdS0_IJddEEEESaIS2_EEC2EmRKS3_
FN:283,_ZNSt12_Vector_baseISt5tupleIJdS0_IJddEEEESaIS2_EED2Ev
FN:293,_ZNSt12_Vector_baseISt5tupleIJdS0_IJddEEEESaIS2_EE11_M_allocateEm
FN:300,_ZNSt12_Vector_baseISt5tupleIJdS0_IJddEEEESaIS2_EE13_M_deallocateEPS2_m
FN:309,_ZNSt12_Vector_baseISt5tupleIJdS0_IJddEEEESaIS2_EE17_M_create_storageEm
FN:458,_ZNSt6vectorISt5tupleIJdS0_IJddEEEESaIS2_EEC2ERKS4_
FN:515,_ZNSt6vectorISt5tupleIJdS0_IJddEEEESaIS2_EEC2ESt16initializer_listIS2_ERKS3_
FN:565,_ZNSt6vectorISt5tupleIJdS0_IJddEEEESaIS2_EED2Ev
FN:707,_ZNKSt6vectorISt5tupleIJdS0_IJddEEEESaIS2_EE5beginEv
FN:725,_ZNKSt6vectorISt5tupleIJdS0_IJddEEEESaIS2_EE3endEv
FN:805,_ZNKSt6vectorISt5tupleIJdS0_IJddEEEESaIS2_EE4sizeEv
FN:1462,_ZNSt6vectorISt5tupleIJdS0_IJddEEEESaIS2_EE19_M_range_initializeIPKS2_EEvT_S8_St20forward_iterator_tag
FNDA:0,_ZNSt12_Vector_baseISt5tupleIJdS0_IJddEEEESaIS2_EE12_Vector_implC2ERKS3_
FNDA:0,_ZNSt12_Vector_baseISt5tupleIJdS0_IJddEEEESaIS2_EE19_M_get_Tp_allocatorEv
FNDA:0,_ZNKSt12_Vector_baseISt5tupleIJdS0_IJddEEEESaIS2_EE19_M_get_Tp_allocatorEv
FNDA:0,_ZNSt12_Vector_baseISt5tupleIJdS0_IJddEEEESaIS2_EEC2ERKS3_
FNDA:0,_ZNSt12_Vector_baseISt5tupleIJdS0_IJddEEEESaIS2_EEC2EmRKS3_
FNDA:0,_ZNSt12_Vector_baseISt5tupleIJdS0_IJddEEEESaIS2_EED2Ev
FNDA:0,_ZNSt12_Vector_baseISt5tupleIJdS0_IJddEEEESaIS2_EE11_M_allocateEm
FNDA:0,_ZNSt12_Vector_baseISt5tupleIJdS0_IJddEEEESaIS2_EE13_M_deallocateEPS2_m
FNDA:0,_ZNSt12_Vector_baseISt5tupleIJdS0_IJddEEEESaIS2_EE17_M_create_storageEm
FNDA:0,_ZNSt6vectorISt5tupleIJdS0_IJddEEEESaIS2_EEC2ERKS4_
FNDA:0,_ZNSt6vectorISt5tupleIJdS0_IJddEEEESaIS2_EEC2ESt16initializer_listIS2_ERKS3_
FNDA:0,_ZNSt6vectorISt5tupleIJdS0_IJddEEEESaIS2_EED2Ev
FNDA:0,_ZNKSt6vectorISt5tupleIJdS0_IJddEEEESaIS2_EE5beginEv
FNDA:0,_ZNKSt6vectorISt5tupleIJdS0_IJddEEEESaIS2_EE3endEv
FNDA:0,_ZNKSt6vectorISt5tupleIJdS0_IJddEEEESaIS2_EE4sizeEv
FNDA:0,_ZNSt6vectorISt5tupleIJdS0_IJddEEEESaIS2_EE19_M_range_initializeIPKS2_EEvT_S8_St20forward_iterator_tag
FNF:16
FNH:0
DA:99,0
DA:100,0
DA:101,0
DA:237,0
DA:238,0
DA:241,0
DA:242,0
DA:251,0
DA:252,0
DA:258,0
DA:259,0
DA:260,0
DA:283,0
DA:285,0
DA:286,0
DA:287,0
DA:293,0
DA:296,0
DA:300,0
DA:303,0
DA:304,0
DA:305,0
DA:309,0
DA:311,0
DA:312,0
DA:313,0
DA:314,0
DA:458,0
DA:460,0
DA:462,0
DA:463,0
DA:465,0
DA:466,0
DA:515,0
DA:517,0
DA:519,0
DA:521,0
DA:565,0
DA:567,0
DA:568,0
DA:570,0
DA:707,0
DA:708,0
DA:725,0
DA:726,0
DA:805,0
DA:806,0
DA:1462,0
DA:1465,0
DA:1466,0
DA:1467,0
DA:1468,0
DA:1469,0
DA:1471,0
DA:1472,0
LF:55
LH:0
end_of_record
SF:/usr/include/c++/8/ext/type_traits.h
FN:152,_ZN9__gnu_cxx17__is_null_pointerIKcEEbPT_
FN:152,_ZN9__gnu_cxx17__is_null_pointerIcEEbPT_
FNDA:0,_ZN9__gnu_cxx17__is_null_pointerIcEEbPT_
FNDA:0,_ZN9__gnu_cxx17__is_null_pointerIKcEEbPT_
FNF:2
FNH:0
DA:152,0
DA:153,0
LF:2
LH:0
end_of_record
TN:
SF:/home/leito-chan/Downloads/TPI/transporteUrbano/tests/aPalabraTEST.cpp
FN:7,_ZN32aPalabraTEST_trayecto_vacio_Test8TestBodyEv
FN:7,_ZN32aPalabraTEST_trayecto_vacio_TestC2Ev
FNDA:2,_ZN32aPalabraTEST_trayecto_vacio_Test8TestBodyEv
FNDA:2,_ZN32aPalabraTEST_trayecto_vacio_TestC2Ev
FNF:2
FNH:2
DA:7,4
DA:8,2
DA:9,2
DA:10,2
DA:12,2
DA:13,4
DA:14,2
DA:17,4
DA:18,2
DA:19,2
DA:20,2
DA:24,2
DA:25,2
DA:26,2
DA:32,2
DA:34,4
DA:35,2
DA:36,2
LF:18
LH:18
end_of_record
SF:/usr/include/c++/8/bits/alloc_traits.h
FN:435,_ZNSt16allocator_traitsISaISt5tupleIJddEEEE8allocateERS2_m
FN:435,_ZNSt16allocator_traitsISaISt5tupleIJS0_IJddEES1_S0_IJiiEEEEEE8allocateERS4_m
FN:435,_ZNSt16allocator_traitsISaISt5tupleIJiiEEEE8allocateERS2_m
FN:461,_ZNSt16allocator_traitsISaISt5tupleIJiiEEEE10deallocateERS2_PS1_m
FN:461,_ZNSt16allocator_traitsISaISt5tupleIJddEEEE10deallocateERS2_PS1_m
FN:461,_ZNSt16allocator_traitsISaISt5tupleIJS0_IJddEES1_S0_IJiiEEEEEE10deallocateERS4_PS3_m
FN:504,_ZNSt16allocator_traitsISaISt5tupleIJS0_IJddEES1_S0_IJiiEEEEEE37select_on_container_copy_constructionERKS4_
FN:504,_ZNSt16allocator_traitsISaISt5tupleIJddEEEE37select_on_container_copy_constructionERKS2_
FN:504,_ZNSt16allocator_traitsISaIcEE37select_on_container_copy_constructionERKS0_
FNDA:0,_ZNSt16allocator_traitsISaISt5tupleIJS0_IJddEES1_S0_IJiiEEEEEE8allocateERS4_m
FNDA:0,_ZNSt16allocator_traitsISaISt5tupleIJiiEEEE8allocateERS2_m
FNDA:0,_ZNSt16allocator_traitsISaISt5tupleIJddEEEE8allocateERS2_m
FNDA:0,_ZNSt16allocator_traitsISaISt5tupleIJiiEEEE10deallocateERS2_PS1_m
FNDA:0,_ZNSt16allocator_traitsISaISt5tupleIJddEEEE10deallocateERS2_PS1_m
FNDA:0,_ZNSt16allocator_traitsISaISt5tupleIJS0_IJddEES1_S0_IJiiEEEEEE10deallocateERS4_PS3_m
FNDA:0,_ZNSt16allocator_traitsISaISt5tupleIJS0_IJddEES1_S0_IJiiEEEEEE37select_on_container_copy_constructionERKS4_
FNDA:0,_ZNSt16allocator_traitsISaISt5tupleIJddEEEE37select_on_container_copy_constructionERKS2_
FNDA:0,_ZNSt16allocator_traitsISaIcEE37select_on_container_copy_constructionERKS0_
FNF:9
FNH:0
DA:435,0
DA:436,0
DA:461,0
DA:462,0
DA:504,0
DA:505,0
LF:6
LH:0
end_of_record
SF:/usr/include/c++/8/ext/alloc_traits.h
FN:94,_ZN9__gnu_cxx14__alloc_traitsISaISt5tupleIJS1_IJddEES2_S1_IJiiEEEEES4_E17_S_select_on_copyERKS5_
FN:94,_ZN9__gnu_cxx14__alloc_traitsISaISt5tupleIJddEEES2_E17_S_select_on_copyERKS3_
FN:94,_ZN9__gnu_cxx14__alloc_traitsISaIcEcE17_S_select_on_copyERKS1_
FNDA:0,_ZN9__gnu_cxx14__alloc_traitsISaISt5tupleIJS1_IJddEES2_S1_IJiiEEEEES4_E17_S_select_on_copyERKS5_
FNDA:0,_ZN9__gnu_cxx14__alloc_traitsISaISt5tupleIJddEEES2_E17_S_select_on_copyERKS3_
FNDA:0,_ZN9__gnu_cxx14__alloc_traitsISaIcEcE17_S_select_on_copyERKS1_
FNF:3
FNH:0
DA:94,0
DA:95,0
LF:2
LH:0
end_of_record
SF:/usr/include/c++/8/bits/allocator.h
FN:131,_ZNSaISt5tupleIJiiEEEC2Ev
FN:131,_ZNSaISt5tupleIJddEEEC2Ev
FN:133,_ZNSaISt5tupleIJiiEEEC2ERKS1_
FN:133,_ZNSaISt5tupleIJddEEEC2ERKS1_
FN:133,_ZNSaISt5tupleIJS_IJddEES0_S_IJiiEEEEEC2ERKS3_
FN:139,_ZNSaISt5tupleIJS_IJddEES0_S_IJiiEEEEED2Ev
FN:139,_ZNSaISt5tupleIJiiEEED2Ev
FN:139,_ZNSaISt5tupleIJddEEED2Ev
FNDA:0,_ZNSaISt5tupleIJiiEEEC2Ev
FNDA:0,_ZNSaISt5tupleIJddEEEC2Ev
FNDA:2,_ZNSaISt5tupleIJiiEEEC2ERKS1_
FNDA:0,_ZNSaISt5tupleIJS_IJddEES0_S_IJiiEEEEEC2ERKS3_
FNDA:0,_ZNSaISt5tupleIJddEEEC2ERKS1_
FNDA:0,_ZNSaISt5tupleIJS_IJddEES0_S_IJiiEEEEED2Ev
FNDA:0,_ZNSaISt5tupleIJiiEEED2Ev
FNDA:0,_ZNSaISt5tupleIJddEEED2Ev
FNF:8
FNH:1
DA:131,0
DA:133,2
DA:134,2
DA:139,0
LF:4
LH:2
end_of_record
SF:/usr/include/c++/8/bits/basic_string.h
FN:232,_ZNSt7__cxx1112basic_stringIcSt11char_traitsIcESaIcEE16_M_construct_auxIPKcEEvT_S8_St12__false_type
FN:232,_ZNSt7__cxx1112basic_stringIcSt11char_traitsIcESaIcEE16_M_construct_auxIPcEEvT_S7_St12__false_type
FN:252,_ZNSt7__cxx1112basic_stringIcSt11char_traitsIcESaIcEE12_M_constructIPKcEEvT_S8_
FN:252,_ZNSt7__cxx1112basic_stringIcSt11char_traitsIcESaIcEE12_M_constructIPcEEvT_S7_
FNDA:0,_ZNSt7__cxx1112basic_stringIcSt11char_traitsIcESaIcEE16_M_construct_auxIPcEEvT_S7_St12__false_type
FNDA:0,_ZNSt7__cxx1112basic_stringIcSt11char_traitsIcESaIcEE16_M_construct_auxIPKcEEvT_S8_St12__false_type
FNDA:0,_ZNSt7__cxx1112basic_stringIcSt11char_traitsIcESaIcEE12_M_constructIPcEEvT_S7_
FNDA:0,_ZNSt7__cxx1112basic_stringIcSt11char_traitsIcESaIcEE12_M_constructIPKcEEvT_S8_
FNF:4
FNH:0
DA:232,0
DA:236,0
DA:237,0
DA:252,0
DA:255,0
DA:256,0
LF:6
LH:0
end_of_record
SF:/usr/include/c++/8/bits/basic_string.tcc
FN:206,_ZNSt7__cxx1112basic_stringIcSt11char_traitsIcESaIcEE12_M_constructIPKcEEvT_S8_St20forward_iterator_tag
FN:206,_ZNSt7__cxx1112basic_stringIcSt11char_traitsIcESaIcEE12_M_constructIPcEEvT_S7_St20forward_iterator_tag
FNDA:0,_ZNSt7__cxx1112basic_stringIcSt11char_traitsIcESaIcEE12_M_constructIPcEEvT_S7_St20forward_iterator_tag
FNDA:0,_ZNSt7__cxx1112basic_stringIcSt11char_traitsIcESaIcEE12_M_constructIPKcEEvT_S8_St20forward_iterator_tag
FNF:2
FNH:0
DA:206,0
DA:211,0
DA:212,0
DA:215,0
DA:217,0
DA:219,0
DA:220,0
DA:225,0
DA:226,0
DA:228,0
DA:229,0
DA:232,0
DA:233,0
LF:13
LH:0
end_of_record
SF:/usr/include/c++/8/bits/char_traits.h
FN:316,_ZNSt11char_traitsIcE6lengthEPKc
FNDA:0,_ZNSt11char_traitsIcE6lengthEPKc
FNF:1
FNH:0
DA:316,0
DA:322,0
LF:2
LH:0
end_of_record
SF:/home/leito-chan/Downloads/TPI/transporteUrbano/lib/googletest-master/googletest/include/gtest/internal/gtest-internal.h
FN:310,_ZN7testing8internal13FloatingPointIdEC2ERKd
FN:337,_ZNK7testing8internal13FloatingPointIdE13exponent_bitsEv
FN:340,_ZNK7testing8internal13FloatingPointIdE13fraction_bitsEv
FN:346,_ZNK7testing8internal13FloatingPointIdE6is_nanEv
FN:358,_ZNK7testing8internal13FloatingPointIdE12AlmostEqualsERKS2_
FN:389,_ZN7testing8internal13FloatingPointIdE24SignAndMagnitudeToBiasedERKy
FN:401,_ZN7testing8internal13FloatingPointIdE38DistanceBetweenSignAndMagnitudeNumbersERKyS4_
FN:466,_ZN7testing8internal15TestFactoryBaseD0Ev
FN:466,_ZN7testing8internal15TestFactoryBaseD2Ev
FN:473,_ZN7testing8internal15TestFactoryBaseC2Ev
FN:484,_ZN7testing8internal15TestFactoryImplI37aPalabraTEST_trayecto_de_enteros_TestE10CreateTestEv
FN:484,_ZN7testing8internal15TestFactoryImplI32aPalabraTEST_trayecto_vacio_TestE10CreateTestEv
FN:505,_ZN7testing8internal12CodeLocationC2ERKNSt7__cxx1112basic_stringIcSt11char_traitsIcESaIcEEEi
FNDA:0,_ZN7testing8internal13FloatingPointIdEC2ERKd
FNDA:0,_ZNK7testing8internal13FloatingPointIdE13exponent_bitsEv
FNDA:0,_ZNK7testing8internal13FloatingPointIdE13fraction_bitsEv
FNDA:0,_ZNK7testing8internal13FloatingPointIdE6is_nanEv
FNDA:0,_ZNK7testing8internal13FloatingPointIdE12AlmostEqualsERKS2_
FNDA:0,_ZN7testing8internal13FloatingPointIdE24SignAndMagnitudeToBiasedERKy
FNDA:0,_ZN7testing8internal13FloatingPointIdE38DistanceBetweenSignAndMagnitudeNumbersERKyS4_
FNDA:0,_ZN7testing8internal15TestFactoryBaseD0Ev
FNDA:0,_ZN7testing8internal15TestFactoryBaseD2Ev
FNDA:0,_ZN7testing8internal15TestFactoryBaseC2Ev
FNDA:2,_ZN7testing8internal15TestFactoryImplI32aPalabraTEST_trayecto_vacio_TestE10CreateTestEv
FNDA:2,_ZN7testing8internal15TestFactoryImplI37aPalabraTEST_trayecto_de_enteros_TestE10CreateTestEv
FNDA:0,_ZN7testing8internal12CodeLocationC2ERKNSt7__cxx1112basic_stringIcSt11char_traitsIcESaIcEEEi
FNF:13
FNH:2
DA:310,0
DA:337,0
DA:340,0
DA:346,0
DA:349,0
DA:358,0
DA:361,0
DA:363,0
DA:364,0
DA:389,0
DA:390,0
DA:392,0
DA:395,0
DA:401,0
DA:403,0
DA:404,0
DA:405,0
DA:466,0
DA:473,0
DA:484,4
DA:505,0
DA:506,0
LF:22
LH:1
end_of_record
SF:/home/leito-chan/Downloads/TPI/transporteUrbano/lib/googletest-master/googletest/include/gtest/internal/gtest-port.h
FN:1157,_ZN7testing8internal10scoped_ptrINSt7__cxx1118basic_stringstreamIcSt11char_traitsIcESaIcEEEED2Ev
FN:1157,_ZN7testing8internal10scoped_ptrINSt7__cxx1112basic_stringIcSt11char_traitsIcESaIcEEEED2Ev
FN:1160,_ZNK7testing8internal10scoped_ptrINSt7__cxx1112basic_stringIcSt11char_traitsIcESaIcEEEEptEv
FN:1161,_ZNK7testing8internal10scoped_ptrINSt7__cxx1112basic_stringIcSt11char_traitsIcESaIcEEEE3getEv
FN:1169,_ZN7testing8internal10scoped_ptrINSt7__cxx1112basic_stringIcSt11char_traitsIcESaIcEEEE5resetEPS7_
FN:1169,_ZN7testing8internal10scoped_ptrINSt7__cxx1118basic_stringstreamIcSt11char_traitsIcESaIcEEEE5resetEPS7_
FNDA:0,_ZN7testing8internal10scoped_ptrINSt7__cxx1112basic_stringIcSt11char_traitsIcESaIcEEEED2Ev
FNDA:0,_ZN7testing8internal10scoped_ptrINSt7__cxx1118basic_stringstreamIcSt11char_traitsIcESaIcEEEED2Ev
FNDA:0,_ZNK7testing8internal10scoped_ptrINSt7__cxx1112basic_stringIcSt11char_traitsIcESaIcEEEEptEv
FNDA:0,_ZNK7testing8internal10scoped_ptrINSt7__cxx1112basic_stringIcSt11char_traitsIcESaIcEEEE3getEv
FNDA:0,_ZN7testing8internal10scoped_ptrINSt7__cxx1118basic_stringstreamIcSt11char_traitsIcESaIcEEEE5resetEPS7_
FNDA:0,_ZN7testing8internal10scoped_ptrINSt7__cxx1112basic_stringIcSt11char_traitsIcESaIcEEEE5resetEPS7_
FNF:6
FNH:0
DA:1157,0
DA:1160,0
DA:1161,0
DA:1169,0
DA:1170,0
DA:1171,0
DA:1172,0
DA:1174,0
DA:1176,0
LF:9
LH:0
end_of_record
SF:/home/leito-chan/Downloads/TPI/transporteUrbano/lib/googletest-master/googletest/include/gtest/gtest-printers.h
FN:222,_ZN16testing_internal26DefaultPrintNonContainerToImEEvRKT_PSo
FN:222,_ZN16testing_internal26DefaultPrintNonContainerToIiEEvRKT_PSo
FN:275,_ZN7testing8internal19FormatForComparisonImiE6FormatB5cxx11ERKm
FN:275,_ZN7testing8internal19FormatForComparisonISt6vectorISt5tupleIJiiEESaIS4_EES6_E6FormatB5cxx11ERKS6_
FN:275,_ZN7testing8internal19FormatForComparisonIimE6FormatB5cxx11ERKi
FN:349,_ZN7testing8internal33FormatForComparisonFailureMessageISt6vectorISt5tupleIJiiEESaIS4_EES6_EENSt7__cxx1112basic_stringIcSt11char_traitsIcESaIcEEERKT_RKT0_
FN:349,_ZN7testing8internal33FormatForComparisonFailureMessageIimEENSt7__cxx1112basic_stringIcSt11char_traitsIcESaIcEEERKT_RKT0_
FN:349,_ZN7testing8internal33FormatForComparisonFailureMessageImiEENSt7__cxx1112basic_stringIcSt11char_traitsIcESaIcEEERKT_RKT0_
FN:378,_ZN7testing8internal14DefaultPrintToISt6vectorISt5tupleIJiiEESaIS4_EEEEvNS0_15WrapPrinterTypeILNS0_18DefaultPrinterTypeE0EEERKT_PSo
FN:442,_ZN7testing8internal14DefaultPrintToIiEEvNS0_15WrapPrinterTypeILNS0_18DefaultPrinterTypeE3EEERKT_PSo
FN:442,_ZN7testing8internal14DefaultPrintToImEEvNS0_15WrapPrinterTypeILNS0_18DefaultPrinterTypeE3EEERKT_PSo
FN:459,_ZN7testing8internal7PrintToImEEvRKT_PSo
FN:459,_ZN7testing8internal7PrintToISt6vectorISt5tupleIJiiEESaIS4_EEEEvRKT_PSo
FN:459,_ZN7testing8internal7PrintToIiEEvRKT_PSo
FN:626,_ZN7testing8internal7PrintToIiiEEvRKSt5tupleIJT_T0_EEPSo
FN:714,_ZN7testing8internal16UniversalPrinterISt6vectorISt5tupleIJiiEESaIS4_EEE5PrintERKS6_PSo
FN:714,_ZN7testing8internal16UniversalPrinterImE5PrintERKmPSo
FN:714,_ZN7testing8internal16UniversalPrinterIiE5PrintERKiPSo
FN:714,_ZN7testing8internal16UniversalPrinterISt5tupleIJiiEEE5PrintERKS3_PSo
FN:799,_ZN7testing8internal21UniversalTersePrinterIiE5PrintERKiPSo
FN:799,_ZN7testing8internal21UniversalTersePrinterImE5PrintERKmPSo
FN:799,_ZN7testing8internal21UniversalTersePrinterISt6vectorISt5tupleIJiiEESaIS4_EEE5PrintERKS6_PSo
FN:868,_ZN7testing8internal14UniversalPrintISt6vectorISt5tupleIJiiEESaIS4_EEEEvRKT_PSo
FN:868,_ZN7testing8internal14UniversalPrintISt5tupleIJiiEEEEvRKT_PSo
FN:868,_ZN7testing8internal14UniversalPrintImEEvRKT_PSo
FN:868,_ZN7testing8internal14UniversalPrintIiEEvRKT_PSo
FN:917,_ZN7testing8internal11TuplePolicyISt5tupleIJiiEEE3getILm0EEERKNSt13tuple_elementIXT_ES3_E4typeERKS3_
FN:917,_ZN7testing8internal11TuplePolicyISt5tupleIJiiEEE3getILm1EEERKNSt13tuple_elementIXT_ES3_E4typeERKS3_
FN:939,_ZN7testing8internal18TuplePrefixPrinterILm2EE13PrintPrefixToISt5tupleIJiiEEEEvRKT_PSo
FN:939,_ZN7testing8internal18TuplePrefixPrinterILm1EE13PrintPrefixToISt5tupleIJiiEEEEvRKT_PSo
FN:966,_ZN7testing8internal18TuplePrefixPrinterILm0EE13PrintPrefixToISt5tupleIJiiEEEEvRKT_PSo
FN:975,_ZN7testing8internal12PrintTupleToISt5tupleIJiiEEEEvRKT_PSo
FNDA:0,_ZN16testing_internal26DefaultPrintNonContainerToIiEEvRKT_PSo
FNDA:0,_ZN16testing_internal26DefaultPrintNonContainerToImEEvRKT_PSo
FNDA:0,_ZN7testing8internal19FormatForComparisonISt6vectorISt5tupleIJiiEESaIS4_EES6_E6FormatB5cxx11ERKS6_
FNDA:0,_ZN7testing8internal19FormatForComparisonIimE6FormatB5cxx11ERKi
FNDA:0,_ZN7testing8internal19FormatForComparisonImiE6FormatB5cxx11ERKm
FNDA:0,_ZN7testing8internal33FormatForComparisonFailureMessageISt6vectorISt5tupleIJiiEESaIS4_EES6_EENSt7__cxx1112basic_stringIcSt11char_traitsIcESaIcEEERKT_RKT0_
FNDA:0,_ZN7testing8internal33FormatForComparisonFailureMessageIimEENSt7__cxx1112basic_stringIcSt11char_traitsIcESaIcEEERKT_RKT0_
FNDA:0,_ZN7testing8internal33FormatForComparisonFailureMessageImiEENSt7__cxx1112basic_stringIcSt11char_traitsIcESaIcEEERKT_RKT0_
FNDA:0,_ZN7testing8internal14DefaultPrintToISt6vectorISt5tupleIJiiEESaIS4_EEEEvNS0_15WrapPrinterTypeILNS0_18DefaultPrinterTypeE0EEERKT_PSo
FNDA:0,_ZN7testing8internal14DefaultPrintToIiEEvNS0_15WrapPrinterTypeILNS0_18DefaultPrinterTypeE3EEERKT_PSo
FNDA:0,_ZN7testing8internal14DefaultPrintToImEEvNS0_15WrapPrinterTypeILNS0_18DefaultPrinterTypeE3EEERKT_PSo
FNDA:0,_ZN7testing8internal7PrintToISt6vectorISt5tupleIJiiEESaIS4_EEEEvRKT_PSo
FNDA:0,_ZN7testing8internal7PrintToIiEEvRKT_PSo
FNDA:0,_ZN7testing8internal7PrintToImEEvRKT_PSo
FNDA:0,_ZN7testing8internal7PrintToIiiEEvRKSt5tupleIJT_T0_EEPSo
FNDA:0,_ZN7testing8internal16UniversalPrinterISt5tupleIJiiEEE5PrintERKS3_PSo
FNDA:0,_ZN7testing8internal16UniversalPrinterISt6vectorISt5tupleIJiiEESaIS4_EEE5PrintERKS6_PSo
FNDA:0,_ZN7testing8internal16UniversalPrinterIiE5PrintERKiPSo
FNDA:0,_ZN7testing8internal16UniversalPrinterImE5PrintERKmPSo
FNDA:0,_ZN7testing8internal21UniversalTersePrinterISt6vectorISt5tupleIJiiEESaIS4_EEE5PrintERKS6_PSo
FNDA:0,_ZN7testing8internal21UniversalTersePrinterIiE5PrintERKiPSo
FNDA:0,_ZN7testing8internal21UniversalTersePrinterImE5PrintERKmPSo
FNDA:0,_ZN7testing8internal14UniversalPrintISt5tupleIJiiEEEEvRKT_PSo
FNDA:0,_ZN7testing8internal14UniversalPrintISt6vectorISt5tupleIJiiEESaIS4_EEEEvRKT_PSo
FNDA:0,_ZN7testing8internal14UniversalPrintIiEEvRKT_PSo
FNDA:0,_ZN7testing8internal14UniversalPrintImEEvRKT_PSo
FNDA:0,_ZN7testing8internal11TuplePolicyISt5tupleIJiiEEE3getILm0EEERKNSt13tuple_elementIXT_ES3_E4typeERKS3_
FNDA:0,_ZN7testing8internal11TuplePolicyISt5tupleIJiiEEE3getILm1EEERKNSt13tuple_elementIXT_ES3_E4typeERKS3_
FNDA:0,_ZN7testing8internal18TuplePrefixPrinterILm1EE13PrintPrefixToISt5tupleIJiiEEEEvRKT_PSo
FNDA:0,_ZN7testing8internal18TuplePrefixPrinterILm2EE13PrintPrefixToISt5tupleIJiiEEEEvRKT_PSo
FNDA:0,_ZN7testing8internal18TuplePrefixPrinterILm0EE13PrintPrefixToISt5tupleIJiiEEEEvRKT_PSo
FNDA:0,_ZN7testing8internal12PrintTupleToISt5tupleIJiiEEEEvRKT_PSo
FNF:32
FNH:0
DA:222,0
DA:249,0
DA:250,0
DA:275,0
DA:276,0
DA:349,0
DA:351,0
DA:378,0
DA:380,0
DA:381,0
DA:382,0
DA:383,0
DA:384,0
DA:385,0
DA:386,0
DA:387,0
DA:388,0
DA:389,0
DA:392,0
DA:395,0
DA:398,0
DA:399,0
DA:401,0
DA:402,0
DA:442,0
DA:444,0
DA:445,0
DA:459,0
DA:481,0
DA:494,0
DA:626,0
DA:627,0
DA:628,0
DA:714,0
DA:723,0
DA:724,0
DA:799,0
DA:800,0
DA:801,0
DA:868,0
DA:872,0
DA:873,0
DA:917,0
DA:919,0
DA:939,0
DA:940,0
DA:944,0
DA:948,0
DA:949,0
DA:966,0
DA:975,0
DA:976,0
DA:977,0
DA:978,0
DA:979,0
DA:996,0
DA:997,0
DA:998,0
DA:999,0
LF:59
LH:0
end_of_record
SF:/home/leito-chan/Downloads/TPI/transporteUrbano/lib/googletest-master/googletest/include/gtest/gtest.h
FN:288,_ZNK7testing15AssertionResultcvbEv
FN:297,_ZNK7testing15AssertionResult7messageEv
FN:302,_ZNK7testing15AssertionResult15failure_messageEv
FN:389,_ZN7testing4Test13SetUpTestCaseEv
FN:397,_ZN7testing4Test16TearDownTestCaseEv
FN:474,_ZN7testing4Test5SetupEv
FN:1375,_ZN7testing8internal18CmpHelperEQFailureImiEENS_15AssertionResultEPKcS4_RKT_RKT0_
FN:1375,_ZN7testing8internal18CmpHelperEQFailureISt6vectorISt5tupleIJiiEESaIS4_EES6_EENS_15AssertionResultEPKcS9_RKT_RKT0_
FN:1387,_ZN7testing8internal11CmpHelperEQISt6vectorISt5tupleIJiiEESaIS4_EES6_EENS_15AssertionResultEPKcS9_RKT_RKT0_
FN:1387,_ZN7testing8internal11CmpHelperEQImiEENS_15AssertionResultEPKcS4_RKT_RKT0_
FN:1417,_ZN7testing8internal8EqHelperILb0EE7CompareImiEENS_15AssertionResultEPKcS6_RKT_RKT0_
FN:1417,_ZN7testing8internal8EqHelperILb0EE7CompareISt6vectorISt5tupleIJiiEESaIS6_EES8_EENS_15AssertionResultEPKcSB_RKT_RKT0_
FN:1631,_ZN7testing8internal24CmpHelperFloatingPointEQIdEENS_15AssertionResultEPKcS4_T_S5_
FNDA:0,_ZNK7testing15AssertionResultcvbEv
FNDA:0,_ZNK7testing15AssertionResult7messageEv
FNDA:0,_ZNK7testing15AssertionResult15failure_messageEv
FNDA:0,_ZN7testing4Test13SetUpTestCaseEv
FNDA:0,_ZN7testing4Test16TearDownTestCaseEv
FNDA:0,_ZN7testing4Test5SetupEv
FNDA:0,_ZN7testing8internal18CmpHelperEQFailureISt6vectorISt5tupleIJiiEESaIS4_EES6_EENS_15AssertionResultEPKcS9_RKT_RKT0_
FNDA:0,_ZN7testing8internal18CmpHelperEQFailureImiEENS_15AssertionResultEPKcS4_RKT_RKT0_
FNDA:2,_ZN7testing8internal11CmpHelperEQISt6vectorISt5tupleIJiiEESaIS4_EES6_EENS_15AssertionResultEPKcS9_RKT_RKT0_
FNDA:0,_ZN7testing8internal11CmpHelperEQImiEENS_15AssertionResultEPKcS4_RKT_RKT0_
FNDA:2,_ZN7testing8internal8EqHelperILb0EE7CompareISt6vectorISt5tupleIJiiEESaIS6_EES8_EENS_15AssertionResultEPKcSB_RKT_RKT0_
FNDA:0,_ZN7testing8internal8EqHelperILb0EE7CompareImiEENS_15AssertionResultEPKcS6_RKT_RKT0_
FNDA:0,_ZN7testing8internal24CmpHelperFloatingPointEQIdEENS_15AssertionResultEPKcS4_T_S5_
FNF:13
FNH:2
DA:288,0
DA:297,0
DA:298,0
DA:302,0
DA:389,0
DA:397,0
DA:474,0
DA:1375,0
DA:1382,0
DA:1387,2
DA:1392,2
DA:1393,2
DA:1397,0
DA:1417,2
DA:1421,2
DA:1631,0
DA:1635,0
DA:1637,0
DA:1638,0
DA:1641,0
DA:1642,0
DA:1643,0
DA:1645,0
DA:1646,0
DA:1647,0
DA:1653,0
LF:26
LH:5
end_of_record
SF:/usr/include/c++/8/initializer_list
FN:71,_ZNKSt16initializer_listISt5tupleIJiiEEE4sizeEv
FN:71,_ZNKSt16initializer_listISt5tupleIJddEEE4sizeEv
FN:75,_ZNKSt16initializer_listISt5tupleIJiiEEE5beginEv
FN:75,_ZNKSt16initializer_listISt5tupleIJddEEE5beginEv
FN:79,_ZNKSt16initializer_listISt5tupleIJiiEEE3endEv
FN:79,_ZNKSt16initializer_listISt5tupleIJddEEE3endEv
FNDA:2,_ZNKSt16initializer_listISt5tupleIJiiEEE4sizeEv
FNDA:0,_ZNKSt16initializer_listISt5tupleIJddEEE4sizeEv
FNDA:4,_ZNKSt16initializer_listISt5tupleIJiiEEE5beginEv
FNDA:0,_ZNKSt16initializer_listISt5tupleIJddEEE5beginEv
FNDA:2,_ZNKSt16initializer_listISt5tupleIJiiEEE3endEv
FNDA:0,_ZNKSt16initializer_listISt5tupleIJddEEE3endEv
FNF:6
FNH:3
DA:71,2
DA:75,4
DA:79,2
LF:3
LH:3
end_of_record
SF:/usr/include/c++/8/iomanip
FN:195,_ZSt12setprecisioni
FNDA:0,_ZSt12setprecisioni
FNF:1
FNH:0
DA:195,0
DA:196,0
LF:2
LH:0
end_of_record
SF:/usr/include/c++/8/bits/ios_base.h
FN:129,_ZStorSt13_Ios_OpenmodeS_
FNDA:0,_ZStorSt13_Ios_OpenmodeS_
FNF:1
FNH:0
DA:129,0
DA:130,0
LF:2
LH:0
end_of_record
SF:/usr/include/c++/8/bits/move.h
FN:47,_ZSt11__addressofISt5tupleIJiiEEEPT_RS2_
FN:47,_ZSt11__addressofISt5tupleIJddEEEPT_RS2_
FN:47,_ZSt11__addressofISt5tupleIJS0_IJddEES1_S0_IJiiEEEEEPT_RS4_
FN:74,_ZSt7forwardIRKSt5tupleIJiiEEEOT_RNSt16remove_referenceIS4_E4typeE
FN:74,_ZSt7forwardIRKSt5tupleIJS0_IJddEES1_S0_IJiiEEEEEOT_RNSt16remove_referenceIS6_E4typeE
FN:74,_ZSt7forwardIRKSt5tupleIJddEEEOT_RNSt16remove_referenceIS4_E4typeE
FN:99,_ZSt4moveIRSaIcEEONSt16remove_referenceIT_E4typeEOS3_
FNDA:0,_ZSt11__addressofISt5tupleIJiiEEEPT_RS2_
FNDA:0,_ZSt11__addressofISt5tupleIJS0_IJddEES1_S0_IJiiEEEEEPT_RS4_
FNDA:0,_ZSt11__addressofISt5tupleIJddEEEPT_RS2_
FNDA:0,_ZSt7forwardIRKSt5tupleIJiiEEEOT_RNSt16remove_referenceIS4_E4typeE
FNDA:0,_ZSt7forwardIRKSt5tupleIJS0_IJddEES1_S0_IJiiEEEEEOT_RNSt16remove_referenceIS6_E4typeE
FNDA:0,_ZSt7forwardIRKSt5tupleIJddEEEOT_RNSt16remove_referenceIS4_E4typeE
FNDA:0,_ZSt4moveIRSaIcEEONSt16remove_referenceIT_E4typeEOS3_
FNF:7
FNH:0
DA:47,0
DA:48,0
DA:74,0
DA:75,0
DA:99,0
DA:100,0
LF:6
LH:0
end_of_record
SF:/usr/include/c++/8/new
FN:168,_ZnwmPv
FNDA:0,_ZnwmPv
FNF:1
FNH:0
DA:168,0
DA:169,0
LF:2
LH:0
end_of_record
SF:/usr/include/c++/8/ext/new_allocator.h
FN:79,_ZN9__gnu_cxx13new_allocatorISt5tupleIJddEEEC2Ev
FN:79,_ZN9__gnu_cxx13new_allocatorIcEC2Ev
FN:79,_ZN9__gnu_cxx13new_allocatorISt5tupleIJiiEEEC2Ev
FN:81,_ZN9__gnu_cxx13new_allocatorISt5tupleIJddEEEC2ERKS3_
FN:81,_ZN9__gnu_cxx13new_allocatorIcEC2ERKS1_
FN:81,_ZN9__gnu_cxx13new_allocatorISt5tupleIJS1_IJddEES2_S1_IJiiEEEEEC2ERKS5_
FN:81,_ZN9__gnu_cxx13new_allocatorISt5tupleIJiiEEEC2ERKS3_
FN:86,_ZN9__gnu_cxx13new_allocatorISt5tupleIJS1_IJddEES2_S1_IJiiEEEEED2Ev
FN:86,_ZN9__gnu_cxx13new_allocatorIcED2Ev
FN:86,_ZN9__gnu_cxx13new_allocatorISt5tupleIJddEEED2Ev
FN:86,_ZN9__gnu_cxx13new_allocatorISt5tupleIJiiEEED2Ev
FN:99,_ZN9__gnu_cxx13new_allocatorISt5tupleIJS1_IJddEES2_S1_IJiiEEEEE8allocateEmPKv
FN:99,_ZN9__gnu_cxx13new_allocatorISt5tupleIJddEEE8allocateEmPKv
FN:99,_ZN9__gnu_cxx13new_allocatorISt5tupleIJiiEEE8allocateEmPKv
FN:116,_ZN9__gnu_cxx13new_allocatorISt5tupleIJddEEE10deallocateEPS2_m
FN:116,_ZN9__gnu_cxx13new_allocatorISt5tupleIJiiEEE10deallocateEPS2_m
FN:116,_ZN9__gnu_cxx13new_allocatorISt5tupleIJS1_IJddEES2_S1_IJiiEEEEE10deallocateEPS4_m
FN:129,_ZNK9__gnu_cxx13new_allocatorISt5tupleIJS1_IJddEES2_S1_IJiiEEEEE8max_sizeEv
FN:129,_ZNK9__gnu_cxx13new_allocatorISt5tupleIJiiEEE8max_sizeEv
FN:129,_ZNK9__gnu_cxx13new_allocatorISt5tupleIJddEEE8max_sizeEv
FNDA:0,_ZN9__gnu_cxx13new_allocatorISt5tupleIJiiEEEC2Ev
FNDA:0,_ZN9__gnu_cxx13new_allocatorISt5tupleIJddEEEC2Ev
FNDA:0,_ZN9__gnu_cxx13new_allocatorIcEC2Ev
FNDA:2,_ZN9__gnu_cxx13new_allocatorISt5tupleIJiiEEEC2ERKS3_
FNDA:0,_ZN9__gnu_cxx13new_allocatorISt5tupleIJS1_IJddEES2_S1_IJiiEEEEEC2ERKS5_
FNDA:0,_ZN9__gnu_cxx13new_allocatorISt5tupleIJddEEEC2ERKS3_
FNDA:0,_ZN9__gnu_cxx13new_allocatorIcEC2ERKS1_
FNDA:0,_ZN9__gnu_cxx13new_allocatorISt5tupleIJS1_IJddEES2_S1_IJiiEEEEED2Ev
FNDA:0,_ZN9__gnu_cxx13new_allocatorISt5tupleIJiiEEED2Ev
FNDA:0,_ZN9__gnu_cxx13new_allocatorISt5tupleIJddEEED2Ev
FNDA:0,_ZN9__gnu_cxx13new_allocatorIcED2Ev
FNDA:0,_ZN9__gnu_cxx13new_allocatorISt5tupleIJS1_IJddEES2_S1_IJiiEEEEE8allocateEmPKv
FNDA:0,_ZN9__gnu_cxx13new_allocatorISt5tupleIJiiEEE8allocateEmPKv
FNDA:0,_ZN9__gnu_cxx13new_allocatorISt5tupleIJddEEE8allocateEmPKv
FNDA:0,_ZN9__gnu_cxx13new_allocatorISt5tupleIJiiEEE10deallocateEPS2_m
FNDA:0,_ZN9__gnu_cxx13new_allocatorISt5tupleIJddEEE10deallocateEPS2_m
FNDA:0,_ZN9__gnu_cxx13new_allocatorISt5tupleIJS1_IJddEES2_S1_IJiiEEEEE10deallocateEPS4_m
FNDA:0,_ZNK9__gnu_cxx13new_allocatorISt5tupleIJS1_IJddEES2_S1_IJiiEEEEE8max_sizeEv
FNDA:0,_ZNK9__gnu_cxx13new_allocatorISt5tupleIJiiEEE8max_sizeEv
FNDA:0,_ZNK9__gnu_cxx13new_allocatorISt5tupleIJddEEE8max_sizeEv
FNF:20
FNH:1
DA:79,0
DA:81,2
DA:86,0
DA:99,0
DA:101,0
DA:102,0
DA:111,0
DA:116,0
DA:125,0
DA:126,0
DA:129,0
DA:130,0
LF:12
LH:1
end_of_record
SF:/usr/include/c++/8/bits/stl_algobase.h
FN:797,_ZNSt7__equalILb0EE5equalIPKSt5tupleIJiiEES5_EEbT_S6_T0_
FN:821,_ZSt11__equal_auxIPKSt5tupleIJiiEES3_EbT_S4_T0_
FN:1039,_ZSt5equalIN9__gnu_cxx17__normal_iteratorIPKSt5tupleIJiiEESt6vectorIS3_SaIS3_EEEES9_EbT_SA_T0_
FNDA:2,_ZNSt7__equalILb0EE5equalIPKSt5tupleIJiiEES5_EEbT_S6_T0_
FNDA:2,_ZSt11__equal_auxIPKSt5tupleIJiiEES3_EbT_S4_T0_
FNDA:2,_ZSt5equalIN9__gnu_cxx17__normal_iteratorIPKSt5tupleIJiiEESt6vectorIS3_SaIS3_EEEES9_EbT_SA_T0_
FNF:3
FNH:3
DA:797,10
DA:799,10
DA:800,8
DA:801,0
DA:802,2
DA:821,2
DA:825,2
DA:831,2
DA:1039,2
DA:1049,2
DA:1051,2
LF:11
LH:10
end_of_record
SF:/usr/include/c++/8/bits/stl_construct.h
FN:74,_ZSt10_ConstructISt5tupleIJddEEJRKS1_EEvPT_DpOT0_
FN:74,_ZSt10_ConstructISt5tupleIJS0_IJddEES1_S0_IJiiEEEEJRKS3_EEvPT_DpOT0_
FN:74,_ZSt10_ConstructISt5tupleIJiiEEJRKS1_EEvPT_DpOT0_
FN:117,_ZNSt12_Destroy_auxILb1EE9__destroyIPSt5tupleIJS2_IJddEES3_S2_IJiiEEEEEEvT_S7_
FN:117,_ZNSt12_Destroy_auxILb1EE9__destroyIPSt5tupleIJiiEEEEvT_S5_
FN:117,_ZNSt12_Destroy_auxILb1EE9__destroyIPSt5tupleIJddEEEEvT_S5_
FN:127,_ZSt8_DestroyIPSt5tupleIJddEEEvT_S3_
FN:127,_ZSt8_DestroyIPSt5tupleIJS0_IJddEES1_S0_IJiiEEEEEvT_S5_
FN:127,_ZSt8_DestroyIPSt5tupleIJiiEEEvT_S3_
FN:203,_ZSt8_DestroyIPSt5tupleIJS0_IJddEES1_S0_IJiiEEEES3_EvT_S5_RSaIT0_E
FN:203,_ZSt8_DestroyIPSt5tupleIJiiEES1_EvT_S3_RSaIT0_E
FN:203,_ZSt8_DestroyIPSt5tupleIJddEES1_EvT_S3_RSaIT0_E
FNDA:8,_ZSt10_ConstructISt5tupleIJiiEEJRKS1_EEvPT_DpOT0_
FNDA:0,_ZSt10_ConstructISt5tupleIJS0_IJddEES1_S0_IJiiEEEEJRKS3_EEvPT_DpOT0_
FNDA:0,_ZSt10_ConstructISt5tupleIJddEEJRKS1_EEvPT_DpOT0_
FNDA:0,_ZNSt12_Destroy_auxILb1EE9__destroyIPSt5tupleIJiiEEEEvT_S5_
FNDA:0,_ZNSt12_Destroy_auxILb1EE9__destroyIPSt5tupleIJddEEEEvT_S5_
FNDA:0,_ZNSt12_Destroy_auxILb1EE9__destroyIPSt5tupleIJS2_IJddEES3_S2_IJiiEEEEEEvT_S7_
FNDA:0,_ZSt8_DestroyIPSt5tupleIJiiEEEvT_S3_
FNDA:0,_ZSt8_DestroyIPSt5tupleIJddEEEvT_S3_
FNDA:0,_ZSt8_DestroyIPSt5tupleIJS0_IJddEES1_S0_IJiiEEEEEvT_S5_
FNDA:0,_ZSt8_DestroyIPSt5tupleIJiiEES1_EvT_S3_RSaIT0_E
FNDA:0,_ZSt8_DestroyIPSt5tupleIJddEES1_EvT_S3_RSaIT0_E
FNDA:0,_ZSt8_DestroyIPSt5tupleIJS0_IJddEES1_S0_IJiiEEEES3_EvT_S5_RSaIT0_E
FNF:12
FNH:1
DA:74,8
DA:75,8
DA:117,0
DA:127,0
DA:137,0
DA:138,0
DA:203,0
DA:206,0
DA:207,0
LF:9
LH:2
end_of_record
SF:/usr/include/c++/8/bits/stl_iterator.h
FN:783,_ZN9__gnu_cxx17__normal_iteratorIPKSt5tupleIJddEESt6vectorIS2_SaIS2_EEEC2ERKS4_
FN:783,_ZN9__gnu_cxx17__normal_iteratorIPKSt5tupleIJS1_IJddEES2_S1_IJiiEEEESt6vectorIS4_SaIS4_EEEC2ERKS6_
FN:783,_ZN9__gnu_cxx17__normal_iteratorIPKSt5tupleIJiiEESt6vectorIS2_SaIS2_EEEC2ERKS4_
FN:796,_ZNK9__gnu_cxx17__normal_iteratorIPKSt5tupleIJS1_IJddEES2_S1_IJiiEEEESt6vectorIS4_SaIS4_EEEdeEv
FN:796,_ZNK9__gnu_cxx17__normal_iteratorIPKSt5tupleIJddEESt6vectorIS2_SaIS2_EEEdeEv
FN:796,_ZNK9__gnu_cxx17__normal_iteratorIPKSt5tupleIJiiEESt6vectorIS2_SaIS2_EEEdeEv
FN:804,_ZN9__gnu_cxx17__normal_iteratorIPKSt5tupleIJiiEESt6vectorIS2_SaIS2_EEEppEv
FN:804,_ZN9__gnu_cxx17__normal_iteratorIPKSt5tupleIJS1_IJddEES2_S1_IJiiEEEESt6vectorIS4_SaIS4_EEEppEv
FN:804,_ZN9__gnu_cxx17__normal_iteratorIPKSt5tupleIJddEESt6vectorIS2_SaIS2_EEEppEv
FN:848,_ZNK9__gnu_cxx17__normal_iteratorIPKSt5tupleIJddEESt6vectorIS2_SaIS2_EEE4baseEv
FN:848,_ZNK9__gnu_cxx17__normal_iteratorIPKSt5tupleIJS1_IJddEES2_S1_IJiiEEEESt6vectorIS4_SaIS4_EEE4baseEv
FN:848,_ZNK9__gnu_cxx17__normal_iteratorIPKSt5tupleIJiiEESt6vectorIS2_SaIS2_EEE4baseEv
FN:884,_ZN9__gnu_cxxneIPKSt5tupleIJS1_IJddEES2_S1_IJiiEEEESt6vectorIS4_SaIS4_EEEEbRKNS_17__normal_iteratorIT_T0_EESF_
FN:884,_ZN9__gnu_cxxneIPKSt5tupleIJddEESt6vectorIS2_SaIS2_EEEEbRKNS_17__normal_iteratorIT_T0_EESD_
FN:884,_ZN9__gnu_cxxneIPKSt5tupleIJiiEESt6vectorIS2_SaIS2_EEEEbRKNS_17__normal_iteratorIT_T0_EESD_
FN:987,_ZSt12__niter_baseIPKSt5tupleIJiiEESt6vectorIS1_SaIS1_EEET_N9__gnu_cxx17__normal_iteratorIS7_T0_EE
FNDA:6,_ZN9__gnu_cxx17__normal_iteratorIPKSt5tupleIJiiEESt6vectorIS2_SaIS2_EEEC2ERKS4_
FNDA:0,_ZN9__gnu_cxx17__normal_iteratorIPKSt5tupleIJS1_IJddEES2_S1_IJiiEEEESt6vectorIS4_SaIS4_EEEC2ERKS6_
FNDA:0,_ZN9__gnu_cxx17__normal_iteratorIPKSt5tupleIJddEESt6vectorIS2_SaIS2_EEEC2ERKS4_
FNDA:0,_ZNK9__gnu_cxx17__normal_iteratorIPKSt5tupleIJiiEESt6vectorIS2_SaIS2_EEEdeEv
FNDA:0,_ZNK9__gnu_cxx17__normal_iteratorIPKSt5tupleIJS1_IJddEES2_S1_IJiiEEEESt6vectorIS4_SaIS4_EEEdeEv
FNDA:0,_ZNK9__gnu_cxx17__normal_iteratorIPKSt5tupleIJddEESt6vectorIS2_SaIS2_EEEdeEv
FNDA:0,_ZN9__gnu_cxx17__normal_iteratorIPKSt5tupleIJiiEESt6vectorIS2_SaIS2_EEEppEv
FNDA:0,_ZN9__gnu_cxx17__normal_iteratorIPKSt5tupleIJS1_IJddEES2_S1_IJiiEEEESt6vectorIS4_SaIS4_EEEppEv
FNDA:0,_ZN9__gnu_cxx17__normal_iteratorIPKSt5tupleIJddEESt6vectorIS2_SaIS2_EEEppEv
FNDA:6,_ZNK9__gnu_cxx17__normal_iteratorIPKSt5tupleIJiiEESt6vectorIS2_SaIS2_EEE4baseEv
FNDA:0,_ZNK9__gnu_cxx17__normal_iteratorIPKSt5tupleIJS1_IJddEES2_S1_IJiiEEEESt6vectorIS4_SaIS4_EEE4baseEv
FNDA:0,_ZNK9__gnu_cxx17__normal_iteratorIPKSt5tupleIJddEESt6vectorIS2_SaIS2_EEE4baseEv
FNDA:0,_ZN9__gnu_cxxneIPKSt5tupleIJiiEESt6vectorIS2_SaIS2_EEEEbRKNS_17__normal_iteratorIT_T0_EESD_
FNDA:0,_ZN9__gnu_cxxneIPKSt5tupleIJS1_IJddEES2_S1_IJiiEEEESt6vectorIS4_SaIS4_EEEEbRKNS_17__normal_iteratorIT_T0_EESF_
FNDA:0,_ZN9__gnu_cxxneIPKSt5tupleIJddEESt6vectorIS2_SaIS2_EEEEbRKNS_17__normal_iteratorIT_T0_EESD_
FNDA:6,_ZSt12__niter_baseIPKSt5tupleIJiiEESt6vectorIS1_SaIS1_EEET_N9__gnu_cxx17__normal_iteratorIS7_T0_EE
FNF:16
FNH:3
DA:783,6
DA:784,6
DA:796,0
DA:797,0
DA:804,0
DA:806,0
DA:807,0
DA:848,6
DA:849,6
DA:884,0
DA:887,0
DA:987,6
DA:988,6
LF:13
LH:6
end_of_record
SF:/usr/include/c++/8/bits/stl_iterator_base_funcs.h
FN:98,_ZSt10__distanceIPKSt5tupleIJiiEEENSt15iterator_traitsIT_E15difference_typeES5_S5_St26random_access_iterator_tag
FN:98,_ZSt10__distanceIPcENSt15iterator_traitsIT_E15difference_typeES2_S2_St26random_access_iterator_tag
FN:98,_ZSt10__distanceIPKSt5tupleIJddEEENSt15iterator_traitsIT_E15difference_typeES5_S5_St26random_access_iterator_tag
FN:98,_ZSt10__distanceIPKcENSt15iterator_traitsIT_E15difference_typeES3_S3_St26random_access_iterator_tag
FNDA:0,_ZSt10__distanceIPcENSt15iterator_traitsIT_E15difference_typeES2_S2_St26random_access_iterator_tag
FNDA:0,_ZSt10__distanceIPKcENSt15iterator_traitsIT_E15difference_typeES3_S3_St26random_access_iterator_tag
FNDA:2,_ZSt10__distanceIPKSt5tupleIJiiEEENSt15iterator_traitsIT_E15difference_typeES5_S5_St26random_access_iterator_tag
FNDA:0,_ZSt10__distanceIPKSt5tupleIJddEEENSt15iterator_traitsIT_E15difference_typeES5_S5_St26random_access_iterator_tag
FNF:4
FNH:1
DA:98,2
DA:104,2
DA:138,2
DA:141,2
DA:142,4
LF:5
LH:5
end_of_record
SF:/usr/include/c++/8/bits/stl_iterator_base_types.h
FN:205,_ZSt19__iterator_categoryIPcENSt15iterator_traitsIT_E17iterator_categoryERKS2_
FN:205,_ZSt19__iterator_categoryIPKSt5tupleIJddEEENSt15iterator_traitsIT_E17iterator_categoryERKS5_
FN:205,_ZSt19__iterator_categoryIPKcENSt15iterator_traitsIT_E17iterator_categoryERKS3_
FN:205,_ZSt19__iterator_categoryIPKSt5tupleIJiiEEENSt15iterator_traitsIT_E17iterator_categoryERKS5_
FNDA:0,_ZSt19__iterator_categoryIPcENSt15iterator_traitsIT_E17iterator_categoryERKS2_
FNDA:0,_ZSt19__iterator_categoryIPKcENSt15iterator_traitsIT_E17iterator_categoryERKS3_
FNDA:2,_ZSt19__iterator_categoryIPKSt5tupleIJiiEEENSt15iterator_traitsIT_E17iterator_categoryERKS5_
FNDA:0,_ZSt19__iterator_categoryIPKSt5tupleIJddEEENSt15iterator_traitsIT_E17iterator_categoryERKS5_
FNF:4
FNH:1
DA:205,2
DA:206,2
LF:2
LH:2
end_of_record
SF:/usr/include/c++/8/bits/stl_uninitialized.h
FN:76,_ZNSt20__uninitialized_copyILb0EE13__uninit_copyIN9__gnu_cxx17__normal_iteratorIPKSt5tupleIJddEESt6vectorIS5_SaIS5_EEEEPS5_EET0_T_SE_SD_
FN:76,_ZNSt20__uninitialized_copyILb0EE13__uninit_copyIPKSt5tupleIJddEEPS3_EET0_T_S8_S7_
FN:76,_ZNSt20__uninitialized_copyILb0EE13__uninit_copyIN9__gnu_cxx17__normal_iteratorIPKSt5tupleIJS4_IJddEES5_S4_IJiiEEEESt6vectorIS7_SaIS7_EEEEPS7_EET0_T_SG_SF_
FN:76,_ZNSt20__uninitialized_copyILb0EE13__uninit_copyIPKSt5tupleIJiiEEPS3_EET0_T_S8_S7_
FN:115,_ZSt18uninitialized_copyIN9__gnu_cxx17__normal_iteratorIPKSt5tupleIJS2_IJddEES3_S2_IJiiEEEESt6vectorIS5_SaIS5_EEEEPS5_ET0_T_SE_SD_
FN:115,_ZSt18uninitialized_copyIN9__gnu_cxx17__normal_iteratorIPKSt5tupleIJddEESt6vectorIS3_SaIS3_EEEEPS3_ET0_T_SC_SB_
FN:115,_ZSt18uninitialized_copyIPKSt5tupleIJiiEEPS1_ET0_T_S6_S5_
FN:115,_ZSt18uninitialized_copyIPKSt5tupleIJddEEPS1_ET0_T_S6_S5_
FN:287,_ZSt22__uninitialized_copy_aIN9__gnu_cxx17__normal_iteratorIPKSt5tupleIJddEESt6vectorIS3_SaIS3_EEEEPS3_S3_ET0_T_SC_SB_RSaIT1_E
FN:287,_ZSt22__uninitialized_copy_aIN9__gnu_cxx17__normal_iteratorIPKSt5tupleIJS2_IJddEES3_S2_IJiiEEEESt6vectorIS5_SaIS5_EEEEPS5_S5_ET0_T_SE_SD_RSaIT1_E
FN:287,_ZSt22__uninitialized_copy_aIPKSt5tupleIJddEEPS1_S1_ET0_T_S6_S5_RSaIT1_E
FN:287,_ZSt22__uninitialized_copy_aIPKSt5tupleIJiiEEPS1_S1_ET0_T_S6_S5_RSaIT1_E
FNDA:2,_ZNSt20__uninitialized_copyILb0EE13__uninit_copyIPKSt5tupleIJiiEEPS3_EET0_T_S8_S7_
FNDA:0,_ZNSt20__uninitialized_copyILb0EE13__uninit_copyIPKSt5tupleIJddEEPS3_EET0_T_S8_S7_
FNDA:0,_ZNSt20__uninitialized_copyILb0EE13__uninit_copyIN9__gnu_cxx17__normal_iteratorIPKSt5tupleIJS4_IJddEES5_S4_IJiiEEEESt6vectorIS7_SaIS7_EEEEPS7_EET0_T_SG_SF_
FNDA:0,_ZNSt20__uninitialized_copyILb0EE13__uninit_copyIN9__gnu_cxx17__normal_iteratorIPKSt5tupleIJddEESt6vectorIS5_SaIS5_EEEEPS5_EET0_T_SE_SD_
FNDA:2,_ZSt18uninitialized_copyIPKSt5tupleIJiiEEPS1_ET0_T_S6_S5_
FNDA:0,_ZSt18uninitialized_copyIPKSt5tupleIJddEEPS1_ET0_T_S6_S5_
FNDA:0,_ZSt18uninitialized_copyIN9__gnu_cxx17__normal_iteratorIPKSt5tupleIJS2_IJddEES3_S2_IJiiEEEESt6vectorIS5_SaIS5_EEEEPS5_ET0_T_SE_SD_
FNDA:0,_ZSt18uninitialized_copyIN9__gnu_cxx17__normal_iteratorIPKSt5tupleIJddEESt6vectorIS3_SaIS3_EEEEPS3_ET0_T_SC_SB_
FNDA:2,_ZSt22__uninitialized_copy_aIPKSt5tupleIJiiEEPS1_S1_ET0_T_S6_S5_RSaIT1_E
FNDA:0,_ZSt22__uninitialized_copy_aIPKSt5tupleIJddEEPS1_S1_ET0_T_S6_S5_RSaIT1_E
FNDA:0,_ZSt22__uninitialized_copy_aIN9__gnu_cxx17__normal_iteratorIPKSt5tupleIJS2_IJddEES3_S2_IJiiEEEESt6vectorIS5_SaIS5_EEEEPS5_S5_ET0_T_SE_SD_RSaIT1_E
FNDA:0,_ZSt22__uninitialized_copy_aIN9__gnu_cxx17__normal_iteratorIPKSt5tupleIJddEESt6vectorIS3_SaIS3_EEEEPS3_S3_ET0_T_SC_SB_RSaIT1_E
FNF:12
FNH:3
DA:76,2
DA:79,2
DA:82,10
DA:83,8
DA:84,2
DA:86,0
DA:88,0
DA:89,0
DA:115,2
DA:128,2
DA:134,2
DA:287,2
DA:289,2
LF:13
LH:10
end_of_record
SF:/usr/include/c++/8/bits/stl_vector.h
FN:95,_ZNSt12_Vector_baseISt5tupleIJddEESaIS1_EE12_Vector_implC2Ev
FN:99,_ZNSt12_Vector_baseISt5tupleIJddEESaIS1_EE12_Vector_implC2ERKS2_
FN:99,_ZNSt12_Vector_baseISt5tupleIJiiEESaIS1_EE12_Vector_implC2ERKS2_
FN:99,_ZNSt12_Vector_baseISt5tupleIJS0_IJddEES1_S0_IJiiEEEESaIS3_EE12_Vector_implC2ERKS4_
FN:237,_ZNSt12_Vector_baseISt5tupleIJiiEESaIS1_EE19_M_get_Tp_allocatorEv
FN:237,_ZNSt12_Vector_baseISt5tupleIJddEESaIS1_EE19_M_get_Tp_allocatorEv
FN:237,_ZNSt12_Vector_baseISt5tupleIJS0_IJddEES1_S0_IJiiEEEESaIS3_EE19_M_get_Tp_allocatorEv
FN:241,_ZNKSt12_Vector_baseISt5tupleIJS0_IJddEES1_S0_IJiiEEEESaIS3_EE19_M_get_Tp_allocatorEv
FN:241,_ZNKSt12_Vector_baseISt5tupleIJddEESaIS1_EE19_M_get_Tp_allocatorEv
FN:248,_ZNSt12_Vector_baseISt5tupleIJddEESaIS1_EEC2Ev
FN:251,_ZNSt12_Vector_baseISt5tupleIJddEESaIS1_EEC2ERKS2_
FN:251,_ZNSt12_Vector_baseISt5tupleIJiiEESaIS1_EEC2ERKS2_
FN:258,_ZNSt12_Vector_baseISt5tupleIJS0_IJddEES1_S0_IJiiEEEESaIS3_EEC2EmRKS4_
FN:258,_ZNSt12_Vector_baseISt5tupleIJddEESaIS1_EEC2EmRKS2_
FN:283,_ZNSt12_Vector_baseISt5tupleIJddEESaIS1_EED2Ev
FN:283,_ZNSt12_Vector_baseISt5tupleIJS0_IJddEES1_S0_IJiiEEEESaIS3_EED2Ev
FN:283,_ZNSt12_Vector_baseISt5tupleIJiiEESaIS1_EED2Ev
FN:293,_ZNSt12_Vector_baseISt5tupleIJddEESaIS1_EE11_M_allocateEm
FN:293,_ZNSt12_Vector_baseISt5tupleIJS0_IJddEES1_S0_IJiiEEEESaIS3_EE11_M_allocateEm
FN:293,_ZNSt12_Vector_baseISt5tupleIJiiEESaIS1_EE11_M_allocateEm
FN:300,_ZNSt12_Vector_baseISt5tupleIJiiEESaIS1_EE13_M_deallocateEPS1_m
FN:300,_ZNSt12_Vector_baseISt5tupleIJS0_IJddEES1_S0_IJiiEEEESaIS3_EE13_M_deallocateEPS3_m
FN:300,_ZNSt12_Vector_baseISt5tupleIJddEESaIS1_EE13_M_deallocateEPS1_m
FN:309,_ZNSt12_Vector_baseISt5tupleIJddEESaIS1_EE17_M_create_storageEm
FN:309,_ZNSt12_Vector_baseISt5tupleIJS0_IJddEES1_S0_IJiiEEEESaIS3_EE17_M_create_storageEm
FN:391,_ZNSt6vectorISt5tupleIJddEESaIS1_EEC2Ev
FN:458,_ZNSt6vectorISt5tupleIJS0_IJddEES1_S0_IJiiEEEESaIS3_EEC2ERKS5_
FN:458,_ZNSt6vectorISt5tupleIJddEESaIS1_EEC2ERKS3_
FN:515,_ZNSt6vectorISt5tupleIJddEESaIS1_EEC2ESt16initializer_listIS1_ERKS2_
FN:515,_ZNSt6vectorISt5tupleIJiiEESaIS1_EEC2ESt16initializer_listIS1_ERKS2_
FN:565,_ZNSt6vectorISt5tupleIJS0_IJddEES1_S0_IJiiEEEESaIS3_EED2Ev
FN:565,_ZNSt6vectorISt5tupleIJddEESaIS1_EED2Ev
FN:565,_ZNSt6vectorISt5tupleIJiiEESaIS1_EED2Ev
FN:707,_ZNKSt6vectorISt5tupleIJiiEESaIS1_EE5beginEv
FN:707,_ZNKSt6vectorISt5tupleIJS0_IJddEES1_S0_IJiiEEEESaIS3_EE5beginEv
FN:707,_ZNKSt6vectorISt5tupleIJddEESaIS1_EE5beginEv
FN:725,_ZNKSt6vectorISt5tupleIJiiEESaIS1_EE3endEv
FN:725,_ZNKSt6vectorISt5tupleIJddEESaIS1_EE3endEv
FN:725,_ZNKSt6vectorISt5tupleIJS0_IJddEES1_S0_IJiiEEEESaIS3_EE3endEv
FN:805,_ZNKSt6vectorISt5tupleIJiiEESaIS1_EE4sizeEv
FN:805,_ZNKSt6vectorISt5tupleIJddEESaIS1_EE4sizeEv
FN:805,_ZNKSt6vectorISt5tupleIJS0_IJddEES1_S0_IJiiEEEESaIS3_EE4sizeEv
FN:1462,_ZNSt6vectorISt5tupleIJddEESaIS1_EE19_M_range_initializeIPKS1_EEvT_S7_St20forward_iterator_tag
FN:1462,_ZNSt6vectorISt5tupleIJiiEESaIS1_EE19_M_range_initializeIPKS1_EEvT_S7_St20forward_iterator_tag
FN:1753,_ZSteqISt5tupleIJiiEESaIS1_EEbRKSt6vectorIT_T0_ES8_
FNDA:0,_ZNSt12_Vector_baseISt5tupleIJddEESaIS1_EE12_Vector_implC2Ev
FNDA:2,_ZNSt12_Vector_baseISt5tupleIJiiEESaIS1_EE12_Vector_implC2ERKS2_
FNDA:0,_ZNSt12_Vector_baseISt5tupleIJS0_IJddEES1_S0_IJiiEEEESaIS3_EE12_Vector_implC2ERKS4_
FNDA:0,_ZNSt12_Vector_baseISt5tupleIJddEESaIS1_EE12_Vector_implC2ERKS2_
FNDA:0,_ZNSt12_Vector_baseISt5tupleIJiiEESaIS1_EE19_M_get_Tp_allocatorEv
FNDA:0,_ZNSt12_Vector_baseISt5tupleIJddEESaIS1_EE19_M_get_Tp_allocatorEv
FNDA:0,_ZNSt12_Vector_baseISt5tupleIJS0_IJddEES1_S0_IJiiEEEESaIS3_EE19_M_get_Tp_allocatorEv
FNDA:0,_ZNKSt12_Vector_baseISt5tupleIJS0_IJddEES1_S0_IJiiEEEESaIS3_EE19_M_get_Tp_allocatorEv
FNDA:0,_ZNKSt12_Vector_baseISt5tupleIJddEESaIS1_EE19_M_get_Tp_allocatorEv
FNDA:0,_ZNSt12_Vector_baseISt5tupleIJddEESaIS1_EEC2Ev
FNDA:2,_ZNSt12_Vector_baseISt5tupleIJiiEESaIS1_EEC2ERKS2_
FNDA:0,_ZNSt12_Vector_baseISt5tupleIJddEESaIS1_EEC2ERKS2_
FNDA:0,_ZNSt12_Vector_baseISt5tupleIJS0_IJddEES1_S0_IJiiEEEESaIS3_EEC2EmRKS4_
FNDA:0,_ZNSt12_Vector_baseISt5tupleIJddEESaIS1_EEC2EmRKS2_
FNDA:0,_ZNSt12_Vector_baseISt5tupleIJiiEESaIS1_EED2Ev
FNDA:0,_ZNSt12_Vector_baseISt5tupleIJddEESaIS1_EED2Ev
FNDA:0,_ZNSt12_Vector_baseISt5tupleIJS0_IJddEES1_S0_IJiiEEEESaIS3_EED2Ev
FNDA:0,_ZNSt12_Vector_baseISt5tupleIJS0_IJddEES1_S0_IJiiEEEESaIS3_EE11_M_allocateEm
FNDA:0,_ZNSt12_Vector_baseISt5tupleIJiiEESaIS1_EE11_M_allocateEm
FNDA:0,_ZNSt12_Vector_baseISt5tupleIJddEESaIS1_EE11_M_allocateEm
FNDA:0,_ZNSt12_Vector_baseISt5tupleIJiiEESaIS1_EE13_M_deallocateEPS1_m
FNDA:0,_ZNSt12_Vector_baseISt5tupleIJddEESaIS1_EE13_M_deallocateEPS1_m
FNDA:0,_ZNSt12_Vector_baseISt5tupleIJS0_IJddEES1_S0_IJiiEEEESaIS3_EE13_M_deallocateEPS3_m
FNDA:0,_ZNSt12_Vector_baseISt5tupleIJS0_IJddEES1_S0_IJiiEEEESaIS3_EE17_M_create_storageEm
FNDA:0,_ZNSt12_Vector_baseISt5tupleIJddEESaIS1_EE17_M_create_storageEm
FNDA:0,_ZNSt6vectorISt5tupleIJddEESaIS1_EEC2Ev
FNDA:0,_ZNSt6vectorISt5tupleIJS0_IJddEES1_S0_IJiiEEEESaIS3_EEC2ERKS5_
FNDA:0,_ZNSt6vectorISt5tupleIJddEESaIS1_EEC2ERKS3_
FNDA:2,_ZNSt6vectorISt5tupleIJiiEESaIS1_EEC2ESt16initializer_listIS1_ERKS2_
FNDA:0,_ZNSt6vectorISt5tupleIJddEESaIS1_EEC2ESt16initializer_listIS1_ERKS2_
FNDA:0,_ZNSt6vectorISt5tupleIJiiEESaIS1_EED2Ev
FNDA:0,_ZNSt6vectorISt5tupleIJddEESaIS1_EED2Ev
FNDA:0,_ZNSt6vectorISt5tupleIJS0_IJddEES1_S0_IJiiEEEESaIS3_EED2Ev
FNDA:4,_ZNKSt6vectorISt5tupleIJiiEESaIS1_EE5beginEv
FNDA:0,_ZNKSt6vectorISt5tupleIJS0_IJddEES1_S0_IJiiEEEESaIS3_EE5beginEv
FNDA:0,_ZNKSt6vectorISt5tupleIJddEESaIS1_EE5beginEv
FNDA:2,_ZNKSt6vectorISt5tupleIJiiEESaIS1_EE3endEv
FNDA:0,_ZNKSt6vectorISt5tupleIJS0_IJddEES1_S0_IJiiEEEESaIS3_EE3endEv
FNDA:0,_ZNKSt6vectorISt5tupleIJddEESaIS1_EE3endEv
FNDA:0,_ZNKSt6vectorISt5tupleIJS0_IJddEES1_S0_IJiiEEEESaIS3_EE4sizeEv
FNDA:0,_ZNKSt6vectorISt5tupleIJddEESaIS1_EE4sizeEv
FNDA:0,_ZNKSt6vectorISt5tupleIJiiEESaIS1_EE4sizeEv
FNDA:2,_ZNSt6vectorISt5tupleIJiiEESaIS1_EE19_M_range_initializeIPKS1_EEvT_S7_St20forward_iterator_tag
FNDA:0,_ZNSt6vectorISt5tupleIJddEESaIS1_EE19_M_range_initializeIPKS1_EEvT_S7_St20forward_iterator_tag
FNDA:2,_ZSteqISt5tupleIJiiEESaIS1_EEbRKSt6vectorIT_T0_ES8_
FNF:45
FNH:7
DA:95,0
DA:96,0
DA:97,0
DA:99,2
DA:100,2
DA:101,2
DA:237,0
DA:238,0
DA:241,0
DA:242,0
DA:248,0
DA:249,0
DA:251,2
DA:252,2
DA:258,0
DA:259,0
DA:260,0
DA:283,0
DA:285,0
DA:286,0
DA:287,0
DA:293,0
DA:296,0
DA:300,0
DA:303,0
DA:304,0
DA:305,0
DA:309,0
DA:311,0
DA:312,0
DA:313,0
DA:314,0
DA:391,0
DA:395,0
DA:458,0
DA:460,0
DA:462,0
DA:463,0
DA:465,0
DA:466,0
DA:515,2
DA:517,2
DA:519,2
DA:521,2
DA:565,0
DA:567,0
DA:568,0
DA:570,0
DA:707,4
DA:708,4
DA:725,2
DA:726,2
DA:805,0
DA:806,0
DA:1462,2
DA:1465,2
DA:1466,2
DA:1467,2
DA:1468,2
DA:1469,2
DA:1471,2
DA:1472,2
DA:1753,2
DA:1754,2
DA:1755,2
LF:65
LH:24
end_of_record
SF:/usr/include/c++/8/tuple
FN:160,_ZNSt10_Head_baseILm0EdLb0EE7_M_headERS0_
FN:160,_ZNSt10_Head_baseILm1EdLb0EE7_M_headERS0_
FN:163,_ZNSt10_Head_baseILm0EiLb0EE7_M_headERKS0_
FN:163,_ZNSt10_Head_baseILm1EiLb0EE7_M_headERKS0_
FN:195,_ZNSt11_Tuple_implILm0EJddEE7_M_headERS0_
FN:198,_ZNSt11_Tuple_implILm0EJiiEE7_M_headERKS0_
FN:351,_ZNSt11_Tuple_implILm1EJdEE7_M_headERS0_
FN:354,_ZNSt11_Tuple_implILm1EJiEE7_M_headERKS0_
FN:1303,_ZSt12__get_helperILm0EdJdEERT0_RSt11_Tuple_implIXT_EJS0_DpT1_EE
FN:1303,_ZSt12__get_helperILm1EdJEERT0_RSt11_Tuple_implIXT_EJS0_DpT1_EE
FN:1308,_ZSt12__get_helperILm1EiJEERKT0_RKSt11_Tuple_implIXT_EJS0_DpT1_EE
FN:1308,_ZSt12__get_helperILm0EiJiEERKT0_RKSt11_Tuple_implIXT_EJS0_DpT1_EE
FN:1314,_ZSt3getILm1EJddEERNSt13tuple_elementIXT_ESt5tupleIJDpT0_EEE4typeERS4_
FN:1314,_ZSt3getILm0EJddEERNSt13tuple_elementIXT_ESt5tupleIJDpT0_EEE4typeERS4_
FN:1320,_ZSt3getILm1EJiiEERKNSt13tuple_elementIXT_ESt5tupleIJDpT0_EEE4typeERKS4_
FN:1320,_ZSt3getILm0EJiiEERKNSt13tuple_elementIXT_ESt5tupleIJDpT0_EEE4typeERKS4_
FN:1386,_ZNSt15__tuple_compareISt5tupleIJiiEES1_Lm0ELm2EE4__eqERKS1_S4_
FN:1386,_ZNSt15__tuple_compareISt5tupleIJiiEES1_Lm1ELm2EE4__eqERKS1_S4_
FN:1405,_ZNSt15__tuple_compareISt5tupleIJiiEES1_Lm2ELm2EE4__eqERKS1_S4_
FN:1413,_ZSteqIJiiEJiiEEbRKSt5tupleIJDpT_EERKS0_IJDpT0_EE
FNDA:0,_ZNSt10_Head_baseILm0EdLb0EE7_M_headERS0_
FNDA:0,_ZNSt10_Head_baseILm1EdLb0EE7_M_headERS0_
FNDA:16,_ZNSt10_Head_baseILm1EiLb0EE7_M_headERKS0_
FNDA:16,_ZNSt10_Head_baseILm0EiLb0EE7_M_headERKS0_
FNDA:0,_ZNSt11_Tuple_implILm0EJddEE7_M_headERS0_
FNDA:16,_ZNSt11_Tuple_implILm0EJiiEE7_M_headERKS0_
FNDA:0,_ZNSt11_Tuple_implILm1EJdEE7_M_headERS0_
FNDA:16,_ZNSt11_Tuple_implILm1EJiEE7_M_headERKS0_
FNDA:0,_ZSt12__get_helperILm1EdJEERT0_RSt11_Tuple_implIXT_EJS0_DpT1_EE
FNDA:0,_ZSt12__get_helperILm0EdJdEERT0_RSt11_Tuple_implIXT_EJS0_DpT1_EE
FNDA:16,_ZSt12__get_helperILm1EiJEERKT0_RKSt11_Tuple_implIXT_EJS0_DpT1_EE
FNDA:16,_ZSt12__get_helperILm0EiJiEERKT0_RKSt11_Tuple_implIXT_EJS0_DpT1_EE
FNDA:0,_ZSt3getILm1EJddEERNSt13tuple_elementIXT_ESt5tupleIJDpT0_EEE4typeERS4_
FNDA:0,_ZSt3getILm0EJddEERNSt13tuple_elementIXT_ESt5tupleIJDpT0_EEE4typeERS4_
FNDA:16,_ZSt3getILm1EJiiEERKNSt13tuple_elementIXT_ESt5tupleIJDpT0_EEE4typeERKS4_
FNDA:16,_ZSt3getILm0EJiiEERKNSt13tuple_elementIXT_ESt5tupleIJDpT0_EEE4typeERKS4_
FNDA:8,_ZNSt15__tuple_compareISt5tupleIJiiEES1_Lm1ELm2EE4__eqERKS1_S4_
FNDA:8,_ZNSt15__tuple_compareISt5tupleIJiiEES1_Lm0ELm2EE4__eqERKS1_S4_
FNDA:8,_ZNSt15__tuple_compareISt5tupleIJiiEES1_Lm2ELm2EE4__eqERKS1_S4_
FNDA:8,_ZSteqIJiiEJiiEEbRKSt5tupleIJDpT_EERKS0_IJDpT0_EE
FNF:20
FNH:12
DA:160,0
DA:163,32
DA:195,0
DA:198,16
DA:351,0
DA:354,16
DA:1303,0
DA:1304,0
DA:1308,32
DA:1309,32
DA:1314,0
DA:1315,0
DA:1320,32
DA:1321,32
DA:1386,16
DA:1388,16
DA:1389,16
DA:1405,8
DA:1413,8
DA:1421,8
LF:20
LH:13
end_of_record
SF:/usr/include/c++/8/ext/type_traits.h
FN:152,_ZN9__gnu_cxx17__is_null_pointerIKcEEbPT_
FN:152,_ZN9__gnu_cxx17__is_null_pointerIcEEbPT_
FNDA:0,_ZN9__gnu_cxx17__is_null_pointerIcEEbPT_
FNDA:0,_ZN9__gnu_cxx17__is_null_pointerIKcEEbPT_
FNF:2
FNH:0
DA:152,0
DA:153,0
LF:2
LH:0
end_of_record
TN:
SF:/usr/include/c++/8/bits/alloc_traits.h
FN:435,_ZNSt16allocator_traitsISaIiEE8allocateERS0_m
FN:435,_ZNSt16allocator_traitsISaISt5tupleIJdS0_IJddEEEEEE8allocateERS3_m
FN:435,_ZNSt16allocator_traitsISaISt5tupleIJddEEEE8allocateERS2_m
FN:461,_ZNSt16allocator_traitsISaISt5tupleIJddEEEE10deallocateERS2_PS1_m
FN:461,_ZNSt16allocator_traitsISaIiEE10deallocateERS0_Pim
FN:461,_ZNSt16allocator_traitsISaISt5tupleIJdS0_IJddEEEEEE10deallocateERS3_PS2_m
FN:474,_ZNSt16allocator_traitsISaISt5tupleIJdS0_IJddEEEEEE9constructIS2_JS2_EEEvRS3_PT_DpOT0_
FN:486,_ZNSt16allocator_traitsISaISt5tupleIJdS0_IJddEEEEEE7destroyIS2_EEvRS3_PT_
FN:495,_ZNSt16allocator_traitsISaISt5tupleIJdS0_IJddEEEEEE8max_sizeERKS3_
FN:504,_ZNSt16allocator_traitsISaISt5tupleIJddEEEE37select_on_container_copy_constructionERKS2_
FN:504,_ZNSt16allocator_traitsISaIcEE37select_on_container_copy_constructionERKS0_
FN:504,_ZNSt16allocator_traitsISaISt5tupleIJdS0_IJddEEEEEE37select_on_container_copy_constructionERKS3_
FNDA:122,_ZNSt16allocator_traitsISaIiEE8allocateERS0_m
FNDA:0,_ZNSt16allocator_traitsISaISt5tupleIJdS0_IJddEEEEEE8allocateERS3_m
FNDA:0,_ZNSt16allocator_traitsISaISt5tupleIJddEEEE8allocateERS2_m
FNDA:122,_ZNSt16allocator_traitsISaIiEE10deallocateERS0_Pim
FNDA:0,_ZNSt16allocator_traitsISaISt5tupleIJdS0_IJddEEEEEE10deallocateERS3_PS2_m
FNDA:0,_ZNSt16allocator_traitsISaISt5tupleIJddEEEE10deallocateERS2_PS1_m
FNDA:168,_ZNSt16allocator_traitsISaISt5tupleIJdS0_IJddEEEEEE9constructIS2_JS2_EEEvRS3_PT_DpOT0_
FNDA:0,_ZNSt16allocator_traitsISaISt5tupleIJdS0_IJddEEEEEE7destroyIS2_EEvRS3_PT_
FNDA:180,_ZNSt16allocator_traitsISaISt5tupleIJdS0_IJddEEEEEE8max_sizeERKS3_
FNDA:0,_ZNSt16allocator_traitsISaISt5tupleIJddEEEE37select_on_container_copy_constructionERKS2_
FNDA:0,_ZNSt16allocator_traitsISaISt5tupleIJdS0_IJddEEEEEE37select_on_container_copy_constructionERKS3_
FNDA:0,_ZNSt16allocator_traitsISaIcEE37select_on_container_copy_constructionERKS0_
FNF:12
FNH:4
DA:435,122
DA:436,122
DA:461,122
DA:462,122
DA:474,168
DA:475,168
DA:486,0
DA:487,0
DA:495,180
DA:496,180
DA:504,0
DA:505,0
LF:12
LH:8
end_of_record
SF:/usr/include/c++/8/ext/alloc_traits.h
FN:94,_ZN9__gnu_cxx14__alloc_traitsISaISt5tupleIJddEEES2_E17_S_select_on_copyERKS3_
FN:94,_ZN9__gnu_cxx14__alloc_traitsISaISt5tupleIJdS1_IJddEEEEES3_E17_S_select_on_copyERKS4_
FN:94,_ZN9__gnu_cxx14__alloc_traitsISaIcEcE17_S_select_on_copyERKS1_
FNDA:0,_ZN9__gnu_cxx14__alloc_traitsISaISt5tupleIJddEEES2_E17_S_select_on_copyERKS3_
FNDA:0,_ZN9__gnu_cxx14__alloc_traitsISaISt5tupleIJdS1_IJddEEEEES3_E17_S_select_on_copyERKS4_
FNDA:0,_ZN9__gnu_cxx14__alloc_traitsISaIcEcE17_S_select_on_copyERKS1_
FNF:3
FNH:0
DA:94,0
DA:95,0
LF:2
LH:0
end_of_record
SF:/usr/include/c++/8/bits/allocator.h
FN:131,_ZNSaISt5tupleIJddEEEC2Ev
FN:131,_ZNSaISt5tupleIJdS_IJddEEEEEC2Ev
FN:131,_ZNSaIiEC2Ev
FN:133,_ZNSaIiEC2ERKS_
FN:133,_ZNSaISt5tupleIJdS_IJddEEEEEC2ERKS2_
FN:133,_ZNSaISt5tupleIJddEEEC2ERKS1_
FN:139,_ZNSaIiED2Ev
FN:139,_ZNSaISt5tupleIJdS_IJddEEEEED2Ev
FN:139,_ZNSaISt5tupleIJddEEED2Ev
FNDA:0,_ZNSaISt5tupleIJdS_IJddEEEEEC2Ev
FNDA:48,_ZNSaIiEC2Ev
FNDA:0,_ZNSaISt5tupleIJddEEEC2Ev
FNDA:42,_ZNSaIiEC2ERKS_
FNDA:0,_ZNSaISt5tupleIJddEEEC2ERKS1_
FNDA:0,_ZNSaISt5tupleIJdS_IJddEEEEEC2ERKS2_
FNDA:0,_ZNSaISt5tupleIJdS_IJddEEEEED2Ev
FNDA:90,_ZNSaIiED2Ev
FNDA:0,_ZNSaISt5tupleIJddEEED2Ev
FNF:9
FNH:3
DA:131,48
DA:133,42
DA:134,42
DA:139,90
LF:4
LH:4
end_of_record
SF:/usr/include/c++/8/bits/basic_string.h
FN:232,_ZNSt7__cxx1112basic_stringIcSt11char_traitsIcESaIcEE16_M_construct_auxIPKcEEvT_S8_St12__false_type
FN:232,_ZNSt7__cxx1112basic_stringIcSt11char_traitsIcESaIcEE16_M_construct_auxIPcEEvT_S7_St12__false_type
FN:252,_ZNSt7__cxx1112basic_stringIcSt11char_traitsIcESaIcEE12_M_constructIPKcEEvT_S8_
FN:252,_ZNSt7__cxx1112basic_stringIcSt11char_traitsIcESaIcEE12_M_constructIPcEEvT_S7_
FNDA:0,_ZNSt7__cxx1112basic_stringIcSt11char_traitsIcESaIcEE16_M_construct_auxIPcEEvT_S7_St12__false_type
FNDA:0,_ZNSt7__cxx1112basic_stringIcSt11char_traitsIcESaIcEE16_M_construct_auxIPKcEEvT_S8_St12__false_type
FNDA:0,_ZNSt7__cxx1112basic_stringIcSt11char_traitsIcESaIcEE12_M_constructIPcEEvT_S7_
FNDA:0,_ZNSt7__cxx1112basic_stringIcSt11char_traitsIcESaIcEE12_M_constructIPKcEEvT_S8_
FNF:4
FNH:0
DA:232,0
DA:236,0
DA:237,0
DA:252,0
DA:255,0
DA:256,0
LF:6
LH:0
end_of_record
SF:/usr/include/c++/8/bits/basic_string.tcc
FN:206,_ZNSt7__cxx1112basic_stringIcSt11char_traitsIcESaIcEE12_M_constructIPcEEvT_S7_St20forward_iterator_tag
FN:206,_ZNSt7__cxx1112basic_stringIcSt11char_traitsIcESaIcEE12_M_constructIPKcEEvT_S8_St20forward_iterator_tag
FNDA:0,_ZNSt7__cxx1112basic_stringIcSt11char_traitsIcESaIcEE12_M_constructIPcEEvT_S7_St20forward_iterator_tag
FNDA:0,_ZNSt7__cxx1112basic_stringIcSt11char_traitsIcESaIcEE12_M_constructIPKcEEvT_S8_St20forward_iterator_tag
FNF:2
FNH:0
DA:206,0
DA:211,0
DA:212,0
DA:215,0
DA:217,0
DA:219,0
DA:220,0
DA:225,0
DA:226,0
DA:228,0
DA:229,0
DA:232,0
DA:233,0
LF:13
LH:0
end_of_record
SF:/usr/include/c++/8/bits/char_traits.h
FN:316,_ZNSt11char_traitsIcE6lengthEPKc
FNDA:0,_ZNSt11char_traitsIcE6lengthEPKc
FNF:1
FNH:0
DA:316,0
DA:322,0
LF:2
LH:0
end_of_record
SF:/home/leito-chan/Downloads/TPI/transporteUrbano/lib/googletest-master/googletest/include/gtest/internal/gtest-internal.h
FN:466,_ZN7testing8internal15TestFactoryBaseD2Ev
FN:466,_ZN7testing8internal15TestFactoryBaseD0Ev
FN:473,_ZN7testing8internal15TestFactoryBaseC2Ev
FN:484,_ZN7testing8internal15TestFactoryImplI43recorridoNoCubiertoTEST_recorridoVacio_TestE10CreateTestEv
FN:484,_ZN7testing8internal15TestFactoryImplI66recorridoNoCubiertoTEST_viajeConImperfeccionesMayoresAlUmbral_TestE10CreateTestEv
FN:484,_ZN7testing8internal15TestFactoryImplI42recorridoNoCubiertoTEST_viajeMasLargo_TestE10CreateTestEv
FN:484,_ZN7testing8internal15TestFactoryImplI42recorridoNoCubiertoTEST_viajeMasCorto_TestE10CreateTestEv
FN:484,_ZN7testing8internal15TestFactoryImplI66recorridoNoCubiertoTEST_viajeConImperfeccionesMenoresAlUmbral_TestE10CreateTestEv
FN:484,_ZN7testing8internal15TestFactoryImplI42recorridoNoCubiertoTEST_viajeTramposo_TestE10CreateTestEv
FN:484,_ZN7testing8internal15TestFactoryImplI42recorridoNoCubiertoTEST_viajePerfecto_TestE10CreateTestEv
FN:505,_ZN7testing8internal12CodeLocationC2ERKNSt7__cxx1112basic_stringIcSt11char_traitsIcESaIcEEEi
FNDA:0,_ZN7testing8internal15TestFactoryBaseD0Ev
FNDA:0,_ZN7testing8internal15TestFactoryBaseD2Ev
FNDA:0,_ZN7testing8internal15TestFactoryBaseC2Ev
FNDA:2,_ZN7testing8internal15TestFactoryImplI42recorridoNoCubiertoTEST_viajePerfecto_TestE10CreateTestEv
FNDA:2,_ZN7testing8internal15TestFactoryImplI66recorridoNoCubiertoTEST_viajeConImperfeccionesMenoresAlUmbral_TestE10CreateTestEv
FNDA:2,_ZN7testing8internal15TestFactoryImplI66recorridoNoCubiertoTEST_viajeConImperfeccionesMayoresAlUmbral_TestE10CreateTestEv
FNDA:2,_ZN7testing8internal15TestFactoryImplI43recorridoNoCubiertoTEST_recorridoVacio_TestE10CreateTestEv
FNDA:2,_ZN7testing8internal15TestFactoryImplI42recorridoNoCubiertoTEST_viajeMasLargo_TestE10CreateTestEv
FNDA:2,_ZN7testing8internal15TestFactoryImplI42recorridoNoCubiertoTEST_viajeMasCorto_TestE10CreateTestEv
FNDA:2,_ZN7testing8internal15TestFactoryImplI42recorridoNoCubiertoTEST_viajeTramposo_TestE10CreateTestEv
FNDA:0,_ZN7testing8internal12CodeLocationC2ERKNSt7__cxx1112basic_stringIcSt11char_traitsIcESaIcEEEi
FNF:11
FNH:7
DA:466,0
DA:473,0
DA:484,14
DA:505,0
DA:506,0
LF:5
LH:1
end_of_record
SF:/home/leito-chan/Downloads/TPI/transporteUrbano/lib/googletest-master/googletest/include/gtest/internal/gtest-port.h
FN:1156,_ZN7testing8internal10scoped_ptrINSt7__cxx1112basic_stringIcSt11char_traitsIcESaIcEEEEC2EPS7_
FN:1157,_ZN7testing8internal10scoped_ptrINSt7__cxx1112basic_stringIcSt11char_traitsIcESaIcEEEED2Ev
FN:1157,_ZN7testing8internal10scoped_ptrINSt7__cxx1118basic_stringstreamIcSt11char_traitsIcESaIcEEEED2Ev
FN:1160,_ZNK7testing8internal10scoped_ptrINSt7__cxx1112basic_stringIcSt11char_traitsIcESaIcEEEEptEv
FN:1161,_ZNK7testing8internal10scoped_ptrINSt7__cxx1112basic_stringIcSt11char_traitsIcESaIcEEEE3getEv
FN:1169,_ZN7testing8internal10scoped_ptrINSt7__cxx1118basic_stringstreamIcSt11char_traitsIcESaIcEEEE5resetEPS7_
FN:1169,_ZN7testing8internal10scoped_ptrINSt7__cxx1112basic_stringIcSt11char_traitsIcESaIcEEEE5resetEPS7_
FNDA:0,_ZN7testing8internal10scoped_ptrINSt7__cxx1112basic_stringIcSt11char_traitsIcESaIcEEEEC2EPS7_
FNDA:0,_ZN7testing8internal10scoped_ptrINSt7__cxx1112basic_stringIcSt11char_traitsIcESaIcEEEED2Ev
FNDA:0,_ZN7testing8internal10scoped_ptrINSt7__cxx1118basic_stringstreamIcSt11char_traitsIcESaIcEEEED2Ev
FNDA:0,_ZNK7testing8internal10scoped_ptrINSt7__cxx1112basic_stringIcSt11char_traitsIcESaIcEEEEptEv
FNDA:0,_ZNK7testing8internal10scoped_ptrINSt7__cxx1112basic_stringIcSt11char_traitsIcESaIcEEEE3getEv
FNDA:0,_ZN7testing8internal10scoped_ptrINSt7__cxx1118basic_stringstreamIcSt11char_traitsIcESaIcEEEE5resetEPS7_
FNDA:0,_ZN7testing8internal10scoped_ptrINSt7__cxx1112basic_stringIcSt11char_traitsIcESaIcEEEE5resetEPS7_
FNF:7
FNH:0
DA:1156,0
DA:1157,0
DA:1160,0
DA:1161,0
DA:1169,0
DA:1170,0
DA:1171,0
DA:1172,0
DA:1174,0
DA:1176,0
LF:10
LH:0
end_of_record
SF:/home/leito-chan/Downloads/TPI/transporteUrbano/lib/googletest-master/googletest/include/gtest/gtest-printers.h
FN:222,_ZN16testing_internal26DefaultPrintNonContainerToIiEEvRKT_PSo
FN:222,_ZN16testing_internal26DefaultPrintNonContainerToImEEvRKT_PSo
FN:275,_ZN7testing8internal19FormatForComparisonIimE6FormatB5cxx11ERKi
FN:275,_ZN7testing8internal19FormatForComparisonImiE6FormatB5cxx11ERKm
FN:349,_ZN7testing8internal33FormatForComparisonFailureMessageImiEENSt7__cxx1112basic_stringIcSt11char_traitsIcESaIcEEERKT_RKT0_
FN:349,_ZN7testing8internal33FormatForComparisonFailureMessageIimEENSt7__cxx1112basic_stringIcSt11char_traitsIcESaIcEEERKT_RKT0_
FN:442,_ZN7testing8internal14DefaultPrintToIiEEvNS0_15WrapPrinterTypeILNS0_18DefaultPrinterTypeE3EEERKT_PSo
FN:442,_ZN7testing8internal14DefaultPrintToImEEvNS0_15WrapPrinterTypeILNS0_18DefaultPrinterTypeE3EEERKT_PSo
FN:459,_ZN7testing8internal7PrintToIiEEvRKT_PSo
FN:459,_ZN7testing8internal7PrintToImEEvRKT_PSo
FN:714,_ZN7testing8internal16UniversalPrinterIiE5PrintERKiPSo
FN:714,_ZN7testing8internal16UniversalPrinterImE5PrintERKmPSo
FN:799,_ZN7testing8internal21UniversalTersePrinterIiE5PrintERKiPSo
FN:799,_ZN7testing8internal21UniversalTersePrinterImE5PrintERKmPSo
FN:868,_ZN7testing8internal14UniversalPrintIiEEvRKT_PSo
FN:868,_ZN7testing8internal14UniversalPrintImEEvRKT_PSo
FNDA:0,_ZN16testing_internal26DefaultPrintNonContainerToIiEEvRKT_PSo
FNDA:0,_ZN16testing_internal26DefaultPrintNonContainerToImEEvRKT_PSo
FNDA:0,_ZN7testing8internal19FormatForComparisonIimE6FormatB5cxx11ERKi
FNDA:0,_ZN7testing8internal19FormatForComparisonImiE6FormatB5cxx11ERKm
FNDA:0,_ZN7testing8internal33FormatForComparisonFailureMessageIimEENSt7__cxx1112basic_stringIcSt11char_traitsIcESaIcEEERKT_RKT0_
FNDA:0,_ZN7testing8internal33FormatForComparisonFailureMessageImiEENSt7__cxx1112basic_stringIcSt11char_traitsIcESaIcEEERKT_RKT0_
FNDA:0,_ZN7testing8internal14DefaultPrintToIiEEvNS0_15WrapPrinterTypeILNS0_18DefaultPrinterTypeE3EEERKT_PSo
FNDA:0,_ZN7testing8internal14DefaultPrintToImEEvNS0_15WrapPrinterTypeILNS0_18DefaultPrinterTypeE3EEERKT_PSo
FNDA:0,_ZN7testing8internal7PrintToIiEEvRKT_PSo
FNDA:0,_ZN7testing8internal7PrintToImEEvRKT_PSo
FNDA:0,_ZN7testing8internal16UniversalPrinterIiE5PrintERKiPSo
FNDA:0,_ZN7testing8internal16UniversalPrinterImE5PrintERKmPSo
FNDA:0,_ZN7testing8internal21UniversalTersePrinterIiE5PrintERKiPSo
FNDA:0,_ZN7testing8internal21UniversalTersePrinterImE5PrintERKmPSo
FNDA:0,_ZN7testing8internal14UniversalPrintIiEEvRKT_PSo
FNDA:0,_ZN7testing8internal14UniversalPrintImEEvRKT_PSo
FNF:16
FNH:0
DA:222,0
DA:249,0
DA:250,0
DA:275,0
DA:276,0
DA:349,0
DA:351,0
DA:442,0
DA:444,0
DA:445,0
DA:459,0
DA:481,0
DA:494,0
DA:714,0
DA:723,0
DA:724,0
DA:799,0
DA:800,0
DA:801,0
DA:868,0
DA:872,0
DA:873,0
DA:996,0
DA:997,0
DA:998,0
DA:999,0
LF:26
LH:0
end_of_record
SF:/home/leito-chan/Downloads/TPI/transporteUrbano/lib/googletest-master/googletest/include/gtest/gtest.h
FN:272,_ZN7testing15AssertionResultC2IbEERKT_PNS_8internal8EnableIfIXntsrNS5_21ImplicitlyConvertibleIS2_S0_EE5valueEE4typeE
FN:288,_ZNK7testing15AssertionResultcvbEv
FN:297,_ZNK7testing15AssertionResult7messageEv
FN:302,_ZNK7testing15AssertionResult15failure_messageEv
FN:389,_ZN7testing4Test13SetUpTestCaseEv
FN:397,_ZN7testing4Test16TearDownTestCaseEv
FN:474,_ZN7testing4Test5SetupEv
FN:1375,_ZN7testing8internal18CmpHelperEQFailureImiEENS_15AssertionResultEPKcS4_RKT_RKT0_
FN:1387,_ZN7testing8internal11CmpHelperEQImiEENS_15AssertionResultEPKcS4_RKT_RKT0_
FN:1417,_ZN7testing8internal8EqHelperILb0EE7CompareImiEENS_15AssertionResultEPKcS6_RKT_RKT0_
FNDA:0,_ZN7testing15AssertionResultC2IbEERKT_PNS_8internal8EnableIfIXntsrNS5_21ImplicitlyConvertibleIS2_S0_EE5valueEE4typeE
FNDA:0,_ZNK7testing15AssertionResultcvbEv
FNDA:0,_ZNK7testing15AssertionResult7messageEv
FNDA:0,_ZNK7testing15AssertionResult15failure_messageEv
FNDA:0,_ZN7testing4Test13SetUpTestCaseEv
FNDA:0,_ZN7testing4Test16TearDownTestCaseEv
FNDA:0,_ZN7testing4Test5SetupEv
FNDA:0,_ZN7testing8internal18CmpHelperEQFailureImiEENS_15AssertionResultEPKcS4_RKT_RKT0_
FNDA:22,_ZN7testing8internal11CmpHelperEQImiEENS_15AssertionResultEPKcS4_RKT_RKT0_
FNDA:22,_ZN7testing8internal8EqHelperILb0EE7CompareImiEENS_15AssertionResultEPKcS6_RKT_RKT0_
FNF:10
FNH:2
DA:272,0
DA:277,0
DA:288,0
DA:297,0
DA:298,0
DA:302,0
DA:389,0
DA:397,0
DA:474,0
DA:1375,0
DA:1382,0
DA:1387,22
DA:1392,22
DA:1393,22
DA:1397,0
DA:1417,22
DA:1421,22
LF:17
LH:5
end_of_record
SF:/usr/include/c++/8/initializer_list
FN:71,_ZNKSt16initializer_listISt5tupleIJddEEE4sizeEv
FN:75,_ZNKSt16initializer_listISt5tupleIJddEEE5beginEv
FN:79,_ZNKSt16initializer_listISt5tupleIJddEEE3endEv
FNDA:0,_ZNKSt16initializer_listISt5tupleIJddEEE4sizeEv
FNDA:0,_ZNKSt16initializer_listISt5tupleIJddEEE5beginEv
FNDA:0,_ZNKSt16initializer_listISt5tupleIJddEEE3endEv
FNF:3
FNH:0
DA:71,0
DA:75,0
DA:79,0
LF:3
LH:0
end_of_record
SF:/usr/include/c++/8/bits/ios_base.h
FN:129,_ZStorSt13_Ios_OpenmodeS_
FNDA:0,_ZStorSt13_Ios_OpenmodeS_
FNF:1
FNH:0
DA:129,0
DA:130,0
LF:2
LH:0
end_of_record
SF:/usr/include/c++/8/bits/move.h
FN:47,_ZSt11__addressofISt5tupleIJddEEEPT_RS2_
FN:47,_ZSt11__addressofISt5tupleIJdS0_IJddEEEEEPT_RS3_
FN:74,_ZSt7forwardIRKSt5tupleIJddEEEOT_RNSt16remove_referenceIS4_E4typeE
FN:74,_ZSt7forwardISt5tupleIJddEEEOT_RNSt16remove_referenceIS2_E4typeE
FN:74,_ZSt7forwardIdEOT_RNSt16remove_referenceIS0_E4typeE
FN:74,_ZSt7forwardISt5tupleIJdS0_IJddEEEEEOT_RNSt16remove_referenceIS3_E4typeE
FN:74,_ZSt7forwardIRKSt5tupleIJdS0_IJddEEEEEOT_RNSt16remove_referenceIS5_E4typeE
FN:99,_ZSt4moveIRSt11_Tuple_implILm1EJSt5tupleIJddEEEEEONSt16remove_referenceIT_E4typeEOS6_
FN:99,_ZSt4moveIRSt5tupleIJdS0_IJddEEEEEONSt16remove_referenceIT_E4typeEOS5_
FN:99,_ZSt4moveIRSaIcEEONSt16remove_referenceIT_E4typeEOS3_
FN:99,_ZSt4moveIRSt11_Tuple_implILm1EJdEEEONSt16remove_referenceIT_E4typeEOS4_
FNDA:0,_ZSt11__addressofISt5tupleIJddEEEPT_RS2_
FNDA:0,_ZSt11__addressofISt5tupleIJdS0_IJddEEEEEPT_RS3_
FNDA:0,_ZSt7forwardIRKSt5tupleIJddEEEOT_RNSt16remove_referenceIS4_E4typeE
FNDA:0,_ZSt7forwardIRKSt5tupleIJdS0_IJddEEEEEOT_RNSt16remove_referenceIS5_E4typeE
FNDA:0,_ZSt7forwardISt5tupleIJddEEEOT_RNSt16remove_referenceIS2_E4typeE
FNDA:796,_ZSt7forwardISt5tupleIJdS0_IJddEEEEEOT_RNSt16remove_referenceIS3_E4typeE
FNDA:0,_ZSt7forwardIdEOT_RNSt16remove_referenceIS0_E4typeE
FNDA:370,_ZSt4moveIRSt11_Tuple_implILm1EJSt5tupleIJddEEEEEONSt16remove_referenceIT_E4typeEOS6_
FNDA:0,_ZSt4moveIRSaIcEEONSt16remove_referenceIT_E4typeEOS3_
FNDA:168,_ZSt4moveIRSt5tupleIJdS0_IJddEEEEEONSt16remove_referenceIT_E4typeEOS5_
FNDA:0,_ZSt4moveIRSt11_Tuple_implILm1EJdEEEONSt16remove_referenceIT_E4typeEOS4_
FNF:11
FNH:3
DA:47,0
DA:48,0
DA:74,796
DA:75,796
DA:99,538
DA:100,538
LF:6
LH:4
end_of_record
SF:/usr/include/c++/8/new
FN:168,_ZnwmPv
FNDA:0,_ZnwmPv
FNF:1
FNH:0
DA:168,0
DA:169,0
LF:2
LH:0
end_of_record
SF:/usr/include/c++/8/ext/new_allocator.h
FN:79,_ZN9__gnu_cxx13new_allocatorISt5tupleIJddEEEC2Ev
FN:79,_ZN9__gnu_cxx13new_allocatorISt5tupleIJdS1_IJddEEEEEC2Ev
FN:79,_ZN9__gnu_cxx13new_allocatorIcEC2Ev
FN:79,_ZN9__gnu_cxx13new_allocatorIiEC2Ev
FN:81,_ZN9__gnu_cxx13new_allocatorIcEC2ERKS1_
FN:81,_ZN9__gnu_cxx13new_allocatorISt5tupleIJddEEEC2ERKS3_
FN:81,_ZN9__gnu_cxx13new_allocatorISt5tupleIJdS1_IJddEEEEEC2ERKS4_
FN:81,_ZN9__gnu_cxx13new_allocatorIiEC2ERKS1_
FN:86,_ZN9__gnu_cxx13new_allocatorISt5tupleIJdS1_IJddEEEEED2Ev
FN:86,_ZN9__gnu_cxx13new_allocatorIiED2Ev
FN:86,_ZN9__gnu_cxx13new_allocatorISt5tupleIJddEEED2Ev
FN:86,_ZN9__gnu_cxx13new_allocatorIcED2Ev
FN:99,_ZN9__gnu_cxx13new_allocatorISt5tupleIJdS1_IJddEEEEE8allocateEmPKv
FN:99,_ZN9__gnu_cxx13new_allocatorIiE8allocateEmPKv
FN:99,_ZN9__gnu_cxx13new_allocatorISt5tupleIJddEEE8allocateEmPKv
FN:116,_ZN9__gnu_cxx13new_allocatorIiE10deallocateEPim
FN:116,_ZN9__gnu_cxx13new_allocatorISt5tupleIJddEEE10deallocateEPS2_m
FN:116,_ZN9__gnu_cxx13new_allocatorISt5tupleIJdS1_IJddEEEEE10deallocateEPS3_m
FN:129,_ZNK9__gnu_cxx13new_allocatorISt5tupleIJddEEE8max_sizeEv
FN:129,_ZNK9__gnu_cxx13new_allocatorIiE8max_sizeEv
FN:129,_ZNK9__gnu_cxx13new_allocatorISt5tupleIJdS1_IJddEEEEE8max_sizeEv
FN:135,_ZN9__gnu_cxx13new_allocatorISt5tupleIJdS1_IJddEEEEE9constructIS3_JS3_EEEvPT_DpOT0_
FN:140,_ZN9__gnu_cxx13new_allocatorISt5tupleIJdS1_IJddEEEEE7destroyIS3_EEvPT_
FNDA:0,_ZN9__gnu_cxx13new_allocatorISt5tupleIJdS1_IJddEEEEEC2Ev
FNDA:48,_ZN9__gnu_cxx13new_allocatorIiEC2Ev
FNDA:0,_ZN9__gnu_cxx13new_allocatorISt5tupleIJddEEEC2Ev
FNDA:0,_ZN9__gnu_cxx13new_allocatorIcEC2Ev
FNDA:42,_ZN9__gnu_cxx13new_allocatorIiEC2ERKS1_
FNDA:0,_ZN9__gnu_cxx13new_allocatorISt5tupleIJddEEEC2ERKS3_
FNDA:0,_ZN9__gnu_cxx13new_allocatorISt5tupleIJdS1_IJddEEEEEC2ERKS4_
FNDA:0,_ZN9__gnu_cxx13new_allocatorIcEC2ERKS1_
FNDA:0,_ZN9__gnu_cxx13new_allocatorISt5tupleIJdS1_IJddEEEEED2Ev
FNDA:90,_ZN9__gnu_cxx13new_allocatorIiED2Ev
FNDA:0,_ZN9__gnu_cxx13new_allocatorISt5tupleIJddEEED2Ev
FNDA:0,_ZN9__gnu_cxx13new_allocatorIcED2Ev
FNDA:122,_ZN9__gnu_cxx13new_allocatorIiE8allocateEmPKv
FNDA:0,_ZN9__gnu_cxx13new_allocatorISt5tupleIJdS1_IJddEEEEE8allocateEmPKv
FNDA:0,_ZN9__gnu_cxx13new_allocatorISt5tupleIJddEEE8allocateEmPKv
FNDA:122,_ZN9__gnu_cxx13new_allocatorIiE10deallocateEPim
FNDA:0,_ZN9__gnu_cxx13new_allocatorISt5tupleIJdS1_IJddEEEEE10deallocateEPS3_m
FNDA:0,_ZN9__gnu_cxx13new_allocatorISt5tupleIJddEEE10deallocateEPS2_m
FNDA:310,_ZNK9__gnu_cxx13new_allocatorIiE8max_sizeEv
FNDA:0,_ZNK9__gnu_cxx13new_allocatorISt5tupleIJdS1_IJddEEEEE8max_sizeEv
FNDA:0,_ZNK9__gnu_cxx13new_allocatorISt5tupleIJddEEE8max_sizeEv
FNDA:168,_ZN9__gnu_cxx13new_allocatorISt5tupleIJdS1_IJddEEEEE9constructIS3_JS3_EEEvPT_DpOT0_
FNDA:0,_ZN9__gnu_cxx13new_allocatorISt5tupleIJdS1_IJddEEEEE7destroyIS3_EEvPT_
FNF:23
FNH:7
DA:79,48
DA:81,42
DA:86,90
DA:99,122
DA:101,122
DA:102,0
DA:111,122
DA:116,122
DA:125,122
DA:126,122
DA:129,310
DA:130,310
DA:135,168
DA:136,168
DA:140,0
LF:15
LH:13
end_of_record
SF:/home/leito-chan/Downloads/TPI/transporteUrbano/tests/recorridoNoCubiertoTEST.cpp
FN:6,_Z8includedISt5tupleIJddEEEbT_St6vectorIS2_SaIS2_EE
FN:14,_Z15ASSERT_ELEMENTSISt5tupleIJddEEEvSt6vectorIT_SaIS3_EES5_
FN:52,_ZN42recorridoNoCubiertoTEST_viajePerfecto_TestC2Ev
FN:52,_ZN42recorridoNoCubiertoTEST_viajePerfecto_Test8TestBodyEv
FN:61,_ZN66recorridoNoCubiertoTEST_viajeConImperfeccionesMenoresAlUmbral_TestC2Ev
FN:61,_ZN66recorridoNoCubiertoTEST_viajeConImperfeccionesMenoresAlUmbral_Test8TestBodyEv
FN:75,_ZN66recorridoNoCubiertoTEST_viajeConImperfeccionesMayoresAlUmbral_TestC2Ev
FN:75,_ZN66recorridoNoCubiertoTEST_viajeConImperfeccionesMayoresAlUmbral_Test8TestBodyEv
FN:94,_ZN43recorridoNoCubiertoTEST_recorridoVacio_TestC2Ev
FN:94,_ZN43recorridoNoCubiertoTEST_recorridoVacio_Test8TestBodyEv
FN:112,_ZN42recorridoNoCubiertoTEST_viajeMasLargo_TestC2Ev
FN:112,_ZN42recorridoNoCubiertoTEST_viajeMasLargo_Test8TestBodyEv
FN:132,_ZN42recorridoNoCubiertoTEST_viajeMasCorto_TestC2Ev
FN:132,_ZN42recorridoNoCubiertoTEST_viajeMasCorto_Test8TestBodyEv
FN:149,_ZN42recorridoNoCubiertoTEST_viajeTramposo_Test8TestBodyEv
FN:149,_ZN42recorridoNoCubiertoTEST_viajeTramposo_TestC2Ev
FNDA:16,_Z8includedISt5tupleIJddEEEbT_St6vectorIS2_SaIS2_EE
FNDA:6,_Z15ASSERT_ELEMENTSISt5tupleIJddEEEvSt6vectorIT_SaIS3_EES5_
FNDA:2,_ZN42recorridoNoCubiertoTEST_viajePerfecto_Test8TestBodyEv
FNDA:2,_ZN42recorridoNoCubiertoTEST_viajePerfecto_TestC2Ev
FNDA:2,_ZN66recorridoNoCubiertoTEST_viajeConImperfeccionesMenoresAlUmbral_Test8TestBodyEv
FNDA:2,_ZN66recorridoNoCubiertoTEST_viajeConImperfeccionesMenoresAlUmbral_TestC2Ev
FNDA:2,_ZN66recorridoNoCubiertoTEST_viajeConImperfeccionesMayoresAlUmbral_Test8TestBodyEv
FNDA:2,_ZN66recorridoNoCubiertoTEST_viajeConImperfeccionesMayoresAlUmbral_TestC2Ev
FNDA:2,_ZN43recorridoNoCubiertoTEST_recorridoVacio_Test8TestBodyEv
FNDA:2,_ZN43recorridoNoCubiertoTEST_recorridoVacio_TestC2Ev
FNDA:2,_ZN42recorridoNoCubiertoTEST_viajeMasLargo_Test8TestBodyEv
FNDA:2,_ZN42recorridoNoCubiertoTEST_viajeMasLargo_TestC2Ev
FNDA:2,_ZN42recorridoNoCubiertoTEST_viajeMasCorto_Test8TestBodyEv
FNDA:2,_ZN42recorridoNoCubiertoTEST_viajeMasCorto_TestC2Ev
FNDA:2,_ZN42recorridoNoCubiertoTEST_viajeTramposo_Test8TestBodyEv
FNDA:2,_ZN42recorridoNoCubiertoTEST_viajeTramposo_TestC2Ev
FNF:16
FNH:16
DA:6,16
DA:7,30
DA:8,30
DA:10,0
DA:14,6
DA:15,22
DA:16,16
DA:52,4
DA:53,4
DA:54,22
DA:55,20
DA:58,2
DA:59,2
DA:61,4
DA:62,4
DA:63,4
DA:64,2
DA:65,2
DA:66,2
DA:68,22
DA:69,20
DA:72,2
DA:73,2
DA:75,4
DA:76,4
DA:77,4
DA:78,2
DA:79,2
DA:80,2
DA:81,2
DA:83,22
DA:84,20
DA:87,4
DA:88,2
DA:89,2
DA:91,2
DA:94,4
DA:95,4
DA:96,4
DA:97,2
DA:98,2
DA:99,2
DA:101,22
DA:102,20
DA:105,2
DA:106,2
DA:108,6
DA:109,2
DA:110,2
DA:112,4
DA:113,4
DA:114,4
DA:115,2
DA:116,2
DA:117,2
DA:119,22
DA:120,20
DA:123,2
DA:124,2
DA:126,4
DA:127,2
DA:128,2
DA:130,2
DA:132,4
DA:133,4
DA:134,4
DA:135,2
DA:136,2
DA:138,18
DA:139,16
DA:142,4
DA:143,2
DA:145,2
DA:147,2
DA:149,4
DA:150,4
DA:152,14
DA:153,12
DA:156,6
DA:157,2
DA:159,2
LF:81
LH:80
end_of_record
SF:/usr/include/c++/8/bits/stl_algobase.h
FN:219,_ZSt3maxImERKT_S2_S2_
FN:277,_ZSt12__niter_baseIPiET_S1_
FN:749,_ZSt10__fill_n_aIPimiEN9__gnu_cxx11__enable_ifIXsrSt11__is_scalarIT1_E7__valueET_E6__typeES6_T0_RKS4_
FN:784,_ZSt6fill_nIPimiET_S1_T0_RKT1_
FNDA:0,_ZSt3maxImERKT_S2_S2_
FNDA:592,_ZSt12__niter_baseIPiET_S1_
FNDA:10,_ZSt10__fill_n_aIPimiEN9__gnu_cxx11__enable_ifIXsrSt11__is_scalarIT1_E7__valueET_E6__typeES6_T0_RKS4_
FNDA:10,_ZSt6fill_nIPimiET_S1_T0_RKT1_
FNF:4
FNH:3
DA:219,0
DA:224,0
DA:225,0
DA:226,0
DA:277,592
DA:278,592
DA:749,10
DA:751,10
DA:752,10
DA:753,110
DA:754,100
DA:755,10
DA:784,10
DA:789,10
LF:14
LH:10
end_of_record
SF:/usr/include/c++/8/bits/stl_construct.h
FN:74,_ZSt10_ConstructISt5tupleIJdS0_IJddEEEEJS2_EEvPT_DpOT0_
FN:74,_ZSt10_ConstructISt5tupleIJddEEJRKS1_EEvPT_DpOT0_
FN:74,_ZSt10_ConstructISt5tupleIJdS0_IJddEEEEJRKS2_EEvPT_DpOT0_
FN:117,_ZNSt12_Destroy_auxILb1EE9__destroyIPSt5tupleIJddEEEEvT_S5_
FN:117,_ZNSt12_Destroy_auxILb1EE9__destroyIPiEEvT_S3_
FN:117,_ZNSt12_Destroy_auxILb1EE9__destroyIPSt5tupleIJdS2_IJddEEEEEEvT_S6_
FN:127,_ZSt8_DestroyIPiEvT_S1_
FN:127,_ZSt8_DestroyIPSt5tupleIJdS0_IJddEEEEEvT_S4_
FN:127,_ZSt8_DestroyIPSt5tupleIJddEEEvT_S3_
FN:203,_ZSt8_DestroyIPSt5tupleIJddEES1_EvT_S3_RSaIT0_E
FN:203,_ZSt8_DestroyIPSt5tupleIJdS0_IJddEEEES2_EvT_S4_RSaIT0_E
FN:203,_ZSt8_DestroyIPiiEvT_S1_RSaIT0_E
FNDA:202,_ZSt10_ConstructISt5tupleIJdS0_IJddEEEEJS2_EEvPT_DpOT0_
FNDA:0,_ZSt10_ConstructISt5tupleIJddEEJRKS1_EEvPT_DpOT0_
FNDA:0,_ZSt10_ConstructISt5tupleIJdS0_IJddEEEEJRKS2_EEvPT_DpOT0_
FNDA:156,_ZNSt12_Destroy_auxILb1EE9__destroyIPiEEvT_S3_
FNDA:0,_ZNSt12_Destroy_auxILb1EE9__destroyIPSt5tupleIJdS2_IJddEEEEEEvT_S6_
FNDA:0,_ZNSt12_Destroy_auxILb1EE9__destroyIPSt5tupleIJddEEEEvT_S5_
FNDA:156,_ZSt8_DestroyIPiEvT_S1_
FNDA:0,_ZSt8_DestroyIPSt5tupleIJdS0_IJddEEEEEvT_S4_
FNDA:0,_ZSt8_DestroyIPSt5tupleIJddEEEvT_S3_
FNDA:156,_ZSt8_DestroyIPiiEvT_S1_RSaIT0_E
FNDA:0,_ZSt8_DestroyIPSt5tupleIJdS0_IJddEEEES2_EvT_S4_RSaIT0_E
FNDA:0,_ZSt8_DestroyIPSt5tupleIJddEES1_EvT_S3_RSaIT0_E
FNF:12
FNH:4
DA:74,202
DA:75,202
DA:117,156
DA:127,156
DA:137,156
DA:138,156
DA:203,156
DA:206,156
DA:207,156
LF:9
LH:9
end_of_record
SF:/usr/include/c++/8/bits/stl_iterator.h
FN:783,_ZN9__gnu_cxx17__normal_iteratorIPSt5tupleIJdS1_IJddEEEESt6vectorIS3_SaIS3_EEEC2ERKS4_
FN:783,_ZN9__gnu_cxx17__normal_iteratorIPKSt5tupleIJddEESt6vectorIS2_SaIS2_EEEC2ERKS4_
FN:783,_ZN9__gnu_cxx17__normal_iteratorIPKSt5tupleIJdS1_IJddEEEESt6vectorIS3_SaIS3_EEEC2ERKS5_
FN:796,_ZNK9__gnu_cxx17__normal_iteratorIPKSt5tupleIJddEESt6vectorIS2_SaIS2_EEEdeEv
FN:796,_ZNK9__gnu_cxx17__normal_iteratorIPKSt5tupleIJdS1_IJddEEEESt6vectorIS3_SaIS3_EEEdeEv
FN:804,_ZN9__gnu_cxx17__normal_iteratorIPKSt5tupleIJddEESt6vectorIS2_SaIS2_EEEppEv
FN:804,_ZN9__gnu_cxx17__normal_iteratorIPKSt5tupleIJdS1_IJddEEEESt6vectorIS3_SaIS3_EEEppEv
FN:848,_ZNK9__gnu_cxx17__normal_iteratorIPKSt5tupleIJdS1_IJddEEEESt6vectorIS3_SaIS3_EEE4baseEv
FN:848,_ZNK9__gnu_cxx17__normal_iteratorIPKSt5tupleIJddEESt6vectorIS2_SaIS2_EEE4baseEv
FN:848,_ZNK9__gnu_cxx17__normal_iteratorIPSt5tupleIJdS1_IJddEEEESt6vectorIS3_SaIS3_EEE4baseEv
FN:884,_ZN9__gnu_cxxneIPKSt5tupleIJddEESt6vectorIS2_SaIS2_EEEEbRKNS_17__normal_iteratorIT_T0_EESD_
FN:884,_ZN9__gnu_cxxneIPKSt5tupleIJdS1_IJddEEEESt6vectorIS3_SaIS3_EEEEbRKNS_17__normal_iteratorIT_T0_EESE_
FN:966,_ZN9__gnu_cxxmiIPSt5tupleIJdS1_IJddEEEESt6vectorIS3_SaIS3_EEEENS_17__normal_iteratorIT_T0_E15difference_typeERKSB_SE_
FN:1033,_ZNSt13move_iteratorIPSt5tupleIJdS0_IJddEEEEEC2ES3_
FN:1042,_ZNKSt13move_iteratorIPSt5tupleIJdS0_IJddEEEEE4baseEv
FN:1046,_ZNKSt13move_iteratorIPSt5tupleIJdS0_IJddEEEEEdeEv
FN:1054,_ZNSt13move_iteratorIPSt5tupleIJdS0_IJddEEEEEppEv
FN:1121,_ZSteqIPSt5tupleIJdS0_IJddEEEEEbRKSt13move_iteratorIT_ES8_
FN:1133,_ZStneIPSt5tupleIJdS0_IJddEEEEEbRKSt13move_iteratorIT_ES8_
FN:1218,_ZSt32__make_move_if_noexcept_iteratorISt5tupleIJdS0_IJddEEEESt13move_iteratorIPS2_EET0_PT_
FNDA:0,_ZN9__gnu_cxx17__normal_iteratorIPSt5tupleIJdS1_IJddEEEESt6vectorIS3_SaIS3_EEEC2ERKS4_
FNDA:0,_ZN9__gnu_cxx17__normal_iteratorIPKSt5tupleIJddEESt6vectorIS2_SaIS2_EEEC2ERKS4_
FNDA:0,_ZN9__gnu_cxx17__normal_iteratorIPKSt5tupleIJdS1_IJddEEEESt6vectorIS3_SaIS3_EEEC2ERKS5_
FNDA:0,_ZNK9__gnu_cxx17__normal_iteratorIPKSt5tupleIJddEESt6vectorIS2_SaIS2_EEEdeEv
FNDA:0,_ZNK9__gnu_cxx17__normal_iteratorIPKSt5tupleIJdS1_IJddEEEESt6vectorIS3_SaIS3_EEEdeEv
FNDA:0,_ZN9__gnu_cxx17__normal_iteratorIPKSt5tupleIJddEESt6vectorIS2_SaIS2_EEEppEv
FNDA:0,_ZN9__gnu_cxx17__normal_iteratorIPKSt5tupleIJdS1_IJddEEEESt6vectorIS3_SaIS3_EEEppEv
FNDA:0,_ZNK9__gnu_cxx17__normal_iteratorIPKSt5tupleIJddEESt6vectorIS2_SaIS2_EEE4baseEv
FNDA:0,_ZNK9__gnu_cxx17__normal_iteratorIPKSt5tupleIJdS1_IJddEEEESt6vectorIS3_SaIS3_EEE4baseEv
FNDA:0,_ZNK9__gnu_cxx17__normal_iteratorIPSt5tupleIJdS1_IJddEEEESt6vectorIS3_SaIS3_EEE4baseEv
FNDA:0,_ZN9__gnu_cxxneIPKSt5tupleIJddEESt6vectorIS2_SaIS2_EEEEbRKNS_17__normal_iteratorIT_T0_EESD_
FNDA:0,_ZN9__gnu_cxxneIPKSt5tupleIJdS1_IJddEEEESt6vectorIS3_SaIS3_EEEEbRKNS_17__normal_iteratorIT_T0_EESE_
FNDA:90,_ZN9__gnu_cxxmiIPSt5tupleIJdS1_IJddEEEESt6vectorIS3_SaIS3_EEEENS_17__normal_iteratorIT_T0_E15difference_typeERKSB_SE_
FNDA:360,_ZNSt13move_iteratorIPSt5tupleIJdS0_IJddEEEEEC2ES3_
FNDA:764,_ZNKSt13move_iteratorIPSt5tupleIJdS0_IJddEEEEE4baseEv
FNDA:202,_ZNKSt13move_iteratorIPSt5tupleIJdS0_IJddEEEEEdeEv
FNDA:202,_ZNSt13move_iteratorIPSt5tupleIJdS0_IJddEEEEEppEv
FNDA:382,_ZSteqIPSt5tupleIJdS0_IJddEEEEEbRKSt13move_iteratorIT_ES8_
FNDA:382,_ZStneIPSt5tupleIJdS0_IJddEEEEEbRKSt13move_iteratorIT_ES8_
FNDA:360,_ZSt32__make_move_if_noexcept_iteratorISt5tupleIJdS0_IJddEEEESt13move_iteratorIPS2_EET0_PT_
FNF:20
FNH:8
DA:783,0
DA:784,0
DA:796,0
DA:797,0
DA:804,0
DA:806,0
DA:807,0
DA:848,0
DA:849,0
DA:884,0
DA:887,0
DA:966,90
DA:969,90
DA:1033,360
DA:1034,360
DA:1042,764
DA:1043,764
DA:1046,202
DA:1047,202
DA:1054,202
DA:1056,202
DA:1057,202
DA:1121,382
DA:1123,382
DA:1133,382
DA:1135,382
DA:1218,360
DA:1219,360
LF:28
LH:17
end_of_record
SF:/usr/include/c++/8/bits/stl_iterator_base_funcs.h
FN:98,_ZSt10__distanceIPcENSt15iterator_traitsIT_E15difference_typeES2_S2_St26random_access_iterator_tag
FN:98,_ZSt10__distanceIPKSt5tupleIJddEEENSt15iterator_traitsIT_E15difference_typeES5_S5_St26random_access_iterator_tag
FN:98,_ZSt10__distanceIPKcENSt15iterator_traitsIT_E15difference_typeES3_S3_St26random_access_iterator_tag
FNDA:0,_ZSt10__distanceIPcENSt15iterator_traitsIT_E15difference_typeES2_S2_St26random_access_iterator_tag
FNDA:0,_ZSt10__distanceIPKcENSt15iterator_traitsIT_E15difference_typeES3_S3_St26random_access_iterator_tag
FNDA:0,_ZSt10__distanceIPKSt5tupleIJddEEENSt15iterator_traitsIT_E15difference_typeES5_S5_St26random_access_iterator_tag
FNF:3
FNH:0
DA:98,0
DA:104,0
DA:138,0
DA:141,0
DA:142,0
LF:5
LH:0
end_of_record
SF:/usr/include/c++/8/bits/stl_iterator_base_types.h
FN:205,_ZSt19__iterator_categoryIPKSt5tupleIJddEEENSt15iterator_traitsIT_E17iterator_categoryERKS5_
FN:205,_ZSt19__iterator_categoryIPKcENSt15iterator_traitsIT_E17iterator_categoryERKS3_
FN:205,_ZSt19__iterator_categoryIPcENSt15iterator_traitsIT_E17iterator_categoryERKS2_
FNDA:0,_ZSt19__iterator_categoryIPcENSt15iterator_traitsIT_E17iterator_categoryERKS2_
FNDA:0,_ZSt19__iterator_categoryIPKcENSt15iterator_traitsIT_E17iterator_categoryERKS3_
FNDA:0,_ZSt19__iterator_categoryIPKSt5tupleIJddEEENSt15iterator_traitsIT_E17iterator_categoryERKS5_
FNF:3
FNH:0
DA:205,0
DA:206,0
LF:2
LH:0
end_of_record
SF:/usr/include/c++/8/bits/stl_uninitialized.h
FN:76,_ZNSt20__uninitialized_copyILb0EE13__uninit_copyISt13move_iteratorIPSt5tupleIJdS3_IJddEEEEES6_EET0_T_S9_S8_
FN:76,_ZNSt20__uninitialized_copyILb0EE13__uninit_copyIN9__gnu_cxx17__normal_iteratorIPKSt5tupleIJddEESt6vectorIS5_SaIS5_EEEEPS5_EET0_T_SE_SD_
FN:76,_ZNSt20__uninitialized_copyILb0EE13__uninit_copyIPKSt5tupleIJddEEPS3_EET0_T_S8_S7_
FN:76,_ZNSt20__uninitialized_copyILb0EE13__uninit_copyIN9__gnu_cxx17__normal_iteratorIPKSt5tupleIJdS4_IJddEEEESt6vectorIS6_SaIS6_EEEEPS6_EET0_T_SF_SE_
FN:115,_ZSt18uninitialized_copyIN9__gnu_cxx17__normal_iteratorIPKSt5tupleIJddEESt6vectorIS3_SaIS3_EEEEPS3_ET0_T_SC_SB_
FN:115,_ZSt18uninitialized_copyIPKSt5tupleIJddEEPS1_ET0_T_S6_S5_
FN:115,_ZSt18uninitialized_copyISt13move_iteratorIPSt5tupleIJdS1_IJddEEEEES4_ET0_T_S7_S6_
FN:115,_ZSt18uninitialized_copyIN9__gnu_cxx17__normal_iteratorIPKSt5tupleIJdS2_IJddEEEESt6vectorIS4_SaIS4_EEEEPS4_ET0_T_SD_SC_
FN:226,_ZNSt22__uninitialized_fill_nILb1EE15__uninit_fill_nIPimiEET_S3_T0_RKT1_
FN:244,_ZSt20uninitialized_fill_nIPimiET_S1_T0_RKT1_
FN:287,_ZSt22__uninitialized_copy_aIPKSt5tupleIJddEEPS1_S1_ET0_T_S6_S5_RSaIT1_E
FN:287,_ZSt22__uninitialized_copy_aISt13move_iteratorIPSt5tupleIJdS1_IJddEEEEES4_S3_ET0_T_S7_S6_RSaIT1_E
FN:287,_ZSt22__uninitialized_copy_aIN9__gnu_cxx17__normal_iteratorIPKSt5tupleIJdS2_IJddEEEESt6vectorIS4_SaIS4_EEEEPS4_S4_ET0_T_SD_SC_RSaIT1_E
FN:287,_ZSt22__uninitialized_copy_aIN9__gnu_cxx17__normal_iteratorIPKSt5tupleIJddEESt6vectorIS3_SaIS3_EEEEPS3_S3_ET0_T_SC_SB_RSaIT1_E
FN:305,_ZSt34__uninitialized_move_if_noexcept_aIPSt5tupleIJdS0_IJddEEEES3_SaIS2_EET0_T_S6_S5_RT1_
FN:364,_ZSt24__uninitialized_fill_n_aIPimiiET_S1_T0_RKT1_RSaIT2_E
FNDA:180,_ZNSt20__uninitialized_copyILb0EE13__uninit_copyISt13move_iteratorIPSt5tupleIJdS3_IJddEEEEES6_EET0_T_S9_S8_
FNDA:0,_ZNSt20__uninitialized_copyILb0EE13__uninit_copyIPKSt5tupleIJddEEPS3_EET0_T_S8_S7_
FNDA:0,_ZNSt20__uninitialized_copyILb0EE13__uninit_copyIN9__gnu_cxx17__normal_iteratorIPKSt5tupleIJddEESt6vectorIS5_SaIS5_EEEEPS5_EET0_T_SE_SD_
FNDA:0,_ZNSt20__uninitialized_copyILb0EE13__uninit_copyIN9__gnu_cxx17__normal_iteratorIPKSt5tupleIJdS4_IJddEEEESt6vectorIS6_SaIS6_EEEEPS6_EET0_T_SF_SE_
FNDA:180,_ZSt18uninitialized_copyISt13move_iteratorIPSt5tupleIJdS1_IJddEEEEES4_ET0_T_S7_S6_
FNDA:0,_ZSt18uninitialized_copyIPKSt5tupleIJddEEPS1_ET0_T_S6_S5_
FNDA:0,_ZSt18uninitialized_copyIN9__gnu_cxx17__normal_iteratorIPKSt5tupleIJddEESt6vectorIS3_SaIS3_EEEEPS3_ET0_T_SC_SB_
FNDA:0,_ZSt18uninitialized_copyIN9__gnu_cxx17__normal_iteratorIPKSt5tupleIJdS2_IJddEEEESt6vectorIS4_SaIS4_EEEEPS4_ET0_T_SD_SC_
FNDA:10,_ZNSt22__uninitialized_fill_nILb1EE15__uninit_fill_nIPimiEET_S3_T0_RKT1_
FNDA:10,_ZSt20uninitialized_fill_nIPimiET_S1_T0_RKT1_
FNDA:180,_ZSt22__uninitialized_copy_aISt13move_iteratorIPSt5tupleIJdS1_IJddEEEEES4_S3_ET0_T_S7_S6_RSaIT1_E
FNDA:0,_ZSt22__uninitialized_copy_aIPKSt5tupleIJddEEPS1_S1_ET0_T_S6_S5_RSaIT1_E
FNDA:0,_ZSt22__uninitialized_copy_aIN9__gnu_cxx17__normal_iteratorIPKSt5tupleIJddEESt6vectorIS3_SaIS3_EEEEPS3_S3_ET0_T_SC_SB_RSaIT1_E
FNDA:0,_ZSt22__uninitialized_copy_aIN9__gnu_cxx17__normal_iteratorIPKSt5tupleIJdS2_IJddEEEESt6vectorIS4_SaIS4_EEEEPS4_S4_ET0_T_SD_SC_RSaIT1_E
FNDA:180,_ZSt34__uninitialized_move_if_noexcept_aIPSt5tupleIJdS0_IJddEEEES3_SaIS2_EET0_T_S6_S5_RT1_
FNDA:10,_ZSt24__uninitialized_fill_n_aIPimiiET_S1_T0_RKT1_RSaIT2_E
FNF:16
FNH:7
DA:76,180
DA:79,180
DA:82,382
DA:83,202
DA:84,180
DA:86,0
DA:88,0
DA:89,0
DA:115,180
DA:128,180
DA:134,180
DA:226,10
DA:228,10
DA:244,10
DA:252,10
DA:255,10
DA:287,180
DA:289,180
DA:305,180
DA:311,180
DA:312,180
DA:364,10
DA:366,10
LF:23
LH:20
end_of_record
SF:/usr/include/c++/8/bits/stl_vector.h
FN:95,_ZNSt12_Vector_baseISt5tupleIJdS0_IJddEEEESaIS2_EE12_Vector_implC2Ev
FN:95,_ZNSt12_Vector_baseISt5tupleIJddEESaIS1_EE12_Vector_implC2Ev
FN:99,_ZNSt12_Vector_baseIiSaIiEE12_Vector_implC2ERKS0_
FN:99,_ZNSt12_Vector_baseISt5tupleIJdS0_IJddEEEESaIS2_EE12_Vector_implC2ERKS3_
FN:99,_ZNSt12_Vector_baseISt5tupleIJddEESaIS1_EE12_Vector_implC2ERKS2_
FN:237,_ZNSt12_Vector_baseISt5tupleIJdS0_IJddEEEESaIS2_EE19_M_get_Tp_allocatorEv
FN:237,_ZNSt12_Vector_baseISt5tupleIJddEESaIS1_EE19_M_get_Tp_allocatorEv
FN:237,_ZNSt12_Vector_baseIiSaIiEE19_M_get_Tp_allocatorEv
FN:241,_ZNKSt12_Vector_baseISt5tupleIJddEESaIS1_EE19_M_get_Tp_allocatorEv
FN:241,_ZNKSt12_Vector_baseISt5tupleIJdS0_IJddEEEESaIS2_EE19_M_get_Tp_allocatorEv
FN:248,_ZNSt12_Vector_baseISt5tupleIJddEESaIS1_EEC2Ev
FN:248,_ZNSt12_Vector_baseISt5tupleIJdS0_IJddEEEESaIS2_EEC2Ev
FN:251,_ZNSt12_Vector_baseISt5tupleIJddEESaIS1_EEC2ERKS2_
FN:258,_ZNSt12_Vector_baseISt5tupleIJdS0_IJddEEEESaIS2_EEC2EmRKS3_
FN:258,_ZNSt12_Vector_baseISt5tupleIJddEESaIS1_EEC2EmRKS2_
FN:258,_ZNSt12_Vector_baseIiSaIiEEC2EmRKS0_
FN:283,_ZNSt12_Vector_baseIiSaIiEED2Ev
FN:283,_ZNSt12_Vector_baseISt5tupleIJddEESaIS1_EED2Ev
FN:283,_ZNSt12_Vector_baseISt5tupleIJdS0_IJddEEEESaIS2_EED2Ev
FN:293,_ZNSt12_Vector_baseIiSaIiEE11_M_allocateEm
FN:293,_ZNSt12_Vector_baseISt5tupleIJdS0_IJddEEEESaIS2_EE11_M_allocateEm
FN:293,_ZNSt12_Vector_baseISt5tupleIJddEESaIS1_EE11_M_allocateEm
FN:300,_ZNSt12_Vector_baseIiSaIiEE13_M_deallocateEPim
FN:300,_ZNSt12_Vector_baseISt5tupleIJdS0_IJddEEEESaIS2_EE13_M_deallocateEPS2_m
FN:300,_ZNSt12_Vector_baseISt5tupleIJddEESaIS1_EE13_M_deallocateEPS1_m
FN:309,_ZNSt12_Vector_baseISt5tupleIJdS0_IJddEEEESaIS2_EE17_M_create_storageEm
FN:309,_ZNSt12_Vector_baseIiSaIiEE17_M_create_storageEm
FN:309,_ZNSt12_Vector_baseISt5tupleIJddEESaIS1_EE17_M_create_storageEm
FN:391,_ZNSt6vectorISt5tupleIJdS0_IJddEEEESaIS2_EEC2Ev
FN:391,_ZNSt6vectorISt5tupleIJddEESaIS1_EEC2Ev
FN:427,_ZNSt6vectorIiSaIiEEC2EmRKiRKS0_
FN:458,_ZNSt6vectorISt5tupleIJddEESaIS1_EEC2ERKS3_
FN:458,_ZNSt6vectorISt5tupleIJdS0_IJddEEEESaIS2_EEC2ERKS4_
FN:515,_ZNSt6vectorISt5tupleIJddEESaIS1_EEC2ESt16initializer_listIS1_ERKS2_
FN:565,_ZNSt6vectorISt5tupleIJddEESaIS1_EED2Ev
FN:565,_ZNSt6vectorIiSaIiEED2Ev
FN:565,_ZNSt6vectorISt5tupleIJdS0_IJddEEEESaIS2_EED2Ev
FN:698,_ZNSt6vectorISt5tupleIJdS0_IJddEEEESaIS2_EE5beginEv
FN:707,_ZNKSt6vectorISt5tupleIJddEESaIS1_EE5beginEv
FN:707,_ZNKSt6vectorISt5tupleIJdS0_IJddEEEESaIS2_EE5beginEv
FN:716,_ZNSt6vectorISt5tupleIJdS0_IJddEEEESaIS2_EE3endEv
FN:725,_ZNKSt6vectorISt5tupleIJdS0_IJddEEEESaIS2_EE3endEv
FN:725,_ZNKSt6vectorISt5tupleIJddEESaIS1_EE3endEv
FN:805,_ZNKSt6vectorISt5tupleIJdS0_IJddEEEESaIS2_EE4sizeEv
FN:805,_ZNKSt6vectorISt5tupleIJddEESaIS1_EE4sizeEv
FN:810,_ZNKSt6vectorISt5tupleIJdS0_IJddEEEESaIS2_EE8max_sizeEv
FN:930,_ZNSt6vectorISt5tupleIJddEESaIS1_EEixEm
FN:930,_ZNSt6vectorIiSaIiEEixEm
FN:948,_ZNKSt6vectorISt5tupleIJddEESaIS1_EEixEm
FN:1090,_ZNSt6vectorISt5tupleIJdS0_IJddEEEESaIS2_EE9push_backEOS2_
FN:1462,_ZNSt6vectorISt5tupleIJddEESaIS1_EE19_M_range_initializeIPKS1_EEvT_S7_St20forward_iterator_tag
FN:1477,_ZNSt6vectorIiSaIiEE18_M_fill_initializeEmRKi
FN:1640,_ZNKSt6vectorISt5tupleIJdS0_IJddEEEESaIS2_EE12_M_check_lenEmPKc
FNDA:0,_ZNSt12_Vector_baseISt5tupleIJddEESaIS1_EE12_Vector_implC2Ev
FNDA:0,_ZNSt12_Vector_baseISt5tupleIJdS0_IJddEEEESaIS2_EE12_Vector_implC2Ev
FNDA:28,_ZNSt12_Vector_baseIiSaIiEE12_Vector_implC2ERKS0_
FNDA:0,_ZNSt12_Vector_baseISt5tupleIJdS0_IJddEEEESaIS2_EE12_Vector_implC2ERKS3_
FNDA:0,_ZNSt12_Vector_baseISt5tupleIJddEESaIS1_EE12_Vector_implC2ERKS2_
FNDA:372,_ZNSt12_Vector_baseIiSaIiEE19_M_get_Tp_allocatorEv
FNDA:0,_ZNSt12_Vector_baseISt5tupleIJdS0_IJddEEEESaIS2_EE19_M_get_Tp_allocatorEv
FNDA:0,_ZNSt12_Vector_baseISt5tupleIJddEESaIS1_EE19_M_get_Tp_allocatorEv
FNDA:0,_ZNKSt12_Vector_baseISt5tupleIJddEESaIS1_EE19_M_get_Tp_allocatorEv
FNDA:0,_ZNKSt12_Vector_baseISt5tupleIJdS0_IJddEEEESaIS2_EE19_M_get_Tp_allocatorEv
FNDA:0,_ZNSt12_Vector_baseISt5tupleIJddEESaIS1_EEC2Ev
FNDA:0,_ZNSt12_Vector_baseISt5tupleIJdS0_IJddEEEESaIS2_EEC2Ev
FNDA:0,_ZNSt12_Vector_baseISt5tupleIJddEESaIS1_EEC2ERKS2_
FNDA:24,_ZNSt12_Vector_baseIiSaIiEEC2EmRKS0_
FNDA:0,_ZNSt12_Vector_baseISt5tupleIJddEESaIS1_EEC2EmRKS2_
FNDA:0,_ZNSt12_Vector_baseISt5tupleIJdS0_IJddEEEESaIS2_EEC2EmRKS3_
FNDA:62,_ZNSt12_Vector_baseIiSaIiEED2Ev
FNDA:0,_ZNSt12_Vector_baseISt5tupleIJdS0_IJddEEEESaIS2_EED2Ev
FNDA:0,_ZNSt12_Vector_baseISt5tupleIJddEESaIS1_EED2Ev
FNDA:122,_ZNSt12_Vector_baseIiSaIiEE11_M_allocateEm
FNDA:0,_ZNSt12_Vector_baseISt5tupleIJdS0_IJddEEEESaIS2_EE11_M_allocateEm
FNDA:0,_ZNSt12_Vector_baseISt5tupleIJddEESaIS1_EE11_M_allocateEm
FNDA:156,_ZNSt12_Vector_baseIiSaIiEE13_M_deallocateEPim
FNDA:0,_ZNSt12_Vector_baseISt5tupleIJdS0_IJddEEEESaIS2_EE13_M_deallocateEPS2_m
FNDA:0,_ZNSt12_Vector_baseISt5tupleIJddEESaIS1_EE13_M_deallocateEPS1_m
FNDA:24,_ZNSt12_Vector_baseIiSaIiEE17_M_create_storageEm
FNDA:0,_ZNSt12_Vector_baseISt5tupleIJddEESaIS1_EE17_M_create_storageEm
FNDA:0,_ZNSt12_Vector_baseISt5tupleIJdS0_IJddEEEESaIS2_EE17_M_create_storageEm
FNDA:0,_ZNSt6vectorISt5tupleIJddEESaIS1_EEC2Ev
FNDA:0,_ZNSt6vectorISt5tupleIJdS0_IJddEEEESaIS2_EEC2Ev
FNDA:10,_ZNSt6vectorIiSaIiEEC2EmRKiRKS0_
FNDA:0,_ZNSt6vectorISt5tupleIJddEESaIS1_EEC2ERKS3_
FNDA:0,_ZNSt6vectorISt5tupleIJdS0_IJddEEEESaIS2_EEC2ERKS4_
FNDA:0,_ZNSt6vectorISt5tupleIJddEESaIS1_EEC2ESt16initializer_listIS1_ERKS2_
FNDA:62,_ZNSt6vectorIiSaIiEED2Ev
FNDA:0,_ZNSt6vectorISt5tupleIJdS0_IJddEEEESaIS2_EED2Ev
FNDA:0,_ZNSt6vectorISt5tupleIJddEESaIS1_EED2Ev
FNDA:0,_ZNSt6vectorISt5tupleIJdS0_IJddEEEESaIS2_EE5beginEv
FNDA:0,_ZNKSt6vectorISt5tupleIJddEESaIS1_EE5beginEv
FNDA:0,_ZNKSt6vectorISt5tupleIJdS0_IJddEEEESaIS2_EE5beginEv
FNDA:0,_ZNSt6vectorISt5tupleIJdS0_IJddEEEESaIS2_EE3endEv
FNDA:0,_ZNKSt6vectorISt5tupleIJddEESaIS1_EE3endEv
FNDA:0,_ZNKSt6vectorISt5tupleIJdS0_IJddEEEESaIS2_EE3endEv
FNDA:0,_ZNKSt6vectorISt5tupleIJdS0_IJddEEEESaIS2_EE4sizeEv
FNDA:0,_ZNKSt6vectorISt5tupleIJddEESaIS1_EE4sizeEv
FNDA:180,_ZNKSt6vectorISt5tupleIJdS0_IJddEEEESaIS2_EE8max_sizeEv
FNDA:0,_ZNSt6vectorISt5tupleIJddEESaIS1_EEixEm
FNDA:256,_ZNSt6vectorIiSaIiEEixEm
FNDA:152,_ZNKSt6vectorISt5tupleIJddEESaIS1_EEixEm
FNDA:168,_ZNSt6vectorISt5tupleIJdS0_IJddEEEESaIS2_EE9push_backEOS2_
FNDA:0,_ZNSt6vectorISt5tupleIJddEESaIS1_EE19_M_range_initializeIPKS1_EEvT_S7_St20forward_iterator_tag
FNDA:10,_ZNSt6vectorIiSaIiEE18_M_fill_initializeEmRKi
FNDA:90,_ZNKSt6vectorISt5tupleIJdS0_IJddEEEESaIS2_EE12_M_check_lenEmPKc
FNF:53
FNH:15
DA:95,0
DA:96,0
DA:97,0
DA:99,28
DA:100,28
DA:101,28
DA:237,372
DA:238,372
DA:241,0
DA:242,0
DA:248,0
DA:249,0
DA:251,0
DA:252,0
DA:258,24
DA:259,24
DA:260,24
DA:283,62
DA:285,62
DA:286,62
DA:287,62
DA:293,122
DA:296,122
DA:300,156
DA:303,156
DA:304,122
DA:305,156
DA:309,24
DA:311,24
DA:312,24
DA:313,24
DA:314,24
DA:391,0
DA:395,0
DA:427,10
DA:429,10
DA:430,10
DA:458,0
DA:460,0
DA:462,0
DA:463,0
DA:465,0
DA:466,0
DA:515,0
DA:517,0
DA:519,0
DA:521,0
DA:565,62
DA:567,62
DA:568,62
DA:570,62
DA:698,0
DA:699,0
DA:707,0
DA:708,0
DA:716,0
DA:717,0
DA:725,0
DA:726,0
DA:805,0
DA:806,0
DA:810,180
DA:811,180
DA:930,256
DA:933,256
DA:948,152
DA:951,152
DA:1090,168
DA:1091,168
DA:1462,0
DA:1465,0
DA:1466,0
DA:1467,0
DA:1468,0
DA:1469,0
DA:1471,0
DA:1472,0
DA:1477,10
DA:1479,10
DA:1480,10
DA:1481,10
DA:1482,10
DA:1640,90
DA:1642,90
DA:1643,0
DA:1645,90
DA:1646,90
LF:87
LH:47
end_of_record
SF:/usr/include/c++/8/tuple
FN:132,_ZNSt10_Head_baseILm1EdLb0EEC2IdEEOT_
FN:132,_ZNSt10_Head_baseILm1ESt5tupleIJddEELb0EEC2IS1_EEOT_
FN:132,_ZNSt10_Head_baseILm0EdLb0EEC2IdEEOT_
FN:160,_ZNSt10_Head_baseILm0EdLb0EE7_M_headERS0_
FN:160,_ZNSt10_Head_baseILm1EdLb0EE7_M_headERS0_
FN:160,_ZNSt10_Head_baseILm1ESt5tupleIJddEELb0EE7_M_headERS2_
FN:163,_ZNSt10_Head_baseILm0EdLb0EE7_M_headERKS0_
FN:163,_ZNSt10_Head_baseILm1EdLb0EE7_M_headERKS0_
FN:195,_ZNSt11_Tuple_implILm0EJddEE7_M_headERS0_
FN:195,_ZNSt11_Tuple_implILm0EJdSt5tupleIJddEEEE7_M_headERS2_
FN:198,_ZNSt11_Tuple_implILm0EJddEE7_M_headERKS0_
FN:201,_ZNSt11_Tuple_implILm0EJddEE7_M_tailERS0_
FN:201,_ZNSt11_Tuple_implILm0EJdSt5tupleIJddEEEE7_M_tailERS2_
FN:223,_ZNSt11_Tuple_implILm0EJddEEC2EOS0_
FN:223,_ZNSt11_Tuple_implILm0EJdSt5tupleIJddEEEEC2EOS2_
FN:351,_ZNSt11_Tuple_implILm1EJSt5tupleIJddEEEE7_M_headERS2_
FN:351,_ZNSt11_Tuple_implILm1EJdEE7_M_headERS0_
FN:354,_ZNSt11_Tuple_implILm1EJdEE7_M_headERKS0_
FN:371,_ZNSt11_Tuple_implILm1EJdEEC2EOS0_
FN:371,_ZNSt11_Tuple_implILm1EJSt5tupleIJddEEEEC2EOS2_
FN:987,_ZNSt5tupleIJdS_IJddEEEEC2EOS1_
FN:987,_ZNSt5tupleIJddEEC2EOS0_
FN:1308,_ZSt12__get_helperILm1EdJEERKT0_RKSt11_Tuple_implIXT_EJS0_DpT1_EE
FN:1308,_ZSt12__get_helperILm0EdJdEERKT0_RKSt11_Tuple_implIXT_EJS0_DpT1_EE
FN:1320,_ZSt3getILm0EJddEERKNSt13tuple_elementIXT_ESt5tupleIJDpT0_EEE4typeERKS4_
FN:1320,_ZSt3getILm1EJddEERKNSt13tuple_elementIXT_ESt5tupleIJDpT0_EEE4typeERKS4_
FN:1386,_ZNSt15__tuple_compareISt5tupleIJddEES1_Lm1ELm2EE4__eqERKS1_S4_
FN:1386,_ZNSt15__tuple_compareISt5tupleIJddEES1_Lm0ELm2EE4__eqERKS1_S4_
FN:1405,_ZNSt15__tuple_compareISt5tupleIJddEES1_Lm2ELm2EE4__eqERKS1_S4_
FN:1413,_ZSteqIJddEJddEEbRKSt5tupleIJDpT_EERKS0_IJDpT0_EE
FNDA:0,_ZNSt10_Head_baseILm1ESt5tupleIJddEELb0EEC2IS1_EEOT_
FNDA:0,_ZNSt10_Head_baseILm0EdLb0EEC2IdEEOT_
FNDA:0,_ZNSt10_Head_baseILm1EdLb0EEC2IdEEOT_
FNDA:0,_ZNSt10_Head_baseILm1ESt5tupleIJddEELb0EE7_M_headERS2_
FNDA:0,_ZNSt10_Head_baseILm0EdLb0EE7_M_headERS0_
FNDA:0,_ZNSt10_Head_baseILm1EdLb0EE7_M_headERS0_
FNDA:0,_ZNSt10_Head_baseILm1EdLb0EE7_M_headERKS0_
FNDA:0,_ZNSt10_Head_baseILm0EdLb0EE7_M_headERKS0_
FNDA:0,_ZNSt11_Tuple_implILm0EJdSt5tupleIJddEEEE7_M_headERS2_
FNDA:0,_ZNSt11_Tuple_implILm0EJddEE7_M_headERS0_
FNDA:0,_ZNSt11_Tuple_implILm0EJddEE7_M_headERKS0_
FNDA:0,_ZNSt11_Tuple_implILm0EJdSt5tupleIJddEEEE7_M_tailERS2_
FNDA:0,_ZNSt11_Tuple_implILm0EJddEE7_M_tailERS0_
FNDA:370,_ZNSt11_Tuple_implILm0EJdSt5tupleIJddEEEEC2EOS2_
FNDA:0,_ZNSt11_Tuple_implILm0EJddEEC2EOS0_
FNDA:0,_ZNSt11_Tuple_implILm1EJSt5tupleIJddEEEE7_M_headERS2_
FNDA:0,_ZNSt11_Tuple_implILm1EJdEE7_M_headERS0_
FNDA:0,_ZNSt11_Tuple_implILm1EJdEE7_M_headERKS0_
FNDA:370,_ZNSt11_Tuple_implILm1EJSt5tupleIJddEEEEC2EOS2_
FNDA:0,_ZNSt11_Tuple_implILm1EJdEEC2EOS0_
FNDA:370,_ZNSt5tupleIJdS_IJddEEEEC2EOS1_
FNDA:0,_ZNSt5tupleIJddEEC2EOS0_
FNDA:0,_ZSt12__get_helperILm1EdJEERKT0_RKSt11_Tuple_implIXT_EJS0_DpT1_EE
FNDA:0,_ZSt12__get_helperILm0EdJdEERKT0_RKSt11_Tuple_implIXT_EJS0_DpT1_EE
FNDA:0,_ZSt3getILm1EJddEERKNSt13tuple_elementIXT_ESt5tupleIJDpT0_EEE4typeERKS4_
FNDA:0,_ZSt3getILm0EJddEERKNSt13tuple_elementIXT_ESt5tupleIJDpT0_EEE4typeERKS4_
FNDA:50,_ZNSt15__tuple_compareISt5tupleIJddEES1_Lm1ELm2EE4__eqERKS1_S4_
FNDA:106,_ZNSt15__tuple_compareISt5tupleIJddEES1_Lm0ELm2EE4__eqERKS1_S4_
FNDA:50,_ZNSt15__tuple_compareISt5tupleIJddEES1_Lm2ELm2EE4__eqERKS1_S4_
FNDA:106,_ZSteqIJddEJddEEbRKSt5tupleIJDpT_EERKS0_IJDpT0_EE
FNF:30
FNH:7
DA:132,0
DA:133,0
DA:160,0
DA:163,0
DA:195,0
DA:198,0
DA:201,0
DA:223,370
DA:226,370
DA:227,740
DA:351,0
DA:354,0
DA:371,370
DA:373,370
DA:987,370
DA:1308,0
DA:1309,0
DA:1320,0
DA:1321,0
DA:1386,156
DA:1388,156
DA:1389,156
DA:1405,50
DA:1413,106
DA:1421,106
LF:25
LH:12
end_of_record
SF:/usr/include/c++/8/ext/type_traits.h
FN:152,_ZN9__gnu_cxx17__is_null_pointerIKcEEbPT_
FN:152,_ZN9__gnu_cxx17__is_null_pointerIcEEbPT_
FNDA:0,_ZN9__gnu_cxx17__is_null_pointerIcEEbPT_
FNDA:0,_ZN9__gnu_cxx17__is_null_pointerIKcEEbPT_
FNF:2
FNH:0
DA:152,0
DA:153,0
LF:2
LH:0
end_of_record
SF:/usr/include/c++/8/bits/vector.tcc
FN:97,_ZNSt6vectorISt5tupleIJdS0_IJddEEEESaIS2_EE12emplace_backIJS2_EEEvDpOT_
FN:413,_ZNSt6vectorISt5tupleIJdS0_IJddEEEESaIS2_EE17_M_realloc_insertIJS2_EEEvN9__gnu_cxx17__normal_iteratorIPS2_S4_EEDpOT_
FNDA:168,_ZNSt6vectorISt5tupleIJdS0_IJddEEEESaIS2_EE12emplace_backIJS2_EEEvDpOT_
FNDA:90,_ZNSt6vectorISt5tupleIJdS0_IJddEEEESaIS2_EE17_M_realloc_insertIJS2_EEEvN9__gnu_cxx17__normal_iteratorIPS2_S4_EEDpOT_
FNF:2
FNH:2
DA:97,168
DA:100,168
DA:103,78
DA:105,78
DA:109,90
DA:113,168
DA:413,90
DA:422,90
DA:424,90
DA:425,90
DA:426,90
DA:427,90
DA:428,90
DA:436,90
DA:437,90
DA:443,90
DA:447,90
DA:448,90
DA:450,90
DA:454,90
DA:455,90
DA:457,0
DA:459,0
DA:460,0
DA:461,0
DA:463,0
DA:464,0
DA:465,0
DA:468,90
DA:469,180
DA:470,90
DA:471,90
DA:472,90
DA:473,90
DA:474,90
LF:35
LH:28
end_of_record
TN:
SF:/usr/include/c++/8/bits/alloc_traits.h
FN:461,_ZNSt16allocator_traitsISaISt5tupleIJS0_IJddEES1_S0_IJiiEEEEEE10deallocateERS4_PS3_m
FN:504,_ZNSt16allocator_traitsISaIcEE37select_on_container_copy_constructionERKS0_
FNDA:0,_ZNSt16allocator_traitsISaISt5tupleIJS0_IJddEES1_S0_IJiiEEEEEE10deallocateERS4_PS3_m
FNDA:0,_ZNSt16allocator_traitsISaIcEE37select_on_container_copy_constructionERKS0_
FNF:2
FNH:0
DA:461,0
DA:462,0
DA:504,0
DA:505,0
LF:4
LH:0
end_of_record
SF:/usr/include/c++/8/ext/alloc_traits.h
FN:94,_ZN9__gnu_cxx14__alloc_traitsISaIcEcE17_S_select_on_copyERKS1_
FNDA:0,_ZN9__gnu_cxx14__alloc_traitsISaIcEcE17_S_select_on_copyERKS1_
FNF:1
FNH:0
DA:94,0
DA:95,0
LF:2
LH:0
end_of_record
SF:/usr/include/c++/8/bits/allocator.h
FN:139,_ZNSaISt5tupleIJS_IJddEES0_S_IJiiEEEEED2Ev
FNDA:0,_ZNSaISt5tupleIJS_IJddEES0_S_IJiiEEEEED2Ev
FNF:1
FNH:0
DA:139,0
LF:1
LH:0
end_of_record
SF:/usr/include/c++/8/bits/basic_string.h
FN:232,_ZNSt7__cxx1112basic_stringIcSt11char_traitsIcESaIcEE16_M_construct_auxIPKcEEvT_S8_St12__false_type
FN:232,_ZNSt7__cxx1112basic_stringIcSt11char_traitsIcESaIcEE16_M_construct_auxIPcEEvT_S7_St12__false_type
FN:252,_ZNSt7__cxx1112basic_stringIcSt11char_traitsIcESaIcEE12_M_constructIPKcEEvT_S8_
FN:252,_ZNSt7__cxx1112basic_stringIcSt11char_traitsIcESaIcEE12_M_constructIPcEEvT_S7_
FNDA:0,_ZNSt7__cxx1112basic_stringIcSt11char_traitsIcESaIcEE16_M_construct_auxIPcEEvT_S7_St12__false_type
FNDA:0,_ZNSt7__cxx1112basic_stringIcSt11char_traitsIcESaIcEE16_M_construct_auxIPKcEEvT_S8_St12__false_type
FNDA:0,_ZNSt7__cxx1112basic_stringIcSt11char_traitsIcESaIcEE12_M_constructIPcEEvT_S7_
FNDA:0,_ZNSt7__cxx1112basic_stringIcSt11char_traitsIcESaIcEE12_M_constructIPKcEEvT_S8_
FNF:4
FNH:0
DA:232,0
DA:236,0
DA:237,0
DA:252,0
DA:255,0
DA:256,0
LF:6
LH:0
end_of_record
SF:/usr/include/c++/8/bits/basic_string.tcc
FN:206,_ZNSt7__cxx1112basic_stringIcSt11char_traitsIcESaIcEE12_M_constructIPKcEEvT_S8_St20forward_iterator_tag
FN:206,_ZNSt7__cxx1112basic_stringIcSt11char_traitsIcESaIcEE12_M_constructIPcEEvT_S7_St20forward_iterator_tag
FNDA:0,_ZNSt7__cxx1112basic_stringIcSt11char_traitsIcESaIcEE12_M_constructIPcEEvT_S7_St20forward_iterator_tag
FNDA:0,_ZNSt7__cxx1112basic_stringIcSt11char_traitsIcESaIcEE12_M_constructIPKcEEvT_S8_St20forward_iterator_tag
FNF:2
FNH:0
DA:206,0
DA:211,0
DA:212,0
DA:215,0
DA:217,0
DA:219,0
DA:220,0
DA:225,0
DA:226,0
DA:228,0
DA:229,0
DA:232,0
DA:233,0
LF:13
LH:0
end_of_record
SF:/usr/include/c++/8/bits/char_traits.h
FN:316,_ZNSt11char_traitsIcE6lengthEPKc
FNDA:0,_ZNSt11char_traitsIcE6lengthEPKc
FNF:1
FNH:0
DA:316,0
DA:322,0
LF:2
LH:0
end_of_record
SF:/home/leito-chan/Downloads/TPI/transporteUrbano/tests/construirGrillaTEST.cpp
FN:7,_ZN35construirGrillaTEST_grilla_1x1_Test8TestBodyEv
FN:7,_ZN35construirGrillaTEST_grilla_1x1_TestC2Ev
FN:18,_ZN38construirGrillaTEST_varias_celdas_TestC2Ev
FN:18,_ZN38construirGrillaTEST_varias_celdas_Test8TestBodyEv
FN:29,_ZN33construirGrilla_pocas_celdas_TestC2Ev
FN:29,_ZN33construirGrilla_pocas_celdas_Test8TestBodyEv
FNDA:2,_ZN35construirGrillaTEST_grilla_1x1_Test8TestBodyEv
FNDA:2,_ZN35construirGrillaTEST_grilla_1x1_TestC2Ev
FNDA:2,_ZN38construirGrillaTEST_varias_celdas_Test8TestBodyEv
FNDA:2,_ZN38construirGrillaTEST_varias_celdas_TestC2Ev
FNDA:2,_ZN33construirGrilla_pocas_celdas_Test8TestBodyEv
FNDA:2,_ZN33construirGrilla_pocas_celdas_TestC2Ev
FNF:6
FNH:6
DA:7,4
DA:8,2
DA:9,2
DA:10,2
DA:12,2
DA:13,2
DA:14,2
DA:15,2
DA:18,4
DA:19,2
DA:20,2
DA:21,2
DA:23,2
DA:24,2
DA:25,2
DA:26,2
DA:29,4
DA:30,2
DA:31,2
DA:32,2
DA:34,2
DA:35,2
DA:36,2
DA:37,2
DA:40,4
DA:41,2
DA:42,2
DA:43,2
DA:45,2
DA:47,2
DA:48,2
DA:49,2
DA:50,2
DA:51,2
DA:52,2
DA:54,2
DA:55,2
DA:56,2
DA:58,0
DA:59,0
DA:60,0
DA:62,0
DA:63,0
DA:64,0
DA:66,0
DA:67,0
DA:68,0
DA:71,2
LF:48
LH:39
end_of_record
SF:/home/leito-chan/Downloads/TPI/transporteUrbano/lib/googletest-master/googletest/include/gtest/internal/gtest-internal.h
FN:310,_ZN7testing8internal13FloatingPointIdEC2ERKd
FN:337,_ZNK7testing8internal13FloatingPointIdE13exponent_bitsEv
FN:340,_ZNK7testing8internal13FloatingPointIdE13fraction_bitsEv
FN:346,_ZNK7testing8internal13FloatingPointIdE6is_nanEv
FN:358,_ZNK7testing8internal13FloatingPointIdE12AlmostEqualsERKS2_
FN:389,_ZN7testing8internal13FloatingPointIdE24SignAndMagnitudeToBiasedERKy
FN:401,_ZN7testing8internal13FloatingPointIdE38DistanceBetweenSignAndMagnitudeNumbersERKyS4_
FN:466,_ZN7testing8internal15TestFactoryBaseD0Ev
FN:466,_ZN7testing8internal15TestFactoryBaseD2Ev
FN:473,_ZN7testing8internal15TestFactoryBaseC2Ev
FN:484,_ZN7testing8internal15TestFactoryImplI33construirGrilla_pocas_celdas_TestE10CreateTestEv
FN:484,_ZN7testing8internal15TestFactoryImplI57construirGrillaTEST_interseccion_esq_sup_con_esq_inf_TestE10CreateTestEv
FN:484,_ZN7testing8internal15TestFactoryImplI38construirGrillaTEST_varias_celdas_TestE10CreateTestEv
FN:484,_ZN7testing8internal15TestFactoryImplI35construirGrillaTEST_grilla_1x1_TestE10CreateTestEv
FN:505,_ZN7testing8internal12CodeLocationC2ERKNSt7__cxx1112basic_stringIcSt11char_traitsIcESaIcEEEi
FNDA:0,_ZN7testing8internal13FloatingPointIdEC2ERKd
FNDA:0,_ZNK7testing8internal13FloatingPointIdE13exponent_bitsEv
FNDA:0,_ZNK7testing8internal13FloatingPointIdE13fraction_bitsEv
FNDA:0,_ZNK7testing8internal13FloatingPointIdE6is_nanEv
FNDA:0,_ZNK7testing8internal13FloatingPointIdE12AlmostEqualsERKS2_
FNDA:0,_ZN7testing8internal13FloatingPointIdE24SignAndMagnitudeToBiasedERKy
FNDA:0,_ZN7testing8internal13FloatingPointIdE38DistanceBetweenSignAndMagnitudeNumbersERKyS4_
FNDA:0,_ZN7testing8internal15TestFactoryBaseD0Ev
FNDA:0,_ZN7testing8internal15TestFactoryBaseD2Ev
FNDA:0,_ZN7testing8internal15TestFactoryBaseC2Ev
FNDA:2,_ZN7testing8internal15TestFactoryImplI35construirGrillaTEST_grilla_1x1_TestE10CreateTestEv
FNDA:2,_ZN7testing8internal15TestFactoryImplI38construirGrillaTEST_varias_celdas_TestE10CreateTestEv
FNDA:2,_ZN7testing8internal15TestFactoryImplI33construirGrilla_pocas_celdas_TestE10CreateTestEv
FNDA:2,_ZN7testing8internal15TestFactoryImplI57construirGrillaTEST_interseccion_esq_sup_con_esq_inf_TestE10CreateTestEv
FNDA:0,_ZN7testing8internal12CodeLocationC2ERKNSt7__cxx1112basic_stringIcSt11char_traitsIcESaIcEEEi
FNF:15
FNH:4
DA:310,0
DA:337,0
DA:340,0
DA:346,0
DA:349,0
DA:358,0
DA:361,0
DA:363,0
DA:364,0
DA:389,0
DA:390,0
DA:392,0
DA:395,0
DA:401,0
DA:403,0
DA:404,0
DA:405,0
DA:466,0
DA:473,0
DA:484,8
DA:505,0
DA:506,0
LF:22
LH:1
end_of_record
SF:/home/leito-chan/Downloads/TPI/transporteUrbano/lib/googletest-master/googletest/include/gtest/internal/gtest-port.h
FN:1156,_ZN7testing8internal10scoped_ptrINSt7__cxx1112basic_stringIcSt11char_traitsIcESaIcEEEEC2EPS7_
FN:1157,_ZN7testing8internal10scoped_ptrINSt7__cxx1118basic_stringstreamIcSt11char_traitsIcESaIcEEEED2Ev
FN:1157,_ZN7testing8internal10scoped_ptrINSt7__cxx1112basic_stringIcSt11char_traitsIcESaIcEEEED2Ev
FN:1160,_ZNK7testing8internal10scoped_ptrINSt7__cxx1112basic_stringIcSt11char_traitsIcESaIcEEEEptEv
FN:1161,_ZNK7testing8internal10scoped_ptrINSt7__cxx1112basic_stringIcSt11char_traitsIcESaIcEEEE3getEv
FN:1169,_ZN7testing8internal10scoped_ptrINSt7__cxx1112basic_stringIcSt11char_traitsIcESaIcEEEE5resetEPS7_
FN:1169,_ZN7testing8internal10scoped_ptrINSt7__cxx1118basic_stringstreamIcSt11char_traitsIcESaIcEEEE5resetEPS7_
FNDA:0,_ZN7testing8internal10scoped_ptrINSt7__cxx1112basic_stringIcSt11char_traitsIcESaIcEEEEC2EPS7_
FNDA:0,_ZN7testing8internal10scoped_ptrINSt7__cxx1112basic_stringIcSt11char_traitsIcESaIcEEEED2Ev
FNDA:0,_ZN7testing8internal10scoped_ptrINSt7__cxx1118basic_stringstreamIcSt11char_traitsIcESaIcEEEED2Ev
FNDA:0,_ZNK7testing8internal10scoped_ptrINSt7__cxx1112basic_stringIcSt11char_traitsIcESaIcEEEEptEv
FNDA:0,_ZNK7testing8internal10scoped_ptrINSt7__cxx1112basic_stringIcSt11char_traitsIcESaIcEEEE3getEv
FNDA:0,_ZN7testing8internal10scoped_ptrINSt7__cxx1118basic_stringstreamIcSt11char_traitsIcESaIcEEEE5resetEPS7_
FNDA:0,_ZN7testing8internal10scoped_ptrINSt7__cxx1112basic_stringIcSt11char_traitsIcESaIcEEEE5resetEPS7_
FNF:7
FNH:0
DA:1156,0
DA:1157,0
DA:1160,0
DA:1161,0
DA:1169,0
DA:1170,0
DA:1171,0
DA:1172,0
DA:1174,0
DA:1176,0
LF:10
LH:0
end_of_record
SF:/home/leito-chan/Downloads/TPI/transporteUrbano/lib/googletest-master/googletest/include/gtest/gtest-printers.h
FN:222,_ZN16testing_internal26DefaultPrintNonContainerToIiEEvRKT_PSo
FN:222,_ZN16testing_internal26DefaultPrintNonContainerToImEEvRKT_PSo
FN:275,_ZN7testing8internal19FormatForComparisonImiE6FormatB5cxx11ERKm
FN:275,_ZN7testing8internal19FormatForComparisonIimE6FormatB5cxx11ERKi
FN:349,_ZN7testing8internal33FormatForComparisonFailureMessageIimEENSt7__cxx1112basic_stringIcSt11char_traitsIcESaIcEEERKT_RKT0_
FN:349,_ZN7testing8internal33FormatForComparisonFailureMessageImiEENSt7__cxx1112basic_stringIcSt11char_traitsIcESaIcEEERKT_RKT0_
FN:442,_ZN7testing8internal14DefaultPrintToImEEvNS0_15WrapPrinterTypeILNS0_18DefaultPrinterTypeE3EEERKT_PSo
FN:442,_ZN7testing8internal14DefaultPrintToIiEEvNS0_15WrapPrinterTypeILNS0_18DefaultPrinterTypeE3EEERKT_PSo
FN:459,_ZN7testing8internal7PrintToImEEvRKT_PSo
FN:459,_ZN7testing8internal7PrintToIiEEvRKT_PSo
FN:714,_ZN7testing8internal16UniversalPrinterImE5PrintERKmPSo
FN:714,_ZN7testing8internal16UniversalPrinterIiE5PrintERKiPSo
FN:799,_ZN7testing8internal21UniversalTersePrinterImE5PrintERKmPSo
FN:799,_ZN7testing8internal21UniversalTersePrinterIiE5PrintERKiPSo
FN:868,_ZN7testing8internal14UniversalPrintImEEvRKT_PSo
FN:868,_ZN7testing8internal14UniversalPrintIiEEvRKT_PSo
FNDA:0,_ZN16testing_internal26DefaultPrintNonContainerToIiEEvRKT_PSo
FNDA:0,_ZN16testing_internal26DefaultPrintNonContainerToImEEvRKT_PSo
FNDA:0,_ZN7testing8internal19FormatForComparisonIimE6FormatB5cxx11ERKi
FNDA:0,_ZN7testing8internal19FormatForComparisonImiE6FormatB5cxx11ERKm
FNDA:0,_ZN7testing8internal33FormatForComparisonFailureMessageIimEENSt7__cxx1112basic_stringIcSt11char_traitsIcESaIcEEERKT_RKT0_
FNDA:0,_ZN7testing8internal33FormatForComparisonFailureMessageImiEENSt7__cxx1112basic_stringIcSt11char_traitsIcESaIcEEERKT_RKT0_
FNDA:0,_ZN7testing8internal14DefaultPrintToIiEEvNS0_15WrapPrinterTypeILNS0_18DefaultPrinterTypeE3EEERKT_PSo
FNDA:0,_ZN7testing8internal14DefaultPrintToImEEvNS0_15WrapPrinterTypeILNS0_18DefaultPrinterTypeE3EEERKT_PSo
FNDA:0,_ZN7testing8internal7PrintToIiEEvRKT_PSo
FNDA:0,_ZN7testing8internal7PrintToImEEvRKT_PSo
FNDA:0,_ZN7testing8internal16UniversalPrinterIiE5PrintERKiPSo
FNDA:0,_ZN7testing8internal16UniversalPrinterImE5PrintERKmPSo
FNDA:0,_ZN7testing8internal21UniversalTersePrinterIiE5PrintERKiPSo
FNDA:0,_ZN7testing8internal21UniversalTersePrinterImE5PrintERKmPSo
FNDA:0,_ZN7testing8internal14UniversalPrintIiEEvRKT_PSo
FNDA:0,_ZN7testing8internal14UniversalPrintImEEvRKT_PSo
FNF:16
FNH:0
DA:222,0
DA:249,0
DA:250,0
DA:275,0
DA:276,0
DA:349,0
DA:351,0
DA:442,0
DA:444,0
DA:445,0
DA:459,0
DA:481,0
DA:494,0
DA:714,0
DA:723,0
DA:724,0
DA:799,0
DA:800,0
DA:801,0
DA:868,0
DA:872,0
DA:873,0
DA:996,0
DA:997,0
DA:998,0
DA:999,0
LF:26
LH:0
end_of_record
SF:/home/leito-chan/Downloads/TPI/transporteUrbano/lib/googletest-master/googletest/include/gtest/gtest.h
FN:272,_ZN7testing15AssertionResultC2IbEERKT_PNS_8internal8EnableIfIXntsrNS5_21ImplicitlyConvertibleIS2_S0_EE5valueEE4typeE
FN:288,_ZNK7testing15AssertionResultcvbEv
FN:297,_ZNK7testing15AssertionResult7messageEv
FN:302,_ZNK7testing15AssertionResult15failure_messageEv
FN:389,_ZN7testing4Test13SetUpTestCaseEv
FN:397,_ZN7testing4Test16TearDownTestCaseEv
FN:474,_ZN7testing4Test5SetupEv
FN:1375,_ZN7testing8internal18CmpHelperEQFailureImiEENS_15AssertionResultEPKcS4_RKT_RKT0_
FN:1387,_ZN7testing8internal11CmpHelperEQImiEENS_15AssertionResultEPKcS4_RKT_RKT0_
FN:1417,_ZN7testing8internal8EqHelperILb0EE7CompareImiEENS_15AssertionResultEPKcS6_RKT_RKT0_
FN:1631,_ZN7testing8internal24CmpHelperFloatingPointEQIdEENS_15AssertionResultEPKcS4_T_S5_
FNDA:0,_ZN7testing15AssertionResultC2IbEERKT_PNS_8internal8EnableIfIXntsrNS5_21ImplicitlyConvertibleIS2_S0_EE5valueEE4typeE
FNDA:0,_ZNK7testing15AssertionResultcvbEv
FNDA:0,_ZNK7testing15AssertionResult7messageEv
FNDA:0,_ZNK7testing15AssertionResult15failure_messageEv
FNDA:0,_ZN7testing4Test13SetUpTestCaseEv
FNDA:0,_ZN7testing4Test16TearDownTestCaseEv
FNDA:0,_ZN7testing4Test5SetupEv
FNDA:0,_ZN7testing8internal18CmpHelperEQFailureImiEENS_15AssertionResultEPKcS4_RKT_RKT0_
FNDA:0,_ZN7testing8internal11CmpHelperEQImiEENS_15AssertionResultEPKcS4_RKT_RKT0_
FNDA:0,_ZN7testing8internal8EqHelperILb0EE7CompareImiEENS_15AssertionResultEPKcS6_RKT_RKT0_
FNDA:0,_ZN7testing8internal24CmpHelperFloatingPointEQIdEENS_15AssertionResultEPKcS4_T_S5_
FNF:11
FNH:0
DA:272,0
DA:277,0
DA:288,0
DA:297,0
DA:298,0
DA:302,0
DA:389,0
DA:397,0
DA:474,0
DA:1375,0
DA:1382,0
DA:1387,0
DA:1392,0
DA:1393,0
DA:1397,0
DA:1417,0
DA:1421,0
DA:1631,0
DA:1635,0
DA:1637,0
DA:1638,0
DA:1641,0
DA:1642,0
DA:1643,0
DA:1645,0
DA:1646,0
DA:1647,0
DA:1653,0
LF:28
LH:0
end_of_record
SF:/usr/include/c++/8/iomanip
FN:195,_ZSt12setprecisioni
FNDA:0,_ZSt12setprecisioni
FNF:1
FNH:0
DA:195,0
DA:196,0
LF:2
LH:0
end_of_record
SF:/usr/include/c++/8/bits/ios_base.h
FN:129,_ZStorSt13_Ios_OpenmodeS_
FNDA:0,_ZStorSt13_Ios_OpenmodeS_
FNF:1
FNH:0
DA:129,0
DA:130,0
LF:2
LH:0
end_of_record
SF:/usr/include/c++/8/bits/move.h
FN:99,_ZSt4moveIRSaIcEEONSt16remove_referenceIT_E4typeEOS3_
FNDA:0,_ZSt4moveIRSaIcEEONSt16remove_referenceIT_E4typeEOS3_
FNF:1
FNH:0
DA:99,0
DA:100,0
LF:2
LH:0
end_of_record
SF:/usr/include/c++/8/ext/new_allocator.h
FN:79,_ZN9__gnu_cxx13new_allocatorIcEC2Ev
FN:81,_ZN9__gnu_cxx13new_allocatorIcEC2ERKS1_
FN:86,_ZN9__gnu_cxx13new_allocatorISt5tupleIJS1_IJddEES2_S1_IJiiEEEEED2Ev
FN:86,_ZN9__gnu_cxx13new_allocatorIcED2Ev
FN:116,_ZN9__gnu_cxx13new_allocatorISt5tupleIJS1_IJddEES2_S1_IJiiEEEEE10deallocateEPS4_m
FNDA:0,_ZN9__gnu_cxx13new_allocatorIcEC2Ev
FNDA:0,_ZN9__gnu_cxx13new_allocatorIcEC2ERKS1_
FNDA:0,_ZN9__gnu_cxx13new_allocatorISt5tupleIJS1_IJddEES2_S1_IJiiEEEEED2Ev
FNDA:0,_ZN9__gnu_cxx13new_allocatorIcED2Ev
FNDA:0,_ZN9__gnu_cxx13new_allocatorISt5tupleIJS1_IJddEES2_S1_IJiiEEEEE10deallocateEPS4_m
FNF:5
FNH:0
DA:79,0
DA:81,0
DA:86,0
DA:116,0
DA:125,0
DA:126,0
LF:6
LH:0
end_of_record
SF:/usr/include/c++/8/bits/stl_construct.h
FN:117,_ZNSt12_Destroy_auxILb1EE9__destroyIPSt5tupleIJS2_IJddEES3_S2_IJiiEEEEEEvT_S7_
FN:127,_ZSt8_DestroyIPSt5tupleIJS0_IJddEES1_S0_IJiiEEEEEvT_S5_
FN:203,_ZSt8_DestroyIPSt5tupleIJS0_IJddEES1_S0_IJiiEEEES3_EvT_S5_RSaIT0_E
FNDA:0,_ZNSt12_Destroy_auxILb1EE9__destroyIPSt5tupleIJS2_IJddEES3_S2_IJiiEEEEEEvT_S7_
FNDA:0,_ZSt8_DestroyIPSt5tupleIJS0_IJddEES1_S0_IJiiEEEEEvT_S5_
FNDA:0,_ZSt8_DestroyIPSt5tupleIJS0_IJddEES1_S0_IJiiEEEES3_EvT_S5_RSaIT0_E
FNF:3
FNH:0
DA:117,0
DA:127,0
DA:137,0
DA:138,0
DA:203,0
DA:206,0
DA:207,0
LF:7
LH:0
end_of_record
SF:/usr/include/c++/8/bits/stl_iterator_base_funcs.h
FN:98,_ZSt10__distanceIPKcENSt15iterator_traitsIT_E15difference_typeES3_S3_St26random_access_iterator_tag
FN:98,_ZSt10__distanceIPcENSt15iterator_traitsIT_E15difference_typeES2_S2_St26random_access_iterator_tag
FNDA:0,_ZSt10__distanceIPcENSt15iterator_traitsIT_E15difference_typeES2_S2_St26random_access_iterator_tag
FNDA:0,_ZSt10__distanceIPKcENSt15iterator_traitsIT_E15difference_typeES3_S3_St26random_access_iterator_tag
FNF:2
FNH:0
DA:98,0
DA:104,0
DA:138,0
DA:141,0
DA:142,0
LF:5
LH:0
end_of_record
SF:/usr/include/c++/8/bits/stl_iterator_base_types.h
FN:205,_ZSt19__iterator_categoryIPKcENSt15iterator_traitsIT_E17iterator_categoryERKS3_
FN:205,_ZSt19__iterator_categoryIPcENSt15iterator_traitsIT_E17iterator_categoryERKS2_
FNDA:0,_ZSt19__iterator_categoryIPcENSt15iterator_traitsIT_E17iterator_categoryERKS2_
FNDA:0,_ZSt19__iterator_categoryIPKcENSt15iterator_traitsIT_E17iterator_categoryERKS3_
FNF:2
FNH:0
DA:205,0
DA:206,0
LF:2
LH:0
end_of_record
SF:/usr/include/c++/8/bits/stl_vector.h
FN:237,_ZNSt12_Vector_baseISt5tupleIJS0_IJddEES1_S0_IJiiEEEESaIS3_EE19_M_get_Tp_allocatorEv
FN:283,_ZNSt12_Vector_baseISt5tupleIJS0_IJddEES1_S0_IJiiEEEESaIS3_EED2Ev
FN:300,_ZNSt12_Vector_baseISt5tupleIJS0_IJddEES1_S0_IJiiEEEESaIS3_EE13_M_deallocateEPS3_m
FN:565,_ZNSt6vectorISt5tupleIJS0_IJddEES1_S0_IJiiEEEESaIS3_EED2Ev
FN:805,_ZNKSt6vectorISt5tupleIJS0_IJddEES1_S0_IJiiEEEESaIS3_EE4sizeEv
FN:930,_ZNSt6vectorISt5tupleIJS0_IJddEES1_S0_IJiiEEEESaIS3_EEixEm
FNDA:0,_ZNSt12_Vector_baseISt5tupleIJS0_IJddEES1_S0_IJiiEEEESaIS3_EE19_M_get_Tp_allocatorEv
FNDA:0,_ZNSt12_Vector_baseISt5tupleIJS0_IJddEES1_S0_IJiiEEEESaIS3_EED2Ev
FNDA:0,_ZNSt12_Vector_baseISt5tupleIJS0_IJddEES1_S0_IJiiEEEESaIS3_EE13_M_deallocateEPS3_m
FNDA:0,_ZNSt6vectorISt5tupleIJS0_IJddEES1_S0_IJiiEEEESaIS3_EED2Ev
FNDA:0,_ZNKSt6vectorISt5tupleIJS0_IJddEES1_S0_IJiiEEEESaIS3_EE4sizeEv
FNDA:0,_ZNSt6vectorISt5tupleIJS0_IJddEES1_S0_IJiiEEEESaIS3_EEixEm
FNF:6
FNH:0
DA:237,0
DA:238,0
DA:283,0
DA:285,0
DA:286,0
DA:287,0
DA:300,0
DA:303,0
DA:304,0
DA:305,0
DA:565,0
DA:567,0
DA:568,0
DA:570,0
DA:805,0
DA:806,0
DA:930,0
DA:933,0
LF:18
LH:0
end_of_record
SF:/usr/include/c++/8/tuple
FN:160,_ZNSt10_Head_baseILm0EdLb0EE7_M_headERS0_
FN:160,_ZNSt10_Head_baseILm1EdLb0EE7_M_headERS0_
FN:195,_ZNSt11_Tuple_implILm0EJddEE7_M_headERS0_
FN:351,_ZNSt11_Tuple_implILm1EJdEE7_M_headERS0_
FN:1303,_ZSt12__get_helperILm1EdJEERT0_RSt11_Tuple_implIXT_EJS0_DpT1_EE
FN:1303,_ZSt12__get_helperILm0EdJdEERT0_RSt11_Tuple_implIXT_EJS0_DpT1_EE
FN:1314,_ZSt3getILm1EJddEERNSt13tuple_elementIXT_ESt5tupleIJDpT0_EEE4typeERS4_
FN:1314,_ZSt3getILm0EJddEERNSt13tuple_elementIXT_ESt5tupleIJDpT0_EEE4typeERS4_
FNDA:0,_ZNSt10_Head_baseILm0EdLb0EE7_M_headERS0_
FNDA:0,_ZNSt10_Head_baseILm1EdLb0EE7_M_headERS0_
FNDA:0,_ZNSt11_Tuple_implILm0EJddEE7_M_headERS0_
FNDA:0,_ZNSt11_Tuple_implILm1EJdEE7_M_headERS0_
FNDA:0,_ZSt12__get_helperILm1EdJEERT0_RSt11_Tuple_implIXT_EJS0_DpT1_EE
FNDA:0,_ZSt12__get_helperILm0EdJdEERT0_RSt11_Tuple_implIXT_EJS0_DpT1_EE
FNDA:0,_ZSt3getILm1EJddEERNSt13tuple_elementIXT_ESt5tupleIJDpT0_EEE4typeERS4_
FNDA:0,_ZSt3getILm0EJddEERNSt13tuple_elementIXT_ESt5tupleIJDpT0_EEE4typeERS4_
FNF:8
FNH:0
DA:160,0
DA:195,0
DA:351,0
DA:1303,0
DA:1304,0
DA:1314,0
DA:1315,0
LF:7
LH:0
end_of_record
SF:/usr/include/c++/8/ext/type_traits.h
FN:152,_ZN9__gnu_cxx17__is_null_pointerIcEEbPT_
FN:152,_ZN9__gnu_cxx17__is_null_pointerIKcEEbPT_
FNDA:0,_ZN9__gnu_cxx17__is_null_pointerIcEEbPT_
FNDA:0,_ZN9__gnu_cxx17__is_null_pointerIKcEEbPT_
FNF:2
FNH:0
DA:152,0
DA:153,0
LF:2
LH:0
end_of_record
TN:
SF:/usr/include/c++/8/bits/alloc_traits.h
FN:435,_ZNSt16allocator_traitsISaISt5tupleIJdS0_IJddEEEEEE8allocateERS3_m
FN:461,_ZNSt16allocator_traitsISaISt5tupleIJdS0_IJddEEEEEE10deallocateERS3_PS2_m
FN:504,_ZNSt16allocator_traitsISaISt5tupleIJdS0_IJddEEEEEE37select_on_container_copy_constructionERKS3_
FN:504,_ZNSt16allocator_traitsISaIcEE37select_on_container_copy_constructionERKS0_
FNDA:0,_ZNSt16allocator_traitsISaISt5tupleIJdS0_IJddEEEEEE8allocateERS3_m
FNDA:0,_ZNSt16allocator_traitsISaISt5tupleIJdS0_IJddEEEEEE10deallocateERS3_PS2_m
FNDA:0,_ZNSt16allocator_traitsISaISt5tupleIJdS0_IJddEEEEEE37select_on_container_copy_constructionERKS3_
FNDA:0,_ZNSt16allocator_traitsISaIcEE37select_on_container_copy_constructionERKS0_
FNF:4
FNH:0
DA:435,0
DA:436,0
DA:461,0
DA:462,0
DA:504,0
DA:505,0
LF:6
LH:0
end_of_record
SF:/usr/include/c++/8/ext/alloc_traits.h
FN:94,_ZN9__gnu_cxx14__alloc_traitsISaIcEcE17_S_select_on_copyERKS1_
FN:94,_ZN9__gnu_cxx14__alloc_traitsISaISt5tupleIJdS1_IJddEEEEES3_E17_S_select_on_copyERKS4_
FNDA:0,_ZN9__gnu_cxx14__alloc_traitsISaISt5tupleIJdS1_IJddEEEEES3_E17_S_select_on_copyERKS4_
FNDA:0,_ZN9__gnu_cxx14__alloc_traitsISaIcEcE17_S_select_on_copyERKS1_
FNF:2
FNH:0
DA:94,0
DA:95,0
LF:2
LH:0
end_of_record
SF:/usr/include/c++/8/bits/allocator.h
FN:131,_ZNSaISt5tupleIJdS_IJddEEEEEC2Ev
FN:133,_ZNSaISt5tupleIJdS_IJddEEEEEC2ERKS2_
FN:139,_ZNSaISt5tupleIJdS_IJddEEEEED2Ev
FNDA:0,_ZNSaISt5tupleIJdS_IJddEEEEEC2Ev
FNDA:0,_ZNSaISt5tupleIJdS_IJddEEEEEC2ERKS2_
FNDA:0,_ZNSaISt5tupleIJdS_IJddEEEEED2Ev
FNF:3
FNH:0
DA:131,0
DA:133,0
DA:134,0
DA:139,0
LF:4
LH:0
end_of_record
SF:/usr/include/c++/8/bits/basic_string.h
FN:232,_ZNSt7__cxx1112basic_stringIcSt11char_traitsIcESaIcEE16_M_construct_auxIPcEEvT_S7_St12__false_type
FN:232,_ZNSt7__cxx1112basic_stringIcSt11char_traitsIcESaIcEE16_M_construct_auxIPKcEEvT_S8_St12__false_type
FN:252,_ZNSt7__cxx1112basic_stringIcSt11char_traitsIcESaIcEE12_M_constructIPcEEvT_S7_
FN:252,_ZNSt7__cxx1112basic_stringIcSt11char_traitsIcESaIcEE12_M_constructIPKcEEvT_S8_
FNDA:0,_ZNSt7__cxx1112basic_stringIcSt11char_traitsIcESaIcEE16_M_construct_auxIPcEEvT_S7_St12__false_type
FNDA:0,_ZNSt7__cxx1112basic_stringIcSt11char_traitsIcESaIcEE16_M_construct_auxIPKcEEvT_S8_St12__false_type
FNDA:0,_ZNSt7__cxx1112basic_stringIcSt11char_traitsIcESaIcEE12_M_constructIPcEEvT_S7_
FNDA:0,_ZNSt7__cxx1112basic_stringIcSt11char_traitsIcESaIcEE12_M_constructIPKcEEvT_S8_
FNF:4
FNH:0
DA:232,0
DA:236,0
DA:237,0
DA:252,0
DA:255,0
DA:256,0
LF:6
LH:0
end_of_record
SF:/usr/include/c++/8/bits/basic_string.tcc
FN:206,_ZNSt7__cxx1112basic_stringIcSt11char_traitsIcESaIcEE12_M_constructIPcEEvT_S7_St20forward_iterator_tag
FN:206,_ZNSt7__cxx1112basic_stringIcSt11char_traitsIcESaIcEE12_M_constructIPKcEEvT_S8_St20forward_iterator_tag
FNDA:0,_ZNSt7__cxx1112basic_stringIcSt11char_traitsIcESaIcEE12_M_constructIPcEEvT_S7_St20forward_iterator_tag
FNDA:0,_ZNSt7__cxx1112basic_stringIcSt11char_traitsIcESaIcEE12_M_constructIPKcEEvT_S8_St20forward_iterator_tag
FNF:2
FNH:0
DA:206,0
DA:211,0
DA:212,0
DA:215,0
DA:217,0
DA:219,0
DA:220,0
DA:225,0
DA:226,0
DA:228,0
DA:229,0
DA:232,0
DA:233,0
LF:13
LH:0
end_of_record
SF:/usr/include/c++/8/bits/char_traits.h
FN:316,_ZNSt11char_traitsIcE6lengthEPKc
FNDA:0,_ZNSt11char_traitsIcE6lengthEPKc
FNF:1
FNH:0
DA:316,0
DA:322,0
LF:2
LH:0
end_of_record
SF:/home/leito-chan/Downloads/TPI/transporteUrbano/lib/googletest-master/googletest/include/gtest/internal/gtest-internal.h
FN:310,_ZN7testing8internal13FloatingPointIdEC2ERKd
FN:337,_ZNK7testing8internal13FloatingPointIdE13exponent_bitsEv
FN:340,_ZNK7testing8internal13FloatingPointIdE13fraction_bitsEv
FN:346,_ZNK7testing8internal13FloatingPointIdE6is_nanEv
FN:358,_ZNK7testing8internal13FloatingPointIdE12AlmostEqualsERKS2_
FN:389,_ZN7testing8internal13FloatingPointIdE24SignAndMagnitudeToBiasedERKy
FN:401,_ZN7testing8internal13FloatingPointIdE38DistanceBetweenSignAndMagnitudeNumbersERKyS4_
FN:466,_ZN7testing8internal15TestFactoryBaseD0Ev
FN:466,_ZN7testing8internal15TestFactoryBaseD2Ev
FN:473,_ZN7testing8internal15TestFactoryBaseC2Ev
FN:484,_ZN7testing8internal15TestFactoryImplI38tiempoTotalTEST_viaje_desordenado_TestE10CreateTestEv
FN:484,_ZN7testing8internal15TestFactoryImplI35tiempoTotalTEST_viaje_ordenado_TestE10CreateTestEv
FN:484,_ZN7testing8internal15TestFactoryImplI39tiempoTotalTEST_viaje_ida_y_vuelta_TestE10CreateTestEv
FN:484,_ZN7testing8internal15TestFactoryImplI33tiempoTotalTEST_viaje_parado_TestE10CreateTestEv
FN:505,_ZN7testing8internal12CodeLocationC2ERKNSt7__cxx1112basic_stringIcSt11char_traitsIcESaIcEEEi
FNDA:36,_ZN7testing8internal13FloatingPointIdEC2ERKd
FNDA:36,_ZNK7testing8internal13FloatingPointIdE13exponent_bitsEv
FNDA:0,_ZNK7testing8internal13FloatingPointIdE13fraction_bitsEv
FNDA:36,_ZNK7testing8internal13FloatingPointIdE6is_nanEv
FNDA:18,_ZNK7testing8internal13FloatingPointIdE12AlmostEqualsERKS2_
FNDA:36,_ZN7testing8internal13FloatingPointIdE24SignAndMagnitudeToBiasedERKy
FNDA:18,_ZN7testing8internal13FloatingPointIdE38DistanceBetweenSignAndMagnitudeNumbersERKyS4_
FNDA:0,_ZN7testing8internal15TestFactoryBaseD0Ev
FNDA:0,_ZN7testing8internal15TestFactoryBaseD2Ev
FNDA:0,_ZN7testing8internal15TestFactoryBaseC2Ev
FNDA:2,_ZN7testing8internal15TestFactoryImplI38tiempoTotalTEST_viaje_desordenado_TestE10CreateTestEv
FNDA:2,_ZN7testing8internal15TestFactoryImplI35tiempoTotalTEST_viaje_ordenado_TestE10CreateTestEv
FNDA:2,_ZN7testing8internal15TestFactoryImplI33tiempoTotalTEST_viaje_parado_TestE10CreateTestEv
FNDA:2,_ZN7testing8internal15TestFactoryImplI39tiempoTotalTEST_viaje_ida_y_vuelta_TestE10CreateTestEv
FNDA:0,_ZN7testing8internal12CodeLocationC2ERKNSt7__cxx1112basic_stringIcSt11char_traitsIcESaIcEEEi
FNF:15
FNH:10
DA:310,36
DA:337,36
DA:340,0
DA:346,36
DA:349,36
DA:358,18
DA:361,18
DA:363,18
DA:364,18
DA:389,36
DA:390,36
DA:392,0
DA:395,36
DA:401,18
DA:403,18
DA:404,18
DA:405,18
DA:466,0
DA:473,0
DA:484,8
DA:505,0
DA:506,0
LF:22
LH:16
end_of_record
SF:/home/leito-chan/Downloads/TPI/transporteUrbano/lib/googletest-master/googletest/include/gtest/internal/gtest-port.h
FN:1157,_ZN7testing8internal10scoped_ptrINSt7__cxx1118basic_stringstreamIcSt11char_traitsIcESaIcEEEED2Ev
FN:1157,_ZN7testing8internal10scoped_ptrINSt7__cxx1112basic_stringIcSt11char_traitsIcESaIcEEEED2Ev
FN:1160,_ZNK7testing8internal10scoped_ptrINSt7__cxx1112basic_stringIcSt11char_traitsIcESaIcEEEEptEv
FN:1161,_ZNK7testing8internal10scoped_ptrINSt7__cxx1112basic_stringIcSt11char_traitsIcESaIcEEEE3getEv
FN:1169,_ZN7testing8internal10scoped_ptrINSt7__cxx1112basic_stringIcSt11char_traitsIcESaIcEEEE5resetEPS7_
FN:1169,_ZN7testing8internal10scoped_ptrINSt7__cxx1118basic_stringstreamIcSt11char_traitsIcESaIcEEEE5resetEPS7_
FNDA:0,_ZN7testing8internal10scoped_ptrINSt7__cxx1112basic_stringIcSt11char_traitsIcESaIcEEEED2Ev
FNDA:0,_ZN7testing8internal10scoped_ptrINSt7__cxx1118basic_stringstreamIcSt11char_traitsIcESaIcEEEED2Ev
FNDA:0,_ZNK7testing8internal10scoped_ptrINSt7__cxx1112basic_stringIcSt11char_traitsIcESaIcEEEEptEv
FNDA:0,_ZNK7testing8internal10scoped_ptrINSt7__cxx1112basic_stringIcSt11char_traitsIcESaIcEEEE3getEv
FNDA:0,_ZN7testing8internal10scoped_ptrINSt7__cxx1118basic_stringstreamIcSt11char_traitsIcESaIcEEEE5resetEPS7_
FNDA:0,_ZN7testing8internal10scoped_ptrINSt7__cxx1112basic_stringIcSt11char_traitsIcESaIcEEEE5resetEPS7_
FNF:6
FNH:0
DA:1157,0
DA:1160,0
DA:1161,0
DA:1169,0
DA:1170,0
DA:1171,0
DA:1172,0
DA:1174,0
DA:1176,0
LF:9
LH:0
end_of_record
SF:/home/leito-chan/Downloads/TPI/transporteUrbano/lib/googletest-master/googletest/include/gtest/gtest.h
FN:288,_ZNK7testing15AssertionResultcvbEv
FN:297,_ZNK7testing15AssertionResult7messageEv
FN:302,_ZNK7testing15AssertionResult15failure_messageEv
FN:389,_ZN7testing4Test13SetUpTestCaseEv
FN:397,_ZN7testing4Test16TearDownTestCaseEv
FN:474,_ZN7testing4Test5SetupEv
FN:1631,_ZN7testing8internal24CmpHelperFloatingPointEQIdEENS_15AssertionResultEPKcS4_T_S5_
FNDA:0,_ZNK7testing15AssertionResultcvbEv
FNDA:0,_ZNK7testing15AssertionResult7messageEv
FNDA:0,_ZNK7testing15AssertionResult15failure_messageEv
FNDA:0,_ZN7testing4Test13SetUpTestCaseEv
FNDA:0,_ZN7testing4Test16TearDownTestCaseEv
FNDA:0,_ZN7testing4Test5SetupEv
FNDA:18,_ZN7testing8internal24CmpHelperFloatingPointEQIdEENS_15AssertionResultEPKcS4_T_S5_
FNF:7
FNH:1
DA:288,0
DA:297,0
DA:298,0
DA:302,0
DA:389,0
DA:397,0
DA:474,0
DA:1631,18
DA:1635,18
DA:1637,18
DA:1638,18
DA:1641,0
DA:1642,0
DA:1643,0
DA:1645,0
DA:1646,0
DA:1647,0
DA:1653,0
LF:18
LH:4
end_of_record
SF:/usr/include/c++/8/initializer_list
FN:71,_ZNKSt16initializer_listISt5tupleIJdS0_IJddEEEEE4sizeEv
FN:75,_ZNKSt16initializer_listISt5tupleIJdS0_IJddEEEEE5beginEv
FN:79,_ZNKSt16initializer_listISt5tupleIJdS0_IJddEEEEE3endEv
FNDA:0,_ZNKSt16initializer_listISt5tupleIJdS0_IJddEEEEE4sizeEv
FNDA:0,_ZNKSt16initializer_listISt5tupleIJdS0_IJddEEEEE5beginEv
FNDA:0,_ZNKSt16initializer_listISt5tupleIJdS0_IJddEEEEE3endEv
FNF:3
FNH:0
DA:71,0
DA:75,0
DA:79,0
LF:3
LH:0
end_of_record
SF:/usr/include/c++/8/iomanip
FN:195,_ZSt12setprecisioni
FNDA:264,_ZSt12setprecisioni
FNF:1
FNH:1
DA:195,264
DA:196,264
LF:2
LH:2
end_of_record
SF:/usr/include/c++/8/bits/ios_base.h
FN:129,_ZStorSt13_Ios_OpenmodeS_
FNDA:264,_ZStorSt13_Ios_OpenmodeS_
FNF:1
FNH:1
DA:129,264
DA:130,264
LF:2
LH:2
end_of_record
SF:/usr/include/c++/8/bits/move.h
FN:47,_ZSt11__addressofISt5tupleIJdS0_IJddEEEEEPT_RS3_
FN:74,_ZSt7forwardIRKSt5tupleIJdS0_IJddEEEEEOT_RNSt16remove_referenceIS5_E4typeE
FN:99,_ZSt4moveIRSaIcEEONSt16remove_referenceIT_E4typeEOS3_
FNDA:0,_ZSt11__addressofISt5tupleIJdS0_IJddEEEEEPT_RS3_
FNDA:0,_ZSt7forwardIRKSt5tupleIJdS0_IJddEEEEEOT_RNSt16remove_referenceIS5_E4typeE
FNDA:0,_ZSt4moveIRSaIcEEONSt16remove_referenceIT_E4typeEOS3_
FNF:3
FNH:0
DA:47,0
DA:48,0
DA:74,0
DA:75,0
DA:99,0
DA:100,0
LF:6
LH:0
end_of_record
SF:/usr/include/c++/8/new
FN:168,_ZnwmPv
FNDA:0,_ZnwmPv
FNF:1
FNH:0
DA:168,0
DA:169,0
LF:2
LH:0
end_of_record
SF:/usr/include/c++/8/ext/new_allocator.h
FN:79,_ZN9__gnu_cxx13new_allocatorIcEC2Ev
FN:79,_ZN9__gnu_cxx13new_allocatorISt5tupleIJdS1_IJddEEEEEC2Ev
FN:81,_ZN9__gnu_cxx13new_allocatorISt5tupleIJdS1_IJddEEEEEC2ERKS4_
FN:81,_ZN9__gnu_cxx13new_allocatorIcEC2ERKS1_
FN:86,_ZN9__gnu_cxx13new_allocatorISt5tupleIJdS1_IJddEEEEED2Ev
FN:86,_ZN9__gnu_cxx13new_allocatorIcED2Ev
FN:99,_ZN9__gnu_cxx13new_allocatorISt5tupleIJdS1_IJddEEEEE8allocateEmPKv
FN:116,_ZN9__gnu_cxx13new_allocatorISt5tupleIJdS1_IJddEEEEE10deallocateEPS3_m
FN:129,_ZNK9__gnu_cxx13new_allocatorISt5tupleIJdS1_IJddEEEEE8max_sizeEv
FNDA:0,_ZN9__gnu_cxx13new_allocatorISt5tupleIJdS1_IJddEEEEEC2Ev
FNDA:0,_ZN9__gnu_cxx13new_allocatorIcEC2Ev
FNDA:0,_ZN9__gnu_cxx13new_allocatorISt5tupleIJdS1_IJddEEEEEC2ERKS4_
FNDA:0,_ZN9__gnu_cxx13new_allocatorIcEC2ERKS1_
FNDA:0,_ZN9__gnu_cxx13new_allocatorISt5tupleIJdS1_IJddEEEEED2Ev
FNDA:0,_ZN9__gnu_cxx13new_allocatorIcED2Ev
FNDA:0,_ZN9__gnu_cxx13new_allocatorISt5tupleIJdS1_IJddEEEEE8allocateEmPKv
FNDA:0,_ZN9__gnu_cxx13new_allocatorISt5tupleIJdS1_IJddEEEEE10deallocateEPS3_m
FNDA:0,_ZNK9__gnu_cxx13new_allocatorISt5tupleIJdS1_IJddEEEEE8max_sizeEv
FNF:9
FNH:0
DA:79,0
DA:81,0
DA:86,0
DA:99,0
DA:101,0
DA:102,0
DA:111,0
DA:116,0
DA:125,0
DA:126,0
DA:129,0
DA:130,0
LF:12
LH:0
end_of_record
SF:/usr/include/c++/8/bits/stl_construct.h
FN:74,_ZSt10_ConstructISt5tupleIJdS0_IJddEEEEJRKS2_EEvPT_DpOT0_
FN:117,_ZNSt12_Destroy_auxILb1EE9__destroyIPSt5tupleIJdS2_IJddEEEEEEvT_S6_
FN:127,_ZSt8_DestroyIPSt5tupleIJdS0_IJddEEEEEvT_S4_
FN:203,_ZSt8_DestroyIPSt5tupleIJdS0_IJddEEEES2_EvT_S4_RSaIT0_E
FNDA:0,_ZSt10_ConstructISt5tupleIJdS0_IJddEEEEJRKS2_EEvPT_DpOT0_
FNDA:0,_ZNSt12_Destroy_auxILb1EE9__destroyIPSt5tupleIJdS2_IJddEEEEEEvT_S6_
FNDA:0,_ZSt8_DestroyIPSt5tupleIJdS0_IJddEEEEEvT_S4_
FNDA:0,_ZSt8_DestroyIPSt5tupleIJdS0_IJddEEEES2_EvT_S4_RSaIT0_E
FNF:4
FNH:0
DA:74,0
DA:75,0
DA:117,0
DA:127,0
DA:137,0
DA:138,0
DA:203,0
DA:206,0
DA:207,0
LF:9
LH:0
end_of_record
SF:/usr/include/c++/8/bits/stl_iterator.h
FN:783,_ZN9__gnu_cxx17__normal_iteratorIPKSt5tupleIJdS1_IJddEEEESt6vectorIS3_SaIS3_EEEC2ERKS5_
FN:796,_ZNK9__gnu_cxx17__normal_iteratorIPKSt5tupleIJdS1_IJddEEEESt6vectorIS3_SaIS3_EEEdeEv
FN:804,_ZN9__gnu_cxx17__normal_iteratorIPKSt5tupleIJdS1_IJddEEEESt6vectorIS3_SaIS3_EEEppEv
FN:848,_ZNK9__gnu_cxx17__normal_iteratorIPKSt5tupleIJdS1_IJddEEEESt6vectorIS3_SaIS3_EEE4baseEv
FN:884,_ZN9__gnu_cxxneIPKSt5tupleIJdS1_IJddEEEESt6vectorIS3_SaIS3_EEEEbRKNS_17__normal_iteratorIT_T0_EESE_
FNDA:0,_ZN9__gnu_cxx17__normal_iteratorIPKSt5tupleIJdS1_IJddEEEESt6vectorIS3_SaIS3_EEEC2ERKS5_
FNDA:0,_ZNK9__gnu_cxx17__normal_iteratorIPKSt5tupleIJdS1_IJddEEEESt6vectorIS3_SaIS3_EEEdeEv
FNDA:0,_ZN9__gnu_cxx17__normal_iteratorIPKSt5tupleIJdS1_IJddEEEESt6vectorIS3_SaIS3_EEEppEv
FNDA:0,_ZNK9__gnu_cxx17__normal_iteratorIPKSt5tupleIJdS1_IJddEEEESt6vectorIS3_SaIS3_EEE4baseEv
FNDA:0,_ZN9__gnu_cxxneIPKSt5tupleIJdS1_IJddEEEESt6vectorIS3_SaIS3_EEEEbRKNS_17__normal_iteratorIT_T0_EESE_
FNF:5
FNH:0
DA:783,0
DA:784,0
DA:796,0
DA:797,0
DA:804,0
DA:806,0
DA:807,0
DA:848,0
DA:849,0
DA:884,0
DA:887,0
LF:11
LH:0
end_of_record
SF:/usr/include/c++/8/bits/stl_iterator_base_funcs.h
FN:98,_ZSt10__distanceIPKSt5tupleIJdS0_IJddEEEEENSt15iterator_traitsIT_E15difference_typeES6_S6_St26random_access_iterator_tag
FN:98,_ZSt10__distanceIPcENSt15iterator_traitsIT_E15difference_typeES2_S2_St26random_access_iterator_tag
FN:98,_ZSt10__distanceIPKcENSt15iterator_traitsIT_E15difference_typeES3_S3_St26random_access_iterator_tag
FNDA:0,_ZSt10__distanceIPcENSt15iterator_traitsIT_E15difference_typeES2_S2_St26random_access_iterator_tag
FNDA:0,_ZSt10__distanceIPKcENSt15iterator_traitsIT_E15difference_typeES3_S3_St26random_access_iterator_tag
FNDA:0,_ZSt10__distanceIPKSt5tupleIJdS0_IJddEEEEENSt15iterator_traitsIT_E15difference_typeES6_S6_St26random_access_iterator_tag
FNF:3
FNH:0
DA:98,0
DA:104,0
DA:138,0
DA:141,0
DA:142,0
LF:5
LH:0
end_of_record
SF:/usr/include/c++/8/bits/stl_iterator_base_types.h
FN:205,_ZSt19__iterator_categoryIPcENSt15iterator_traitsIT_E17iterator_categoryERKS2_
FN:205,_ZSt19__iterator_categoryIPKcENSt15iterator_traitsIT_E17iterator_categoryERKS3_
FN:205,_ZSt19__iterator_categoryIPKSt5tupleIJdS0_IJddEEEEENSt15iterator_traitsIT_E17iterator_categoryERKS6_
FNDA:0,_ZSt19__iterator_categoryIPcENSt15iterator_traitsIT_E17iterator_categoryERKS2_
FNDA:0,_ZSt19__iterator_categoryIPKcENSt15iterator_traitsIT_E17iterator_categoryERKS3_
FNDA:0,_ZSt19__iterator_categoryIPKSt5tupleIJdS0_IJddEEEEENSt15iterator_traitsIT_E17iterator_categoryERKS6_
FNF:3
FNH:0
DA:205,0
DA:206,0
LF:2
LH:0
end_of_record
SF:/usr/include/c++/8/bits/stl_uninitialized.h
FN:76,_ZNSt20__uninitialized_copyILb0EE13__uninit_copyIPKSt5tupleIJdS2_IJddEEEEPS4_EET0_T_S9_S8_
FN:76,_ZNSt20__uninitialized_copyILb0EE13__uninit_copyIN9__gnu_cxx17__normal_iteratorIPKSt5tupleIJdS4_IJddEEEESt6vectorIS6_SaIS6_EEEEPS6_EET0_T_SF_SE_
FN:115,_ZSt18uninitialized_copyIPKSt5tupleIJdS0_IJddEEEEPS2_ET0_T_S7_S6_
FN:115,_ZSt18uninitialized_copyIN9__gnu_cxx17__normal_iteratorIPKSt5tupleIJdS2_IJddEEEESt6vectorIS4_SaIS4_EEEEPS4_ET0_T_SD_SC_
FN:287,_ZSt22__uninitialized_copy_aIPKSt5tupleIJdS0_IJddEEEEPS2_S2_ET0_T_S7_S6_RSaIT1_E
FN:287,_ZSt22__uninitialized_copy_aIN9__gnu_cxx17__normal_iteratorIPKSt5tupleIJdS2_IJddEEEESt6vectorIS4_SaIS4_EEEEPS4_S4_ET0_T_SD_SC_RSaIT1_E
FNDA:0,_ZNSt20__uninitialized_copyILb0EE13__uninit_copyIPKSt5tupleIJdS2_IJddEEEEPS4_EET0_T_S9_S8_
FNDA:0,_ZNSt20__uninitialized_copyILb0EE13__uninit_copyIN9__gnu_cxx17__normal_iteratorIPKSt5tupleIJdS4_IJddEEEESt6vectorIS6_SaIS6_EEEEPS6_EET0_T_SF_SE_
FNDA:0,_ZSt18uninitialized_copyIPKSt5tupleIJdS0_IJddEEEEPS2_ET0_T_S7_S6_
FNDA:0,_ZSt18uninitialized_copyIN9__gnu_cxx17__normal_iteratorIPKSt5tupleIJdS2_IJddEEEESt6vectorIS4_SaIS4_EEEEPS4_ET0_T_SD_SC_
FNDA:0,_ZSt22__uninitialized_copy_aIPKSt5tupleIJdS0_IJddEEEEPS2_S2_ET0_T_S7_S6_RSaIT1_E
FNDA:0,_ZSt22__uninitialized_copy_aIN9__gnu_cxx17__normal_iteratorIPKSt5tupleIJdS2_IJddEEEESt6vectorIS4_SaIS4_EEEEPS4_S4_ET0_T_SD_SC_RSaIT1_E
FNF:6
FNH:0
DA:76,0
DA:79,0
DA:82,0
DA:83,0
DA:84,0
DA:115,0
DA:128,0
DA:134,0
DA:287,0
DA:289,0
LF:10
LH:0
end_of_record
SF:/usr/include/c++/8/bits/stl_vector.h
FN:99,_ZNSt12_Vector_baseISt5tupleIJdS0_IJddEEEESaIS2_EE12_Vector_implC2ERKS3_
FN:237,_ZNSt12_Vector_baseISt5tupleIJdS0_IJddEEEESaIS2_EE19_M_get_Tp_allocatorEv
FN:241,_ZNKSt12_Vector_baseISt5tupleIJdS0_IJddEEEESaIS2_EE19_M_get_Tp_allocatorEv
FN:251,_ZNSt12_Vector_baseISt5tupleIJdS0_IJddEEEESaIS2_EEC2ERKS3_
FN:258,_ZNSt12_Vector_baseISt5tupleIJdS0_IJddEEEESaIS2_EEC2EmRKS3_
FN:283,_ZNSt12_Vector_baseISt5tupleIJdS0_IJddEEEESaIS2_EED2Ev
FN:293,_ZNSt12_Vector_baseISt5tupleIJdS0_IJddEEEESaIS2_EE11_M_allocateEm
FN:300,_ZNSt12_Vector_baseISt5tupleIJdS0_IJddEEEESaIS2_EE13_M_deallocateEPS2_m
FN:309,_ZNSt12_Vector_baseISt5tupleIJdS0_IJddEEEESaIS2_EE17_M_create_storageEm
FN:458,_ZNSt6vectorISt5tupleIJdS0_IJddEEEESaIS2_EEC2ERKS4_
FN:515,_ZNSt6vectorISt5tupleIJdS0_IJddEEEESaIS2_EEC2ESt16initializer_listIS2_ERKS3_
FN:565,_ZNSt6vectorISt5tupleIJdS0_IJddEEEESaIS2_EED2Ev
FN:707,_ZNKSt6vectorISt5tupleIJdS0_IJddEEEESaIS2_EE5beginEv
FN:725,_ZNKSt6vectorISt5tupleIJdS0_IJddEEEESaIS2_EE3endEv
FN:805,_ZNKSt6vectorISt5tupleIJdS0_IJddEEEESaIS2_EE4sizeEv
FN:1462,_ZNSt6vectorISt5tupleIJdS0_IJddEEEESaIS2_EE19_M_range_initializeIPKS2_EEvT_S8_St20forward_iterator_tag
FNDA:0,_ZNSt12_Vector_baseISt5tupleIJdS0_IJddEEEESaIS2_EE12_Vector_implC2ERKS3_
FNDA:0,_ZNSt12_Vector_baseISt5tupleIJdS0_IJddEEEESaIS2_EE19_M_get_Tp_allocatorEv
FNDA:0,_ZNKSt12_Vector_baseISt5tupleIJdS0_IJddEEEESaIS2_EE19_M_get_Tp_allocatorEv
FNDA:0,_ZNSt12_Vector_baseISt5tupleIJdS0_IJddEEEESaIS2_EEC2ERKS3_
FNDA:0,_ZNSt12_Vector_baseISt5tupleIJdS0_IJddEEEESaIS2_EEC2EmRKS3_
FNDA:0,_ZNSt12_Vector_baseISt5tupleIJdS0_IJddEEEESaIS2_EED2Ev
FNDA:0,_ZNSt12_Vector_baseISt5tupleIJdS0_IJddEEEESaIS2_EE11_M_allocateEm
FNDA:0,_ZNSt12_Vector_baseISt5tupleIJdS0_IJddEEEESaIS2_EE13_M_deallocateEPS2_m
FNDA:0,_ZNSt12_Vector_baseISt5tupleIJdS0_IJddEEEESaIS2_EE17_M_create_storageEm
FNDA:0,_ZNSt6vectorISt5tupleIJdS0_IJddEEEESaIS2_EEC2ERKS4_
FNDA:0,_ZNSt6vectorISt5tupleIJdS0_IJddEEEESaIS2_EEC2ESt16initializer_listIS2_ERKS3_
FNDA:0,_ZNSt6vectorISt5tupleIJdS0_IJddEEEESaIS2_EED2Ev
FNDA:0,_ZNKSt6vectorISt5tupleIJdS0_IJddEEEESaIS2_EE5beginEv
FNDA:0,_ZNKSt6vectorISt5tupleIJdS0_IJddEEEESaIS2_EE3endEv
FNDA:0,_ZNKSt6vectorISt5tupleIJdS0_IJddEEEESaIS2_EE4sizeEv
FNDA:0,_ZNSt6vectorISt5tupleIJdS0_IJddEEEESaIS2_EE19_M_range_initializeIPKS2_EEvT_S8_St20forward_iterator_tag
FNF:16
FNH:0
DA:99,0
DA:100,0
DA:101,0
DA:237,0
DA:238,0
DA:241,0
DA:242,0
DA:251,0
DA:252,0
DA:258,0
DA:259,0
DA:260,0
DA:283,0
DA:285,0
DA:286,0
DA:287,0
DA:293,0
DA:296,0
DA:300,0
DA:303,0
DA:304,0
DA:305,0
DA:309,0
DA:311,0
DA:312,0
DA:313,0
DA:314,0
DA:458,0
DA:460,0
DA:462,0
DA:463,0
DA:465,0
DA:466,0
DA:515,0
DA:517,0
DA:519,0
DA:521,0
DA:565,0
DA:567,0
DA:568,0
DA:570,0
DA:707,0
DA:708,0
DA:725,0
DA:726,0
DA:805,0
DA:806,0
DA:1462,0
DA:1465,0
DA:1466,0
DA:1467,0
DA:1468,0
DA:1469,0
DA:1471,0
DA:1472,0
LF:55
LH:0
end_of_record
SF:/home/leito-chan/Downloads/TPI/transporteUrbano/tests/tiempoTotalTEST.cpp
FN:7,_ZN38tiempoTotalTEST_viaje_desordenado_TestC2Ev
FN:7,_ZN38tiempoTotalTEST_viaje_desordenado_Test8TestBodyEv
FN:17,_ZN35tiempoTotalTEST_viaje_ordenado_Test8TestBodyEv
FN:17,_ZN35tiempoTotalTEST_viaje_ordenado_TestC2Ev
FN:27,_ZN33tiempoTotalTEST_viaje_parado_TestC2Ev
FN:27,_ZN33tiempoTotalTEST_viaje_parado_Test8TestBodyEv
FNDA:2,_ZN38tiempoTotalTEST_viaje_desordenado_Test8TestBodyEv
FNDA:2,_ZN38tiempoTotalTEST_viaje_desordenado_TestC2Ev
FNDA:2,_ZN35tiempoTotalTEST_viaje_ordenado_Test8TestBodyEv
FNDA:2,_ZN35tiempoTotalTEST_viaje_ordenado_TestC2Ev
FNDA:2,_ZN33tiempoTotalTEST_viaje_parado_Test8TestBodyEv
FNDA:2,_ZN33tiempoTotalTEST_viaje_parado_TestC2Ev
FNF:6
FNH:6
DA:7,4
DA:8,2
DA:9,2
DA:10,2
DA:11,2
DA:12,8
DA:14,4
DA:17,4
DA:18,2
DA:19,2
DA:20,2
DA:21,2
DA:22,8
DA:24,4
DA:27,4
DA:28,2
DA:29,2
DA:30,4
DA:31,4
DA:34,4
DA:35,2
DA:36,2
DA:37,2
DA:38,6
DA:39,4
LF:25
LH:25
end_of_record
SF:/usr/include/c++/8/ext/type_traits.h
FN:152,_ZN9__gnu_cxx17__is_null_pointerIKcEEbPT_
FN:152,_ZN9__gnu_cxx17__is_null_pointerIcEEbPT_
FNDA:0,_ZN9__gnu_cxx17__is_null_pointerIcEEbPT_
FNDA:0,_ZN9__gnu_cxx17__is_null_pointerIKcEEbPT_
FNF:2
FNH:0
DA:152,0
DA:153,0
LF:2
LH:0
end_of_record
TN:
SF:/usr/include/c++/8/bits/alloc_traits.h
FN:504,_ZNSt16allocator_traitsISaIcEE37select_on_container_copy_constructionERKS0_
FNDA:0,_ZNSt16allocator_traitsISaIcEE37select_on_container_copy_constructionERKS0_
FNF:1
FNH:0
DA:504,0
DA:505,0
LF:2
LH:0
end_of_record
SF:/usr/include/c++/8/ext/alloc_traits.h
FN:94,_ZN9__gnu_cxx14__alloc_traitsISaIcEcE17_S_select_on_copyERKS1_
FNDA:0,_ZN9__gnu_cxx14__alloc_traitsISaIcEcE17_S_select_on_copyERKS1_
FNF:1
FNH:0
DA:94,0
DA:95,0
LF:2
LH:0
end_of_record
SF:/usr/include/c++/8/bits/basic_string.h
FN:232,_ZNSt7__cxx1112basic_stringIcSt11char_traitsIcESaIcEE16_M_construct_auxIPcEEvT_S7_St12__false_type
FN:232,_ZNSt7__cxx1112basic_stringIcSt11char_traitsIcESaIcEE16_M_construct_auxIPKcEEvT_S8_St12__false_type
FN:252,_ZNSt7__cxx1112basic_stringIcSt11char_traitsIcESaIcEE12_M_constructIPcEEvT_S7_
FN:252,_ZNSt7__cxx1112basic_stringIcSt11char_traitsIcESaIcEE12_M_constructIPKcEEvT_S8_
FNDA:0,_ZNSt7__cxx1112basic_stringIcSt11char_traitsIcESaIcEE16_M_construct_auxIPcEEvT_S7_St12__false_type
FNDA:0,_ZNSt7__cxx1112basic_stringIcSt11char_traitsIcESaIcEE16_M_construct_auxIPKcEEvT_S8_St12__false_type
FNDA:0,_ZNSt7__cxx1112basic_stringIcSt11char_traitsIcESaIcEE12_M_constructIPcEEvT_S7_
FNDA:0,_ZNSt7__cxx1112basic_stringIcSt11char_traitsIcESaIcEE12_M_constructIPKcEEvT_S8_
FNF:4
FNH:0
DA:232,0
DA:236,0
DA:237,0
DA:252,0
DA:255,0
DA:256,0
LF:6
LH:0
end_of_record
SF:/usr/include/c++/8/bits/basic_string.tcc
FN:206,_ZNSt7__cxx1112basic_stringIcSt11char_traitsIcESaIcEE12_M_constructIPKcEEvT_S8_St20forward_iterator_tag
FN:206,_ZNSt7__cxx1112basic_stringIcSt11char_traitsIcESaIcEE12_M_constructIPcEEvT_S7_St20forward_iterator_tag
FNDA:0,_ZNSt7__cxx1112basic_stringIcSt11char_traitsIcESaIcEE12_M_constructIPcEEvT_S7_St20forward_iterator_tag
FNDA:0,_ZNSt7__cxx1112basic_stringIcSt11char_traitsIcESaIcEE12_M_constructIPKcEEvT_S8_St20forward_iterator_tag
FNF:2
FNH:0
DA:206,0
DA:211,0
DA:212,0
DA:215,0
DA:217,0
DA:219,0
DA:220,0
DA:225,0
DA:226,0
DA:228,0
DA:229,0
DA:232,0
DA:233,0
LF:13
LH:0
end_of_record
SF:/usr/include/c++/8/bits/char_traits.h
FN:316,_ZNSt11char_traitsIcE6lengthEPKc
FNDA:0,_ZNSt11char_traitsIcE6lengthEPKc
FNF:1
FNH:0
DA:316,0
DA:322,0
LF:2
LH:0
end_of_record
SF:/home/leito-chan/Downloads/TPI/transporteUrbano/tests/distanciaAuxTEST.cpp
FN:8,_ZN45distanciaAuxTEST_distanciaUnoMismoEsCero_Test8TestBodyEv
FN:8,_ZN45distanciaAuxTEST_distanciaUnoMismoEsCero_TestC2Ev
FN:15,_ZN44distanciaAuxTEST_distanciaMoviendoEnLat_Test8TestBodyEv
FN:15,_ZN44distanciaAuxTEST_distanciaMoviendoEnLat_TestC2Ev
FN:22,_ZN44distanciaAuxTEST_distanciaMoviendoEnLng_TestC2Ev
FN:22,_ZN44distanciaAuxTEST_distanciaMoviendoEnLng_Test8TestBodyEv
FN:29,_ZN48distanciaAuxTEST_distanciaMoviendoEnLatYLng_TestC2Ev
FN:29,_ZN48distanciaAuxTEST_distanciaMoviendoEnLatYLng_Test8TestBodyEv
FNDA:2,_ZN45distanciaAuxTEST_distanciaUnoMismoEsCero_Test8TestBodyEv
FNDA:2,_ZN45distanciaAuxTEST_distanciaUnoMismoEsCero_TestC2Ev
FNDA:2,_ZN44distanciaAuxTEST_distanciaMoviendoEnLat_Test8TestBodyEv
FNDA:2,_ZN44distanciaAuxTEST_distanciaMoviendoEnLat_TestC2Ev
FNDA:2,_ZN44distanciaAuxTEST_distanciaMoviendoEnLng_Test8TestBodyEv
FNDA:2,_ZN44distanciaAuxTEST_distanciaMoviendoEnLng_TestC2Ev
FNDA:2,_ZN48distanciaAuxTEST_distanciaMoviendoEnLatYLng_Test8TestBodyEv
FNDA:2,_ZN48distanciaAuxTEST_distanciaMoviendoEnLatYLng_TestC2Ev
FNF:8
FNH:8
DA:8,4
DA:9,2
DA:10,2
DA:12,2
DA:13,2
DA:15,4
DA:16,2
DA:17,2
DA:19,2
DA:20,2
DA:22,4
DA:23,2
DA:24,2
DA:26,2
DA:27,2
DA:29,4
DA:30,2
DA:31,2
DA:33,2
DA:34,2
LF:20
LH:20
end_of_record
SF:/home/leito-chan/Downloads/TPI/transporteUrbano/lib/googletest-master/googletest/include/gtest/internal/gtest-internal.h
FN:466,_ZN7testing8internal15TestFactoryBaseD0Ev
FN:466,_ZN7testing8internal15TestFactoryBaseD2Ev
FN:473,_ZN7testing8internal15TestFactoryBaseC2Ev
FN:484,_ZN7testing8internal15TestFactoryImplI44distanciaAuxTEST_distanciaMoviendoEnLng_TestE10CreateTestEv
FN:484,_ZN7testing8internal15TestFactoryImplI44distanciaAuxTEST_distanciaMoviendoEnLat_TestE10CreateTestEv
FN:484,_ZN7testing8internal15TestFactoryImplI45distanciaAuxTEST_distanciaUnoMismoEsCero_TestE10CreateTestEv
FN:484,_ZN7testing8internal15TestFactoryImplI48distanciaAuxTEST_distanciaMoviendoEnLatYLng_TestE10CreateTestEv
FN:505,_ZN7testing8internal12CodeLocationC2ERKNSt7__cxx1112basic_stringIcSt11char_traitsIcESaIcEEEi
FNDA:0,_ZN7testing8internal15TestFactoryBaseD0Ev
FNDA:88,_ZN7testing8internal15TestFactoryBaseD2Ev
FNDA:88,_ZN7testing8internal15TestFactoryBaseC2Ev
FNDA:2,_ZN7testing8internal15TestFactoryImplI45distanciaAuxTEST_distanciaUnoMismoEsCero_TestE10CreateTestEv
FNDA:2,_ZN7testing8internal15TestFactoryImplI44distanciaAuxTEST_distanciaMoviendoEnLat_TestE10CreateTestEv
FNDA:2,_ZN7testing8internal15TestFactoryImplI44distanciaAuxTEST_distanciaMoviendoEnLng_TestE10CreateTestEv
FNDA:2,_ZN7testing8internal15TestFactoryImplI48distanciaAuxTEST_distanciaMoviendoEnLatYLng_TestE10CreateTestEv
FNDA:88,_ZN7testing8internal12CodeLocationC2ERKNSt7__cxx1112basic_stringIcSt11char_traitsIcESaIcEEEi
FNF:8
FNH:7
DA:466,88
DA:473,88
DA:484,8
DA:505,88
DA:506,88
LF:5
LH:5
end_of_record
SF:/home/leito-chan/Downloads/TPI/transporteUrbano/lib/googletest-master/googletest/include/gtest/internal/gtest-port.h
FN:1157,_ZN7testing8internal10scoped_ptrINSt7__cxx1118basic_stringstreamIcSt11char_traitsIcESaIcEEEED2Ev
FN:1157,_ZN7testing8internal10scoped_ptrINSt7__cxx1112basic_stringIcSt11char_traitsIcESaIcEEEED2Ev
FN:1160,_ZNK7testing8internal10scoped_ptrINSt7__cxx1112basic_stringIcSt11char_traitsIcESaIcEEEEptEv
FN:1161,_ZNK7testing8internal10scoped_ptrINSt7__cxx1112basic_stringIcSt11char_traitsIcESaIcEEEE3getEv
FN:1169,_ZN7testing8internal10scoped_ptrINSt7__cxx1112basic_stringIcSt11char_traitsIcESaIcEEEE5resetEPS7_
FN:1169,_ZN7testing8internal10scoped_ptrINSt7__cxx1118basic_stringstreamIcSt11char_traitsIcESaIcEEEE5resetEPS7_
FNDA:118,_ZN7testing8internal10scoped_ptrINSt7__cxx1112basic_stringIcSt11char_traitsIcESaIcEEEED2Ev
FNDA:264,_ZN7testing8internal10scoped_ptrINSt7__cxx1118basic_stringstreamIcSt11char_traitsIcESaIcEEEED2Ev
FNDA:0,_ZNK7testing8internal10scoped_ptrINSt7__cxx1112basic_stringIcSt11char_traitsIcESaIcEEEEptEv
FNDA:6,_ZNK7testing8internal10scoped_ptrINSt7__cxx1112basic_stringIcSt11char_traitsIcESaIcEEEE3getEv
FNDA:264,_ZN7testing8internal10scoped_ptrINSt7__cxx1118basic_stringstreamIcSt11char_traitsIcESaIcEEEE5resetEPS7_
FNDA:118,_ZN7testing8internal10scoped_ptrINSt7__cxx1112basic_stringIcSt11char_traitsIcESaIcEEEE5resetEPS7_
FNF:6
FNH:5
DA:1157,382
DA:1160,0
DA:1161,6
DA:1169,382
DA:1170,382
DA:1171,264
DA:1172,264
DA:1174,264
DA:1176,382
LF:9
LH:8
end_of_record
SF:/home/leito-chan/Downloads/TPI/transporteUrbano/lib/googletest-master/googletest/include/gtest/gtest.h
FN:288,_ZNK7testing15AssertionResultcvbEv
FN:297,_ZNK7testing15AssertionResult7messageEv
FN:302,_ZNK7testing15AssertionResult15failure_messageEv
FN:389,_ZN7testing4Test13SetUpTestCaseEv
FN:397,_ZN7testing4Test16TearDownTestCaseEv
FN:474,_ZN7testing4Test5SetupEv
FNDA:118,_ZNK7testing15AssertionResultcvbEv
FNDA:6,_ZNK7testing15AssertionResult7messageEv
FNDA:0,_ZNK7testing15AssertionResult15failure_messageEv
FNDA:22,_ZN7testing4Test13SetUpTestCaseEv
FNDA:22,_ZN7testing4Test16TearDownTestCaseEv
FNDA:0,_ZN7testing4Test5SetupEv
FNF:6
FNH:4
DA:288,118
DA:297,6
DA:298,6
DA:302,0
DA:389,22
DA:397,22
DA:474,0
LF:7
LH:5
end_of_record
SF:/usr/include/c++/8/bits/move.h
FN:99,_ZSt4moveIRSaIcEEONSt16remove_referenceIT_E4typeEOS3_
FNDA:0,_ZSt4moveIRSaIcEEONSt16remove_referenceIT_E4typeEOS3_
FNF:1
FNH:0
DA:99,0
DA:100,0
LF:2
LH:0
end_of_record
SF:/usr/include/c++/8/ext/new_allocator.h
FN:79,_ZN9__gnu_cxx13new_allocatorIcEC2Ev
FN:81,_ZN9__gnu_cxx13new_allocatorIcEC2ERKS1_
FN:86,_ZN9__gnu_cxx13new_allocatorIcED2Ev
FNDA:0,_ZN9__gnu_cxx13new_allocatorIcEC2Ev
FNDA:0,_ZN9__gnu_cxx13new_allocatorIcEC2ERKS1_
FNDA:0,_ZN9__gnu_cxx13new_allocatorIcED2Ev
FNF:3
FNH:0
DA:79,0
DA:81,0
DA:86,0
LF:3
LH:0
end_of_record
SF:/usr/include/c++/8/bits/stl_iterator_base_funcs.h
FN:98,_ZSt10__distanceIPcENSt15iterator_traitsIT_E15difference_typeES2_S2_St26random_access_iterator_tag
FN:98,_ZSt10__distanceIPKcENSt15iterator_traitsIT_E15difference_typeES3_S3_St26random_access_iterator_tag
FNDA:0,_ZSt10__distanceIPcENSt15iterator_traitsIT_E15difference_typeES2_S2_St26random_access_iterator_tag
FNDA:0,_ZSt10__distanceIPKcENSt15iterator_traitsIT_E15difference_typeES3_S3_St26random_access_iterator_tag
FNF:2
FNH:0
DA:98,0
DA:104,0
DA:138,0
DA:141,0
DA:142,0
LF:5
LH:0
end_of_record
SF:/usr/include/c++/8/bits/stl_iterator_base_types.h
FN:205,_ZSt19__iterator_categoryIPKcENSt15iterator_traitsIT_E17iterator_categoryERKS3_
FN:205,_ZSt19__iterator_categoryIPcENSt15iterator_traitsIT_E17iterator_categoryERKS2_
FNDA:0,_ZSt19__iterator_categoryIPcENSt15iterator_traitsIT_E17iterator_categoryERKS2_
FNDA:0,_ZSt19__iterator_categoryIPKcENSt15iterator_traitsIT_E17iterator_categoryERKS3_
FNF:2
FNH:0
DA:205,0
DA:206,0
LF:2
LH:0
end_of_record
SF:/usr/include/c++/8/ext/type_traits.h
FN:152,_ZN9__gnu_cxx17__is_null_pointerIcEEbPT_
FN:152,_ZN9__gnu_cxx17__is_null_pointerIKcEEbPT_
FNDA:0,_ZN9__gnu_cxx17__is_null_pointerIcEEbPT_
FNDA:0,_ZN9__gnu_cxx17__is_null_pointerIKcEEbPT_
FNF:2
FNH:0
DA:152,0
DA:153,0
LF:2
LH:0
end_of_record
TN:
SF:/usr/include/c++/8/bits/alloc_traits.h
FN:435,_ZNSt16allocator_traitsISaISt5tupleIJdS0_IJddEEEEEE8allocateERS3_m
FN:435,_ZNSt16allocator_traitsISaISt6vectorISt5tupleIJdS1_IJddEEEESaIS3_EEEE8allocateERS6_m
FN:461,_ZNSt16allocator_traitsISaISt6vectorISt5tupleIJdS1_IJddEEEESaIS3_EEEE10deallocateERS6_PS5_m
FN:461,_ZNSt16allocator_traitsISaISt5tupleIJdS0_IJddEEEEEE10deallocateERS3_PS2_m
FN:504,_ZNSt16allocator_traitsISaIcEE37select_on_container_copy_constructionERKS0_
FN:504,_ZNSt16allocator_traitsISaISt6vectorISt5tupleIJdS1_IJddEEEESaIS3_EEEE37select_on_container_copy_constructionERKS6_
FN:504,_ZNSt16allocator_traitsISaISt5tupleIJdS0_IJddEEEEEE37select_on_container_copy_constructionERKS3_
FNDA:20,_ZNSt16allocator_traitsISaISt6vectorISt5tupleIJdS1_IJddEEEESaIS3_EEEE8allocateERS6_m
FNDA:0,_ZNSt16allocator_traitsISaISt5tupleIJdS0_IJddEEEEEE8allocateERS3_m
FNDA:0,_ZNSt16allocator_traitsISaISt5tupleIJdS0_IJddEEEEEE10deallocateERS3_PS2_m
FNDA:20,_ZNSt16allocator_traitsISaISt6vectorISt5tupleIJdS1_IJddEEEESaIS3_EEEE10deallocateERS6_PS5_m
FNDA:0,_ZNSt16allocator_traitsISaISt5tupleIJdS0_IJddEEEEEE37select_on_container_copy_constructionERKS3_
FNDA:12,_ZNSt16allocator_traitsISaISt6vectorISt5tupleIJdS1_IJddEEEESaIS3_EEEE37select_on_container_copy_constructionERKS6_
FNDA:0,_ZNSt16allocator_traitsISaIcEE37select_on_container_copy_constructionERKS0_
FNF:7
FNH:3
DA:435,20
DA:436,20
DA:461,20
DA:462,20
DA:504,12
DA:505,12
LF:6
LH:6
end_of_record
SF:/usr/include/c++/8/ext/alloc_traits.h
FN:94,_ZN9__gnu_cxx14__alloc_traitsISaISt5tupleIJdS1_IJddEEEEES3_E17_S_select_on_copyERKS4_
FN:94,_ZN9__gnu_cxx14__alloc_traitsISaIcEcE17_S_select_on_copyERKS1_
FN:94,_ZN9__gnu_cxx14__alloc_traitsISaISt6vectorISt5tupleIJdS2_IJddEEEESaIS4_EEES6_E17_S_select_on_copyERKS7_
FNDA:0,_ZN9__gnu_cxx14__alloc_traitsISaISt5tupleIJdS1_IJddEEEEES3_E17_S_select_on_copyERKS4_
FNDA:12,_ZN9__gnu_cxx14__alloc_traitsISaISt6vectorISt5tupleIJdS2_IJddEEEESaIS4_EEES6_E17_S_select_on_copyERKS7_
FNDA:0,_ZN9__gnu_cxx14__alloc_traitsISaIcEcE17_S_select_on_copyERKS1_
FNF:3
FNH:1
DA:94,12
DA:95,12
LF:2
LH:2
end_of_record
SF:/usr/include/c++/8/bits/allocator.h
FN:131,_ZNSaISt5tupleIJdS_IJddEEEEEC2Ev
FN:131,_ZNSaISt6vectorISt5tupleIJdS0_IJddEEEESaIS2_EEEC2Ev
FN:133,_ZNSaISt6vectorISt5tupleIJdS0_IJddEEEESaIS2_EEEC2ERKS5_
FN:133,_ZNSaISt5tupleIJdS_IJddEEEEEC2ERKS2_
FN:139,_ZNSaISt6vectorISt5tupleIJdS0_IJddEEEESaIS2_EEED2Ev
FN:139,_ZNSaISt5tupleIJdS_IJddEEEEED2Ev
FNDA:12,_ZNSaISt6vectorISt5tupleIJdS0_IJddEEEESaIS2_EEEC2Ev
FNDA:0,_ZNSaISt5tupleIJdS_IJddEEEEEC2Ev
FNDA:0,_ZNSaISt5tupleIJdS_IJddEEEEEC2ERKS2_
FNDA:34,_ZNSaISt6vectorISt5tupleIJdS0_IJddEEEESaIS2_EEEC2ERKS5_
FNDA:46,_ZNSaISt6vectorISt5tupleIJdS0_IJddEEEESaIS2_EEED2Ev
FNDA:0,_ZNSaISt5tupleIJdS_IJddEEEEED2Ev
FNF:6
FNH:3
DA:131,12
DA:133,34
DA:134,34
DA:139,46
LF:4
LH:4
end_of_record
SF:/usr/include/c++/8/bits/basic_string.h
FN:232,_ZNSt7__cxx1112basic_stringIcSt11char_traitsIcESaIcEE16_M_construct_auxIPKcEEvT_S8_St12__false_type
FN:232,_ZNSt7__cxx1112basic_stringIcSt11char_traitsIcESaIcEE16_M_construct_auxIPcEEvT_S7_St12__false_type
FN:252,_ZNSt7__cxx1112basic_stringIcSt11char_traitsIcESaIcEE12_M_constructIPKcEEvT_S8_
FN:252,_ZNSt7__cxx1112basic_stringIcSt11char_traitsIcESaIcEE12_M_constructIPcEEvT_S7_
FNDA:0,_ZNSt7__cxx1112basic_stringIcSt11char_traitsIcESaIcEE16_M_construct_auxIPcEEvT_S7_St12__false_type
FNDA:0,_ZNSt7__cxx1112basic_stringIcSt11char_traitsIcESaIcEE16_M_construct_auxIPKcEEvT_S8_St12__false_type
FNDA:0,_ZNSt7__cxx1112basic_stringIcSt11char_traitsIcESaIcEE12_M_constructIPcEEvT_S7_
FNDA:0,_ZNSt7__cxx1112basic_stringIcSt11char_traitsIcESaIcEE12_M_constructIPKcEEvT_S8_
FNF:4
FNH:0
DA:232,0
DA:236,0
DA:237,0
DA:252,0
DA:255,0
DA:256,0
LF:6
LH:0
end_of_record
SF:/usr/include/c++/8/bits/basic_string.tcc
FN:206,_ZNSt7__cxx1112basic_stringIcSt11char_traitsIcESaIcEE12_M_constructIPcEEvT_S7_St20forward_iterator_tag
FN:206,_ZNSt7__cxx1112basic_stringIcSt11char_traitsIcESaIcEE12_M_constructIPKcEEvT_S8_St20forward_iterator_tag
FNDA:0,_ZNSt7__cxx1112basic_stringIcSt11char_traitsIcESaIcEE12_M_constructIPcEEvT_S7_St20forward_iterator_tag
FNDA:0,_ZNSt7__cxx1112basic_stringIcSt11char_traitsIcESaIcEE12_M_constructIPKcEEvT_S8_St20forward_iterator_tag
FNF:2
FNH:0
DA:206,0
DA:211,0
DA:212,0
DA:215,0
DA:217,0
DA:219,0
DA:220,0
DA:225,0
DA:226,0
DA:228,0
DA:229,0
DA:232,0
DA:233,0
LF:13
LH:0
end_of_record
SF:/usr/include/c++/8/bits/char_traits.h
FN:316,_ZNSt11char_traitsIcE6lengthEPKc
FNDA:0,_ZNSt11char_traitsIcE6lengthEPKc
FNF:1
FNH:0
DA:316,0
DA:322,0
LF:2
LH:0
end_of_record
SF:/home/leito-chan/Downloads/TPI/transporteUrbano/tests/flotaTEST.cpp
FN:7,_ZN25flotaTEST_sin_viajes_TestC2Ev
FN:7,_ZN25flotaTEST_sin_viajes_Test8TestBodyEv
FN:12,_ZN38flotaTEST_viajes_terminaron_antes_TestC2Ev
FN:12,_ZN38flotaTEST_viajes_terminaron_antes_Test8TestBodyEv
FN:30,_ZN37flotaTEST_viaje_comenzaron_tarde_Test8TestBodyEv
FN:30,_ZN37flotaTEST_viaje_comenzaron_tarde_TestC2Ev
FN:48,_ZN42flotaTEST_todos_los_viajes_en_horario_TestC2Ev
FN:48,_ZN42flotaTEST_todos_los_viajes_en_horario_Test8TestBodyEv
FN:66,_ZN32flotaTEST_algunos_son_flota_TestC2Ev
FN:66,_ZN32flotaTEST_algunos_son_flota_Test8TestBodyEv
FNDA:2,_ZN25flotaTEST_sin_viajes_Test8TestBodyEv
FNDA:2,_ZN25flotaTEST_sin_viajes_TestC2Ev
FNDA:2,_ZN38flotaTEST_viajes_terminaron_antes_Test8TestBodyEv
FNDA:2,_ZN38flotaTEST_viajes_terminaron_antes_TestC2Ev
FNDA:2,_ZN37flotaTEST_viaje_comenzaron_tarde_Test8TestBodyEv
FNDA:2,_ZN37flotaTEST_viaje_comenzaron_tarde_TestC2Ev
FNDA:2,_ZN42flotaTEST_todos_los_viajes_en_horario_Test8TestBodyEv
FNDA:2,_ZN42flotaTEST_todos_los_viajes_en_horario_TestC2Ev
FNDA:2,_ZN32flotaTEST_algunos_son_flota_Test8TestBodyEv
FNDA:2,_ZN32flotaTEST_algunos_son_flota_TestC2Ev
FNF:10
FNH:10
DA:7,4
DA:8,2
DA:9,2
DA:12,4
DA:13,2
DA:14,2
DA:15,2
DA:16,6
DA:17,2
DA:18,2
DA:19,2
DA:20,6
DA:21,2
DA:22,2
DA:23,2
DA:24,6
DA:25,10
DA:27,2
DA:30,4
DA:31,2
DA:32,2
DA:33,2
DA:34,6
DA:35,2
DA:36,2
DA:37,2
DA:38,6
DA:39,2
DA:40,2
DA:41,2
DA:42,6
DA:43,10
DA:45,2
DA:48,4
DA:49,2
DA:50,2
DA:51,2
DA:52,6
DA:53,2
DA:54,2
DA:55,2
DA:56,6
DA:57,2
DA:58,2
DA:59,2
DA:60,6
DA:61,10
DA:63,2
DA:66,4
DA:67,2
DA:68,2
DA:69,2
DA:70,6
DA:71,2
DA:72,2
DA:73,2
DA:74,6
DA:75,2
DA:76,2
DA:77,2
DA:78,6
DA:79,2
DA:80,2
DA:81,2
DA:82,6
DA:83,12
DA:85,2
DA:88,4
DA:89,2
DA:90,2
DA:91,2
DA:92,6
DA:93,2
DA:94,2
DA:95,2
DA:96,6
DA:98,14
DA:100,2
LF:78
LH:78
end_of_record
SF:/home/leito-chan/Downloads/TPI/transporteUrbano/lib/googletest-master/googletest/include/gtest/internal/gtest-internal.h
FN:466,_ZN7testing8internal15TestFactoryBaseD2Ev
FN:466,_ZN7testing8internal15TestFactoryBaseD0Ev
FN:473,_ZN7testing8internal15TestFactoryBaseC2Ev
FN:484,_ZN7testing8internal15TestFactoryImplI38flotaTEST_viajes_terminaron_antes_TestE10CreateTestEv
FN:484,_ZN7testing8internal15TestFactoryImplI32flotaTEST_algunos_son_flota_TestE10CreateTestEv
FN:484,_ZN7testing8internal15TestFactoryImplI42flotaTEST_todos_los_viajes_en_horario_TestE10CreateTestEv
FN:484,_ZN7testing8internal15TestFactoryImplI39flotaTEST_viajes_repetidos_cuentan_TestE10CreateTestEv
FN:484,_ZN7testing8internal15TestFactoryImplI25flotaTEST_sin_viajes_TestE10CreateTestEv
FN:484,_ZN7testing8internal15TestFactoryImplI37flotaTEST_viaje_comenzaron_tarde_TestE10CreateTestEv
FN:505,_ZN7testing8internal12CodeLocationC2ERKNSt7__cxx1112basic_stringIcSt11char_traitsIcESaIcEEEi
FNDA:0,_ZN7testing8internal15TestFactoryBaseD0Ev
FNDA:0,_ZN7testing8internal15TestFactoryBaseD2Ev
FNDA:0,_ZN7testing8internal15TestFactoryBaseC2Ev
FNDA:2,_ZN7testing8internal15TestFactoryImplI25flotaTEST_sin_viajes_TestE10CreateTestEv
FNDA:2,_ZN7testing8internal15TestFactoryImplI38flotaTEST_viajes_terminaron_antes_TestE10CreateTestEv
FNDA:2,_ZN7testing8internal15TestFactoryImplI37flotaTEST_viaje_comenzaron_tarde_TestE10CreateTestEv
FNDA:2,_ZN7testing8internal15TestFactoryImplI42flotaTEST_todos_los_viajes_en_horario_TestE10CreateTestEv
FNDA:2,_ZN7testing8internal15TestFactoryImplI32flotaTEST_algunos_son_flota_TestE10CreateTestEv
FNDA:2,_ZN7testing8internal15TestFactoryImplI39flotaTEST_viajes_repetidos_cuentan_TestE10CreateTestEv
FNDA:0,_ZN7testing8internal12CodeLocationC2ERKNSt7__cxx1112basic_stringIcSt11char_traitsIcESaIcEEEi
FNF:10
FNH:6
DA:466,0
DA:473,0
DA:484,12
DA:505,0
DA:506,0
LF:5
LH:1
end_of_record
SF:/home/leito-chan/Downloads/TPI/transporteUrbano/lib/googletest-master/googletest/include/gtest/internal/gtest-port.h
FN:1157,_ZN7testing8internal10scoped_ptrINSt7__cxx1112basic_stringIcSt11char_traitsIcESaIcEEEED2Ev
FN:1157,_ZN7testing8internal10scoped_ptrINSt7__cxx1118basic_stringstreamIcSt11char_traitsIcESaIcEEEED2Ev
FN:1160,_ZNK7testing8internal10scoped_ptrINSt7__cxx1112basic_stringIcSt11char_traitsIcESaIcEEEEptEv
FN:1161,_ZNK7testing8internal10scoped_ptrINSt7__cxx1112basic_stringIcSt11char_traitsIcESaIcEEEE3getEv
FN:1169,_ZN7testing8internal10scoped_ptrINSt7__cxx1118basic_stringstreamIcSt11char_traitsIcESaIcEEEE5resetEPS7_
FN:1169,_ZN7testing8internal10scoped_ptrINSt7__cxx1112basic_stringIcSt11char_traitsIcESaIcEEEE5resetEPS7_
FNDA:0,_ZN7testing8internal10scoped_ptrINSt7__cxx1112basic_stringIcSt11char_traitsIcESaIcEEEED2Ev
FNDA:0,_ZN7testing8internal10scoped_ptrINSt7__cxx1118basic_stringstreamIcSt11char_traitsIcESaIcEEEED2Ev
FNDA:0,_ZNK7testing8internal10scoped_ptrINSt7__cxx1112basic_stringIcSt11char_traitsIcESaIcEEEEptEv
FNDA:0,_ZNK7testing8internal10scoped_ptrINSt7__cxx1112basic_stringIcSt11char_traitsIcESaIcEEEE3getEv
FNDA:0,_ZN7testing8internal10scoped_ptrINSt7__cxx1118basic_stringstreamIcSt11char_traitsIcESaIcEEEE5resetEPS7_
FNDA:0,_ZN7testing8internal10scoped_ptrINSt7__cxx1112basic_stringIcSt11char_traitsIcESaIcEEEE5resetEPS7_
FNF:6
FNH:0
DA:1157,0
DA:1160,0
DA:1161,0
DA:1169,0
DA:1170,0
DA:1171,0
DA:1172,0
DA:1174,0
DA:1176,0
LF:9
LH:0
end_of_record
SF:/home/leito-chan/Downloads/TPI/transporteUrbano/lib/googletest-master/googletest/include/gtest/gtest-printers.h
FN:222,_ZN16testing_internal26DefaultPrintNonContainerToIiEEvRKT_PSo
FN:275,_ZN7testing8internal19FormatForComparisonIiiE6FormatB5cxx11ERKi
FN:349,_ZN7testing8internal33FormatForComparisonFailureMessageIiiEENSt7__cxx1112basic_stringIcSt11char_traitsIcESaIcEEERKT_RKT0_
FN:442,_ZN7testing8internal14DefaultPrintToIiEEvNS0_15WrapPrinterTypeILNS0_18DefaultPrinterTypeE3EEERKT_PSo
FN:459,_ZN7testing8internal7PrintToIiEEvRKT_PSo
FN:714,_ZN7testing8internal16UniversalPrinterIiE5PrintERKiPSo
FN:799,_ZN7testing8internal21UniversalTersePrinterIiE5PrintERKiPSo
FN:868,_ZN7testing8internal14UniversalPrintIiEEvRKT_PSo
FN:996,_ZN7testing13PrintToStringIiEENSt7__cxx1112basic_stringIcSt11char_traitsIcESaIcEEERKT_
FNDA:0,_ZN16testing_internal26DefaultPrintNonContainerToIiEEvRKT_PSo
FNDA:0,_ZN7testing8internal19FormatForComparisonIiiE6FormatB5cxx11ERKi
FNDA:0,_ZN7testing8internal33FormatForComparisonFailureMessageIiiEENSt7__cxx1112basic_stringIcSt11char_traitsIcESaIcEEERKT_RKT0_
FNDA:0,_ZN7testing8internal14DefaultPrintToIiEEvNS0_15WrapPrinterTypeILNS0_18DefaultPrinterTypeE3EEERKT_PSo
FNDA:0,_ZN7testing8internal7PrintToIiEEvRKT_PSo
FNDA:0,_ZN7testing8internal16UniversalPrinterIiE5PrintERKiPSo
FNDA:0,_ZN7testing8internal21UniversalTersePrinterIiE5PrintERKiPSo
FNDA:0,_ZN7testing8internal14UniversalPrintIiEEvRKT_PSo
FNDA:0,_ZN7testing13PrintToStringIiEENSt7__cxx1112basic_stringIcSt11char_traitsIcESaIcEEERKT_
FNF:9
FNH:0
DA:222,0
DA:249,0
DA:250,0
DA:275,0
DA:276,0
DA:349,0
DA:351,0
DA:442,0
DA:444,0
DA:445,0
DA:459,0
DA:481,0
DA:494,0
DA:714,0
DA:723,0
DA:724,0
DA:799,0
DA:800,0
DA:801,0
DA:868,0
DA:872,0
DA:873,0
DA:996,0
DA:997,0
DA:998,0
DA:999,0
LF:26
LH:0
end_of_record
SF:/home/leito-chan/Downloads/TPI/transporteUrbano/lib/googletest-master/googletest/include/gtest/gtest.h
FN:288,_ZNK7testing15AssertionResultcvbEv
FN:297,_ZNK7testing15AssertionResult7messageEv
FN:302,_ZNK7testing15AssertionResult15failure_messageEv
FN:389,_ZN7testing4Test13SetUpTestCaseEv
FN:397,_ZN7testing4Test16TearDownTestCaseEv
FN:474,_ZN7testing4Test5SetupEv
FN:1375,_ZN7testing8internal18CmpHelperEQFailureIiiEENS_15AssertionResultEPKcS4_RKT_RKT0_
FN:1387,_ZN7testing8internal11CmpHelperEQIiiEENS_15AssertionResultEPKcS4_RKT_RKT0_
FN:1417,_ZN7testing8internal8EqHelperILb0EE7CompareIiiEENS_15AssertionResultEPKcS6_RKT_RKT0_
FNDA:0,_ZNK7testing15AssertionResultcvbEv
FNDA:0,_ZNK7testing15AssertionResult7messageEv
FNDA:0,_ZNK7testing15AssertionResult15failure_messageEv
FNDA:0,_ZN7testing4Test13SetUpTestCaseEv
FNDA:0,_ZN7testing4Test16TearDownTestCaseEv
FNDA:0,_ZN7testing4Test5SetupEv
FNDA:0,_ZN7testing8internal18CmpHelperEQFailureIiiEENS_15AssertionResultEPKcS4_RKT_RKT0_
FNDA:28,_ZN7testing8internal11CmpHelperEQIiiEENS_15AssertionResultEPKcS4_RKT_RKT0_
FNDA:28,_ZN7testing8internal8EqHelperILb0EE7CompareIiiEENS_15AssertionResultEPKcS6_RKT_RKT0_
FNF:9
FNH:2
DA:288,0
DA:297,0
DA:298,0
DA:302,0
DA:389,0
DA:397,0
DA:474,0
DA:1375,0
DA:1382,0
DA:1387,28
DA:1392,28
DA:1393,28
DA:1397,0
DA:1417,28
DA:1421,28
LF:15
LH:5
end_of_record
SF:/usr/include/c++/8/initializer_list
FN:71,_ZNKSt16initializer_listISt6vectorISt5tupleIJdS1_IJddEEEESaIS3_EEE4sizeEv
FN:71,_ZNKSt16initializer_listISt5tupleIJdS0_IJddEEEEE4sizeEv
FN:75,_ZNKSt16initializer_listISt6vectorISt5tupleIJdS1_IJddEEEESaIS3_EEE5beginEv
FN:75,_ZNKSt16initializer_listISt5tupleIJdS0_IJddEEEEE5beginEv
FN:79,_ZNKSt16initializer_listISt6vectorISt5tupleIJdS1_IJddEEEESaIS3_EEE3endEv
FN:79,_ZNKSt16initializer_listISt5tupleIJdS0_IJddEEEEE3endEv
FNDA:10,_ZNKSt16initializer_listISt6vectorISt5tupleIJdS1_IJddEEEESaIS3_EEE4sizeEv
FNDA:0,_ZNKSt16initializer_listISt5tupleIJdS0_IJddEEEEE4sizeEv
FNDA:20,_ZNKSt16initializer_listISt6vectorISt5tupleIJdS1_IJddEEEESaIS3_EEE5beginEv
FNDA:0,_ZNKSt16initializer_listISt5tupleIJdS0_IJddEEEEE5beginEv
FNDA:10,_ZNKSt16initializer_listISt6vectorISt5tupleIJdS1_IJddEEEESaIS3_EEE3endEv
FNDA:0,_ZNKSt16initializer_listISt5tupleIJdS0_IJddEEEEE3endEv
FNF:6
FNH:3
DA:71,10
DA:75,20
DA:79,10
LF:3
LH:3
end_of_record
SF:/usr/include/c++/8/bits/ios_base.h
FN:129,_ZStorSt13_Ios_OpenmodeS_
FNDA:0,_ZStorSt13_Ios_OpenmodeS_
FNF:1
FNH:0
DA:129,0
DA:130,0
LF:2
LH:0
end_of_record
SF:/usr/include/c++/8/bits/move.h
FN:47,_ZSt11__addressofISt6vectorISt5tupleIJdS1_IJddEEEESaIS3_EEEPT_RS6_
FN:47,_ZSt11__addressofISt5tupleIJdS0_IJddEEEEEPT_RS3_
FN:74,_ZSt7forwardIRKSt5tupleIJdS0_IJddEEEEEOT_RNSt16remove_referenceIS5_E4typeE
FN:74,_ZSt7forwardIRKSt6vectorISt5tupleIJdS1_IJddEEEESaIS3_EEEOT_RNSt16remove_referenceIS8_E4typeE
FN:99,_ZSt4moveIRSaIcEEONSt16remove_referenceIT_E4typeEOS3_
FNDA:0,_ZSt11__addressofISt5tupleIJdS0_IJddEEEEEPT_RS3_
FNDA:144,_ZSt11__addressofISt6vectorISt5tupleIJdS1_IJddEEEESaIS3_EEEPT_RS6_
FNDA:0,_ZSt7forwardIRKSt5tupleIJdS0_IJddEEEEEOT_RNSt16remove_referenceIS5_E4typeE
FNDA:72,_ZSt7forwardIRKSt6vectorISt5tupleIJdS1_IJddEEEESaIS3_EEEOT_RNSt16remove_referenceIS8_E4typeE
FNDA:0,_ZSt4moveIRSaIcEEONSt16remove_referenceIT_E4typeEOS3_
FNF:5
FNH:2
DA:47,144
DA:48,144
DA:74,72
DA:75,72
DA:99,0
DA:100,0
LF:6
LH:4
end_of_record
SF:/usr/include/c++/8/new
FN:168,_ZnwmPv
FN:174,_ZdlPvS_
FNDA:0,_ZnwmPv
FNDA:0,_ZdlPvS_
FNF:2
FNH:0
DA:168,0
DA:169,0
DA:174,0
LF:3
LH:0
end_of_record
SF:/usr/include/c++/8/ext/new_allocator.h
FN:79,_ZN9__gnu_cxx13new_allocatorISt6vectorISt5tupleIJdS2_IJddEEEESaIS4_EEEC2Ev
FN:79,_ZN9__gnu_cxx13new_allocatorISt5tupleIJdS1_IJddEEEEEC2Ev
FN:79,_ZN9__gnu_cxx13new_allocatorIcEC2Ev
FN:81,_ZN9__gnu_cxx13new_allocatorISt5tupleIJdS1_IJddEEEEEC2ERKS4_
FN:81,_ZN9__gnu_cxx13new_allocatorIcEC2ERKS1_
FN:81,_ZN9__gnu_cxx13new_allocatorISt6vectorISt5tupleIJdS2_IJddEEEESaIS4_EEEC2ERKS7_
FN:86,_ZN9__gnu_cxx13new_allocatorIcED2Ev
FN:86,_ZN9__gnu_cxx13new_allocatorISt6vectorISt5tupleIJdS2_IJddEEEESaIS4_EEED2Ev
FN:86,_ZN9__gnu_cxx13new_allocatorISt5tupleIJdS1_IJddEEEEED2Ev
FN:99,_ZN9__gnu_cxx13new_allocatorISt5tupleIJdS1_IJddEEEEE8allocateEmPKv
FN:99,_ZN9__gnu_cxx13new_allocatorISt6vectorISt5tupleIJdS2_IJddEEEESaIS4_EEE8allocateEmPKv
FN:116,_ZN9__gnu_cxx13new_allocatorISt6vectorISt5tupleIJdS2_IJddEEEESaIS4_EEE10deallocateEPS6_m
FN:116,_ZN9__gnu_cxx13new_allocatorISt5tupleIJdS1_IJddEEEEE10deallocateEPS3_m
FN:129,_ZNK9__gnu_cxx13new_allocatorISt5tupleIJdS1_IJddEEEEE8max_sizeEv
FN:129,_ZNK9__gnu_cxx13new_allocatorISt6vectorISt5tupleIJdS2_IJddEEEESaIS4_EEE8max_sizeEv
FNDA:12,_ZN9__gnu_cxx13new_allocatorISt6vectorISt5tupleIJdS2_IJddEEEESaIS4_EEEC2Ev
FNDA:0,_ZN9__gnu_cxx13new_allocatorISt5tupleIJdS1_IJddEEEEEC2Ev
FNDA:0,_ZN9__gnu_cxx13new_allocatorIcEC2Ev
FNDA:0,_ZN9__gnu_cxx13new_allocatorISt5tupleIJdS1_IJddEEEEEC2ERKS4_
FNDA:34,_ZN9__gnu_cxx13new_allocatorISt6vectorISt5tupleIJdS2_IJddEEEESaIS4_EEEC2ERKS7_
FNDA:0,_ZN9__gnu_cxx13new_allocatorIcEC2ERKS1_
FNDA:46,_ZN9__gnu_cxx13new_allocatorISt6vectorISt5tupleIJdS2_IJddEEEESaIS4_EEED2Ev
FNDA:0,_ZN9__gnu_cxx13new_allocatorISt5tupleIJdS1_IJddEEEEED2Ev
FNDA:0,_ZN9__gnu_cxx13new_allocatorIcED2Ev
FNDA:20,_ZN9__gnu_cxx13new_allocatorISt6vectorISt5tupleIJdS2_IJddEEEESaIS4_EEE8allocateEmPKv
FNDA:0,_ZN9__gnu_cxx13new_allocatorISt5tupleIJdS1_IJddEEEEE8allocateEmPKv
FNDA:0,_ZN9__gnu_cxx13new_allocatorISt5tupleIJdS1_IJddEEEEE10deallocateEPS3_m
FNDA:20,_ZN9__gnu_cxx13new_allocatorISt6vectorISt5tupleIJdS2_IJddEEEESaIS4_EEE10deallocateEPS6_m
FNDA:20,_ZNK9__gnu_cxx13new_allocatorISt6vectorISt5tupleIJdS2_IJddEEEESaIS4_EEE8max_sizeEv
FNDA:0,_ZNK9__gnu_cxx13new_allocatorISt5tupleIJdS1_IJddEEEEE8max_sizeEv
FNF:15
FNH:6
DA:79,12
DA:81,34
DA:86,46
DA:99,20
DA:101,20
DA:102,0
DA:111,20
DA:116,20
DA:125,20
DA:126,20
DA:129,20
DA:130,20
LF:12
LH:11
end_of_record
SF:/usr/include/c++/8/bits/stl_construct.h
FN:74,_ZSt10_ConstructISt6vectorISt5tupleIJdS1_IJddEEEESaIS3_EEJRKS5_EEvPT_DpOT0_
FN:74,_ZSt10_ConstructISt5tupleIJdS0_IJddEEEEJRKS2_EEvPT_DpOT0_
FN:97,_ZSt8_DestroyISt6vectorISt5tupleIJdS1_IJddEEEESaIS3_EEEvPT_
FN:105,_ZNSt12_Destroy_auxILb0EE9__destroyIPSt6vectorISt5tupleIJdS3_IJddEEEESaIS5_EEEEvT_S9_
FN:117,_ZNSt12_Destroy_auxILb1EE9__destroyIPSt5tupleIJdS2_IJddEEEEEEvT_S6_
FN:127,_ZSt8_DestroyIPSt6vectorISt5tupleIJdS1_IJddEEEESaIS3_EEEvT_S7_
FN:127,_ZSt8_DestroyIPSt5tupleIJdS0_IJddEEEEEvT_S4_
FN:203,_ZSt8_DestroyIPSt5tupleIJdS0_IJddEEEES2_EvT_S4_RSaIT0_E
FN:203,_ZSt8_DestroyIPSt6vectorISt5tupleIJdS1_IJddEEEESaIS3_EES5_EvT_S7_RSaIT0_E
FNDA:0,_ZSt10_ConstructISt5tupleIJdS0_IJddEEEEJRKS2_EEvPT_DpOT0_
FNDA:72,_ZSt10_ConstructISt6vectorISt5tupleIJdS1_IJddEEEESaIS3_EEJRKS5_EEvPT_DpOT0_
FNDA:72,_ZSt8_DestroyISt6vectorISt5tupleIJdS1_IJddEEEESaIS3_EEEvPT_
FNDA:24,_ZNSt12_Destroy_auxILb0EE9__destroyIPSt6vectorISt5tupleIJdS3_IJddEEEESaIS5_EEEEvT_S9_
FNDA:0,_ZNSt12_Destroy_auxILb1EE9__destroyIPSt5tupleIJdS2_IJddEEEEEEvT_S6_
FNDA:0,_ZSt8_DestroyIPSt5tupleIJdS0_IJddEEEEEvT_S4_
FNDA:24,_ZSt8_DestroyIPSt6vectorISt5tupleIJdS1_IJddEEEESaIS3_EEEvT_S7_
FNDA:0,_ZSt8_DestroyIPSt5tupleIJdS0_IJddEEEES2_EvT_S4_RSaIT0_E
FNDA:24,_ZSt8_DestroyIPSt6vectorISt5tupleIJdS1_IJddEEEESaIS3_EES5_EvT_S7_RSaIT0_E
FNF:9
FNH:5
DA:74,72
DA:75,72
DA:97,72
DA:98,72
DA:105,96
DA:107,96
DA:108,72
DA:109,24
DA:117,0
DA:127,24
DA:137,24
DA:138,24
DA:203,24
DA:206,24
DA:207,24
LF:15
LH:14
end_of_record
SF:/usr/include/c++/8/bits/stl_iterator.h
FN:783,_ZN9__gnu_cxx17__normal_iteratorIPKSt6vectorISt5tupleIJdS2_IJddEEEESaIS4_EES1_IS6_SaIS6_EEEC2ERKS8_
FN:783,_ZN9__gnu_cxx17__normal_iteratorIPKSt5tupleIJdS1_IJddEEEESt6vectorIS3_SaIS3_EEEC2ERKS5_
FN:796,_ZNK9__gnu_cxx17__normal_iteratorIPKSt5tupleIJdS1_IJddEEEESt6vectorIS3_SaIS3_EEEdeEv
FN:796,_ZNK9__gnu_cxx17__normal_iteratorIPKSt6vectorISt5tupleIJdS2_IJddEEEESaIS4_EES1_IS6_SaIS6_EEEdeEv
FN:804,_ZN9__gnu_cxx17__normal_iteratorIPKSt6vectorISt5tupleIJdS2_IJddEEEESaIS4_EES1_IS6_SaIS6_EEEppEv
FN:804,_ZN9__gnu_cxx17__normal_iteratorIPKSt5tupleIJdS1_IJddEEEESt6vectorIS3_SaIS3_EEEppEv
FN:848,_ZNK9__gnu_cxx17__normal_iteratorIPKSt5tupleIJdS1_IJddEEEESt6vectorIS3_SaIS3_EEE4baseEv
FN:848,_ZNK9__gnu_cxx17__normal_iteratorIPKSt6vectorISt5tupleIJdS2_IJddEEEESaIS4_EES1_IS6_SaIS6_EEE4baseEv
FN:884,_ZN9__gnu_cxxneIPKSt5tupleIJdS1_IJddEEEESt6vectorIS3_SaIS3_EEEEbRKNS_17__normal_iteratorIT_T0_EESE_
FN:884,_ZN9__gnu_cxxneIPKSt6vectorISt5tupleIJdS2_IJddEEEESaIS4_EES1_IS6_SaIS6_EEEEbRKNS_17__normal_iteratorIT_T0_EESG_
FNDA:0,_ZN9__gnu_cxx17__normal_iteratorIPKSt5tupleIJdS1_IJddEEEESt6vectorIS3_SaIS3_EEEC2ERKS5_
FNDA:24,_ZN9__gnu_cxx17__normal_iteratorIPKSt6vectorISt5tupleIJdS2_IJddEEEESaIS4_EES1_IS6_SaIS6_EEEC2ERKS8_
FNDA:0,_ZNK9__gnu_cxx17__normal_iteratorIPKSt5tupleIJdS1_IJddEEEESt6vectorIS3_SaIS3_EEEdeEv
FNDA:36,_ZNK9__gnu_cxx17__normal_iteratorIPKSt6vectorISt5tupleIJdS2_IJddEEEESaIS4_EES1_IS6_SaIS6_EEEdeEv
FNDA:0,_ZN9__gnu_cxx17__normal_iteratorIPKSt5tupleIJdS1_IJddEEEESt6vectorIS3_SaIS3_EEEppEv
FNDA:36,_ZN9__gnu_cxx17__normal_iteratorIPKSt6vectorISt5tupleIJdS2_IJddEEEESaIS4_EES1_IS6_SaIS6_EEEppEv
FNDA:0,_ZNK9__gnu_cxx17__normal_iteratorIPKSt5tupleIJdS1_IJddEEEESt6vectorIS3_SaIS3_EEE4baseEv
FNDA:96,_ZNK9__gnu_cxx17__normal_iteratorIPKSt6vectorISt5tupleIJdS2_IJddEEEESaIS4_EES1_IS6_SaIS6_EEE4baseEv
FNDA:0,_ZN9__gnu_cxxneIPKSt5tupleIJdS1_IJddEEEESt6vectorIS3_SaIS3_EEEEbRKNS_17__normal_iteratorIT_T0_EESE_
FNDA:48,_ZN9__gnu_cxxneIPKSt6vectorISt5tupleIJdS2_IJddEEEESaIS4_EES1_IS6_SaIS6_EEEEbRKNS_17__normal_iteratorIT_T0_EESG_
FNF:10
FNH:5
DA:783,24
DA:784,24
DA:796,36
DA:797,36
DA:804,36
DA:806,36
DA:807,36
DA:848,96
DA:849,96
DA:884,48
DA:887,48
LF:11
LH:11
end_of_record
SF:/usr/include/c++/8/bits/stl_iterator_base_funcs.h
FN:98,_ZSt10__distanceIPKSt5tupleIJdS0_IJddEEEEENSt15iterator_traitsIT_E15difference_typeES6_S6_St26random_access_iterator_tag
FN:98,_ZSt10__distanceIPKcENSt15iterator_traitsIT_E15difference_typeES3_S3_St26random_access_iterator_tag
FN:98,_ZSt10__distanceIPKSt6vectorISt5tupleIJdS1_IJddEEEESaIS3_EEENSt15iterator_traitsIT_E15difference_typeES9_S9_St26random_access_iterator_tag
FN:98,_ZSt10__distanceIPcENSt15iterator_traitsIT_E15difference_typeES2_S2_St26random_access_iterator_tag
FNDA:0,_ZSt10__distanceIPcENSt15iterator_traitsIT_E15difference_typeES2_S2_St26random_access_iterator_tag
FNDA:0,_ZSt10__distanceIPKcENSt15iterator_traitsIT_E15difference_typeES3_S3_St26random_access_iterator_tag
FNDA:10,_ZSt10__distanceIPKSt6vectorISt5tupleIJdS1_IJddEEEESaIS3_EEENSt15iterator_traitsIT_E15difference_typeES9_S9_St26random_access_iterator_tag
FNDA:0,_ZSt10__distanceIPKSt5tupleIJdS0_IJddEEEEENSt15iterator_traitsIT_E15difference_typeES6_S6_St26random_access_iterator_tag
FNF:4
FNH:1
DA:98,10
DA:104,10
DA:138,10
DA:141,10
DA:142,20
LF:5
LH:5
end_of_record
SF:/usr/include/c++/8/bits/stl_iterator_base_types.h
FN:205,_ZSt19__iterator_categoryIPKcENSt15iterator_traitsIT_E17iterator_categoryERKS3_
FN:205,_ZSt19__iterator_categoryIPcENSt15iterator_traitsIT_E17iterator_categoryERKS2_
FN:205,_ZSt19__iterator_categoryIPKSt5tupleIJdS0_IJddEEEEENSt15iterator_traitsIT_E17iterator_categoryERKS6_
FN:205,_ZSt19__iterator_categoryIPKSt6vectorISt5tupleIJdS1_IJddEEEESaIS3_EEENSt15iterator_traitsIT_E17iterator_categoryERKS9_
FNDA:0,_ZSt19__iterator_categoryIPcENSt15iterator_traitsIT_E17iterator_categoryERKS2_
FNDA:0,_ZSt19__iterator_categoryIPKcENSt15iterator_traitsIT_E17iterator_categoryERKS3_
FNDA:10,_ZSt19__iterator_categoryIPKSt6vectorISt5tupleIJdS1_IJddEEEESaIS3_EEENSt15iterator_traitsIT_E17iterator_categoryERKS9_
FNDA:0,_ZSt19__iterator_categoryIPKSt5tupleIJdS0_IJddEEEEENSt15iterator_traitsIT_E17iterator_categoryERKS6_
FNF:4
FNH:1
DA:205,10
DA:206,10
LF:2
LH:2
end_of_record
SF:/usr/include/c++/8/bits/stl_uninitialized.h
FN:76,_ZNSt20__uninitialized_copyILb0EE13__uninit_copyIPKSt6vectorISt5tupleIJdS3_IJddEEEESaIS5_EEPS7_EET0_T_SC_SB_
FN:76,_ZNSt20__uninitialized_copyILb0EE13__uninit_copyIN9__gnu_cxx17__normal_iteratorIPKSt5tupleIJdS4_IJddEEEESt6vectorIS6_SaIS6_EEEEPS6_EET0_T_SF_SE_
FN:76,_ZNSt20__uninitialized_copyILb0EE13__uninit_copyIPKSt5tupleIJdS2_IJddEEEEPS4_EET0_T_S9_S8_
FN:76,_ZNSt20__uninitialized_copyILb0EE13__uninit_copyIN9__gnu_cxx17__normal_iteratorIPKSt6vectorISt5tupleIJdS5_IJddEEEESaIS7_EES4_IS9_SaIS9_EEEEPS9_EET0_T_SH_SG_
FN:115,_ZSt18uninitialized_copyIN9__gnu_cxx17__normal_iteratorIPKSt6vectorISt5tupleIJdS3_IJddEEEESaIS5_EES2_IS7_SaIS7_EEEEPS7_ET0_T_SF_SE_
FN:115,_ZSt18uninitialized_copyIPKSt5tupleIJdS0_IJddEEEEPS2_ET0_T_S7_S6_
FN:115,_ZSt18uninitialized_copyIPKSt6vectorISt5tupleIJdS1_IJddEEEESaIS3_EEPS5_ET0_T_SA_S9_
FN:115,_ZSt18uninitialized_copyIN9__gnu_cxx17__normal_iteratorIPKSt5tupleIJdS2_IJddEEEESt6vectorIS4_SaIS4_EEEEPS4_ET0_T_SD_SC_
FN:287,_ZSt22__uninitialized_copy_aIPKSt6vectorISt5tupleIJdS1_IJddEEEESaIS3_EEPS5_S5_ET0_T_SA_S9_RSaIT1_E
FN:287,_ZSt22__uninitialized_copy_aIN9__gnu_cxx17__normal_iteratorIPKSt6vectorISt5tupleIJdS3_IJddEEEESaIS5_EES2_IS7_SaIS7_EEEEPS7_S7_ET0_T_SF_SE_RSaIT1_E
FN:287,_ZSt22__uninitialized_copy_aIN9__gnu_cxx17__normal_iteratorIPKSt5tupleIJdS2_IJddEEEESt6vectorIS4_SaIS4_EEEEPS4_S4_ET0_T_SD_SC_RSaIT1_E
FN:287,_ZSt22__uninitialized_copy_aIPKSt5tupleIJdS0_IJddEEEEPS2_S2_ET0_T_S7_S6_RSaIT1_E
FNDA:10,_ZNSt20__uninitialized_copyILb0EE13__uninit_copyIPKSt6vectorISt5tupleIJdS3_IJddEEEESaIS5_EEPS7_EET0_T_SC_SB_
FNDA:0,_ZNSt20__uninitialized_copyILb0EE13__uninit_copyIPKSt5tupleIJdS2_IJddEEEEPS4_EET0_T_S9_S8_
FNDA:0,_ZNSt20__uninitialized_copyILb0EE13__uninit_copyIN9__gnu_cxx17__normal_iteratorIPKSt5tupleIJdS4_IJddEEEESt6vectorIS6_SaIS6_EEEEPS6_EET0_T_SF_SE_
FNDA:12,_ZNSt20__uninitialized_copyILb0EE13__uninit_copyIN9__gnu_cxx17__normal_iteratorIPKSt6vectorISt5tupleIJdS5_IJddEEEESaIS7_EES4_IS9_SaIS9_EEEEPS9_EET0_T_SH_SG_
FNDA:10,_ZSt18uninitialized_copyIPKSt6vectorISt5tupleIJdS1_IJddEEEESaIS3_EEPS5_ET0_T_SA_S9_
FNDA:0,_ZSt18uninitialized_copyIPKSt5tupleIJdS0_IJddEEEEPS2_ET0_T_S7_S6_
FNDA:0,_ZSt18uninitialized_copyIN9__gnu_cxx17__normal_iteratorIPKSt5tupleIJdS2_IJddEEEESt6vectorIS4_SaIS4_EEEEPS4_ET0_T_SD_SC_
FNDA:12,_ZSt18uninitialized_copyIN9__gnu_cxx17__normal_iteratorIPKSt6vectorISt5tupleIJdS3_IJddEEEESaIS5_EES2_IS7_SaIS7_EEEEPS7_ET0_T_SF_SE_
FNDA:10,_ZSt22__uninitialized_copy_aIPKSt6vectorISt5tupleIJdS1_IJddEEEESaIS3_EEPS5_S5_ET0_T_SA_S9_RSaIT1_E
FNDA:0,_ZSt22__uninitialized_copy_aIPKSt5tupleIJdS0_IJddEEEEPS2_S2_ET0_T_S7_S6_RSaIT1_E
FNDA:0,_ZSt22__uninitialized_copy_aIN9__gnu_cxx17__normal_iteratorIPKSt5tupleIJdS2_IJddEEEESt6vectorIS4_SaIS4_EEEEPS4_S4_ET0_T_SD_SC_RSaIT1_E
FNDA:12,_ZSt22__uninitialized_copy_aIN9__gnu_cxx17__normal_iteratorIPKSt6vectorISt5tupleIJdS3_IJddEEEESaIS5_EES2_IS7_SaIS7_EEEEPS7_S7_ET0_T_SF_SE_RSaIT1_E
FNF:12
FNH:6
DA:76,22
DA:79,22
DA:82,94
DA:83,72
DA:84,22
DA:86,0
DA:88,0
DA:89,0
DA:115,22
DA:128,22
DA:134,22
DA:287,22
DA:289,22
LF:13
LH:10
end_of_record
SF:/usr/include/c++/8/bits/stl_vector.h
FN:95,_ZNSt12_Vector_baseISt6vectorISt5tupleIJdS1_IJddEEEESaIS3_EESaIS5_EE12_Vector_implC2Ev
FN:99,_ZNSt12_Vector_baseISt6vectorISt5tupleIJdS1_IJddEEEESaIS3_EESaIS5_EE12_Vector_implC2ERKS6_
FN:99,_ZNSt12_Vector_baseISt5tupleIJdS0_IJddEEEESaIS2_EE12_Vector_implC2ERKS3_
FN:237,_ZNSt12_Vector_baseISt5tupleIJdS0_IJddEEEESaIS2_EE19_M_get_Tp_allocatorEv
FN:237,_ZNSt12_Vector_baseISt6vectorISt5tupleIJdS1_IJddEEEESaIS3_EESaIS5_EE19_M_get_Tp_allocatorEv
FN:241,_ZNKSt12_Vector_baseISt5tupleIJdS0_IJddEEEESaIS2_EE19_M_get_Tp_allocatorEv
FN:241,_ZNKSt12_Vector_baseISt6vectorISt5tupleIJdS1_IJddEEEESaIS3_EESaIS5_EE19_M_get_Tp_allocatorEv
FN:248,_ZNSt12_Vector_baseISt6vectorISt5tupleIJdS1_IJddEEEESaIS3_EESaIS5_EEC2Ev
FN:251,_ZNSt12_Vector_baseISt5tupleIJdS0_IJddEEEESaIS2_EEC2ERKS3_
FN:251,_ZNSt12_Vector_baseISt6vectorISt5tupleIJdS1_IJddEEEESaIS3_EESaIS5_EEC2ERKS6_
FN:258,_ZNSt12_Vector_baseISt5tupleIJdS0_IJddEEEESaIS2_EEC2EmRKS3_
FN:258,_ZNSt12_Vector_baseISt6vectorISt5tupleIJdS1_IJddEEEESaIS3_EESaIS5_EEC2EmRKS6_
FN:283,_ZNSt12_Vector_baseISt5tupleIJdS0_IJddEEEESaIS2_EED2Ev
FN:283,_ZNSt12_Vector_baseISt6vectorISt5tupleIJdS1_IJddEEEESaIS3_EESaIS5_EED2Ev
FN:293,_ZNSt12_Vector_baseISt5tupleIJdS0_IJddEEEESaIS2_EE11_M_allocateEm
FN:293,_ZNSt12_Vector_baseISt6vectorISt5tupleIJdS1_IJddEEEESaIS3_EESaIS5_EE11_M_allocateEm
FN:300,_ZNSt12_Vector_baseISt5tupleIJdS0_IJddEEEESaIS2_EE13_M_deallocateEPS2_m
FN:300,_ZNSt12_Vector_baseISt6vectorISt5tupleIJdS1_IJddEEEESaIS3_EESaIS5_EE13_M_deallocateEPS5_m
FN:309,_ZNSt12_Vector_baseISt6vectorISt5tupleIJdS1_IJddEEEESaIS3_EESaIS5_EE17_M_create_storageEm
FN:309,_ZNSt12_Vector_baseISt5tupleIJdS0_IJddEEEESaIS2_EE17_M_create_storageEm
FN:391,_ZNSt6vectorIS_ISt5tupleIJdS0_IJddEEEESaIS2_EESaIS4_EEC2Ev
FN:458,_ZNSt6vectorIS_ISt5tupleIJdS0_IJddEEEESaIS2_EESaIS4_EEC2ERKS6_
FN:458,_ZNSt6vectorISt5tupleIJdS0_IJddEEEESaIS2_EEC2ERKS4_
FN:515,_ZNSt6vectorIS_ISt5tupleIJdS0_IJddEEEESaIS2_EESaIS4_EEC2ESt16initializer_listIS4_ERKS5_
FN:515,_ZNSt6vectorISt5tupleIJdS0_IJddEEEESaIS2_EEC2ESt16initializer_listIS2_ERKS3_
FN:565,_ZNSt6vectorISt5tupleIJdS0_IJddEEEESaIS2_EED2Ev
FN:565,_ZNSt6vectorIS_ISt5tupleIJdS0_IJddEEEESaIS2_EESaIS4_EED2Ev
FN:707,_ZNKSt6vectorIS_ISt5tupleIJdS0_IJddEEEESaIS2_EESaIS4_EE5beginEv
FN:707,_ZNKSt6vectorISt5tupleIJdS0_IJddEEEESaIS2_EE5beginEv
FN:725,_ZNKSt6vectorIS_ISt5tupleIJdS0_IJddEEEESaIS2_EESaIS4_EE3endEv
FN:725,_ZNKSt6vectorISt5tupleIJdS0_IJddEEEESaIS2_EE3endEv
FN:805,_ZNKSt6vectorISt5tupleIJdS0_IJddEEEESaIS2_EE4sizeEv
FN:805,_ZNKSt6vectorIS_ISt5tupleIJdS0_IJddEEEESaIS2_EESaIS4_EE4sizeEv
FN:1462,_ZNSt6vectorISt5tupleIJdS0_IJddEEEESaIS2_EE19_M_range_initializeIPKS2_EEvT_S8_St20forward_iterator_tag
FN:1462,_ZNSt6vectorIS_ISt5tupleIJdS0_IJddEEEESaIS2_EESaIS4_EE19_M_range_initializeIPKS4_EEvT_SA_St20forward_iterator_tag
FNDA:2,_ZNSt12_Vector_baseISt6vectorISt5tupleIJdS1_IJddEEEESaIS3_EESaIS5_EE12_Vector_implC2Ev
FNDA:0,_ZNSt12_Vector_baseISt5tupleIJdS0_IJddEEEESaIS2_EE12_Vector_implC2ERKS3_
FNDA:22,_ZNSt12_Vector_baseISt6vectorISt5tupleIJdS1_IJddEEEESaIS3_EESaIS5_EE12_Vector_implC2ERKS6_
FNDA:0,_ZNSt12_Vector_baseISt5tupleIJdS0_IJddEEEESaIS2_EE19_M_get_Tp_allocatorEv
FNDA:46,_ZNSt12_Vector_baseISt6vectorISt5tupleIJdS1_IJddEEEESaIS3_EESaIS5_EE19_M_get_Tp_allocatorEv
FNDA:0,_ZNKSt12_Vector_baseISt5tupleIJdS0_IJddEEEESaIS2_EE19_M_get_Tp_allocatorEv
FNDA:12,_ZNKSt12_Vector_baseISt6vectorISt5tupleIJdS1_IJddEEEESaIS3_EESaIS5_EE19_M_get_Tp_allocatorEv
FNDA:2,_ZNSt12_Vector_baseISt6vectorISt5tupleIJdS1_IJddEEEESaIS3_EESaIS5_EEC2Ev
FNDA:10,_ZNSt12_Vector_baseISt6vectorISt5tupleIJdS1_IJddEEEESaIS3_EESaIS5_EEC2ERKS6_
FNDA:0,_ZNSt12_Vector_baseISt5tupleIJdS0_IJddEEEESaIS2_EEC2ERKS3_
FNDA:0,_ZNSt12_Vector_baseISt5tupleIJdS0_IJddEEEESaIS2_EEC2EmRKS3_
FNDA:12,_ZNSt12_Vector_baseISt6vectorISt5tupleIJdS1_IJddEEEESaIS3_EESaIS5_EEC2EmRKS6_
FNDA:0,_ZNSt12_Vector_baseISt5tupleIJdS0_IJddEEEESaIS2_EED2Ev
FNDA:24,_ZNSt12_Vector_baseISt6vectorISt5tupleIJdS1_IJddEEEESaIS3_EESaIS5_EED2Ev
FNDA:22,_ZNSt12_Vector_baseISt6vectorISt5tupleIJdS1_IJddEEEESaIS3_EESaIS5_EE11_M_allocateEm
FNDA:0,_ZNSt12_Vector_baseISt5tupleIJdS0_IJddEEEESaIS2_EE11_M_allocateEm
FNDA:0,_ZNSt12_Vector_baseISt5tupleIJdS0_IJddEEEESaIS2_EE13_M_deallocateEPS2_m
FNDA:24,_ZNSt12_Vector_baseISt6vectorISt5tupleIJdS1_IJddEEEESaIS3_EESaIS5_EE13_M_deallocateEPS5_m
FNDA:0,_ZNSt12_Vector_baseISt5tupleIJdS0_IJddEEEESaIS2_EE17_M_create_storageEm
FNDA:12,_ZNSt12_Vector_baseISt6vectorISt5tupleIJdS1_IJddEEEESaIS3_EESaIS5_EE17_M_create_storageEm
FNDA:2,_ZNSt6vectorIS_ISt5tupleIJdS0_IJddEEEESaIS2_EESaIS4_EEC2Ev
FNDA:0,_ZNSt6vectorISt5tupleIJdS0_IJddEEEESaIS2_EEC2ERKS4_
FNDA:12,_ZNSt6vectorIS_ISt5tupleIJdS0_IJddEEEESaIS2_EESaIS4_EEC2ERKS6_
FNDA:10,_ZNSt6vectorIS_ISt5tupleIJdS0_IJddEEEESaIS2_EESaIS4_EEC2ESt16initializer_listIS4_ERKS5_
FNDA:0,_ZNSt6vectorISt5tupleIJdS0_IJddEEEESaIS2_EEC2ESt16initializer_listIS2_ERKS3_
FNDA:0,_ZNSt6vectorISt5tupleIJdS0_IJddEEEESaIS2_EED2Ev
FNDA:24,_ZNSt6vectorIS_ISt5tupleIJdS0_IJddEEEESaIS2_EESaIS4_EED2Ev
FNDA:0,_ZNKSt6vectorISt5tupleIJdS0_IJddEEEESaIS2_EE5beginEv
FNDA:12,_ZNKSt6vectorIS_ISt5tupleIJdS0_IJddEEEESaIS2_EESaIS4_EE5beginEv
FNDA:0,_ZNKSt6vectorISt5tupleIJdS0_IJddEEEESaIS2_EE3endEv
FNDA:12,_ZNKSt6vectorIS_ISt5tupleIJdS0_IJddEEEESaIS2_EESaIS4_EE3endEv
FNDA:0,_ZNKSt6vectorISt5tupleIJdS0_IJddEEEESaIS2_EE4sizeEv
FNDA:0,_ZNKSt6vectorIS_ISt5tupleIJdS0_IJddEEEESaIS2_EESaIS4_EE4sizeEv
FNDA:10,_ZNSt6vectorIS_ISt5tupleIJdS0_IJddEEEESaIS2_EESaIS4_EE19_M_range_initializeIPKS4_EEvT_SA_St20forward_iterator_tag
FNDA:0,_ZNSt6vectorISt5tupleIJdS0_IJddEEEESaIS2_EE19_M_range_initializeIPKS2_EEvT_S8_St20forward_iterator_tag
FNF:35
FNH:18
DA:95,2
DA:96,2
DA:97,2
DA:99,22
DA:100,22
DA:101,22
DA:237,46
DA:238,46
DA:241,12
DA:242,12
DA:248,2
DA:249,2
DA:251,10
DA:252,10
DA:258,12
DA:259,12
DA:260,12
DA:283,24
DA:285,24
DA:286,24
DA:287,24
DA:293,22
DA:296,22
DA:300,24
DA:303,24
DA:304,20
DA:305,24
DA:309,12
DA:311,12
DA:312,12
DA:313,12
DA:314,12
DA:391,2
DA:395,2
DA:458,12
DA:460,12
DA:462,12
DA:463,12
DA:465,12
DA:466,12
DA:515,10
DA:517,10
DA:519,10
DA:521,10
DA:565,24
DA:567,24
DA:568,24
DA:570,24
DA:707,12
DA:708,12
DA:725,12
DA:726,12
DA:805,0
DA:806,0
DA:1462,10
DA:1465,10
DA:1466,10
DA:1467,10
DA:1468,10
DA:1469,10
DA:1471,10
DA:1472,10
LF:62
LH:60
end_of_record
SF:/usr/include/c++/8/ext/type_traits.h
FN:152,_ZN9__gnu_cxx17__is_null_pointerIcEEbPT_
FN:152,_ZN9__gnu_cxx17__is_null_pointerIKcEEbPT_
FNDA:0,_ZN9__gnu_cxx17__is_null_pointerIcEEbPT_
FNDA:0,_ZN9__gnu_cxx17__is_null_pointerIKcEEbPT_
FNF:2
FNH:0
DA:152,0
DA:153,0
LF:2
LH:0
end_of_record
TN:
SF:/usr/include/c++/8/bits/alloc_traits.h
FN:435,_ZNSt16allocator_traitsISaIiEE8allocateERS0_m
FN:435,_ZNSt16allocator_traitsISaISt5tupleIJdS0_IJddEEEEEE8allocateERS3_m
FN:461,_ZNSt16allocator_traitsISaIiEE10deallocateERS0_Pim
FN:461,_ZNSt16allocator_traitsISaISt5tupleIJdS0_IJddEEEEEE10deallocateERS3_PS2_m
FN:474,_ZNSt16allocator_traitsISaIiEE9constructIiJRKiEEEvRS0_PT_DpOT0_
FN:486,_ZNSt16allocator_traitsISaIiEE7destroyIiEEvRS0_PT_
FN:495,_ZNSt16allocator_traitsISaIiEE8max_sizeERKS0_
FN:504,_ZNSt16allocator_traitsISaISt5tupleIJdS0_IJddEEEEEE37select_on_container_copy_constructionERKS3_
FN:504,_ZNSt16allocator_traitsISaIiEE37select_on_container_copy_constructionERKS0_
FN:504,_ZNSt16allocator_traitsISaIcEE37select_on_container_copy_constructionERKS0_
FNDA:0,_ZNSt16allocator_traitsISaIiEE8allocateERS0_m
FNDA:0,_ZNSt16allocator_traitsISaISt5tupleIJdS0_IJddEEEEEE8allocateERS3_m
FNDA:0,_ZNSt16allocator_traitsISaIiEE10deallocateERS0_Pim
FNDA:0,_ZNSt16allocator_traitsISaISt5tupleIJdS0_IJddEEEEEE10deallocateERS3_PS2_m
FNDA:18,_ZNSt16allocator_traitsISaIiEE9constructIiJRKiEEEvRS0_PT_DpOT0_
FNDA:0,_ZNSt16allocator_traitsISaIiEE7destroyIiEEvRS0_PT_
FNDA:188,_ZNSt16allocator_traitsISaIiEE8max_sizeERKS0_
FNDA:14,_ZNSt16allocator_traitsISaIiEE37select_on_container_copy_constructionERKS0_
FNDA:0,_ZNSt16allocator_traitsISaISt5tupleIJdS0_IJddEEEEEE37select_on_container_copy_constructionERKS3_
FNDA:0,_ZNSt16allocator_traitsISaIcEE37select_on_container_copy_constructionERKS0_
FNF:10
FNH:3
DA:435,0
DA:436,0
DA:461,0
DA:462,0
DA:474,18
DA:475,18
DA:486,0
DA:487,0
DA:495,188
DA:496,188
DA:504,14
DA:505,14
LF:12
LH:6
end_of_record
SF:/usr/include/c++/8/ext/alloc_traits.h
FN:94,_ZN9__gnu_cxx14__alloc_traitsISaIiEiE17_S_select_on_copyERKS1_
FN:94,_ZN9__gnu_cxx14__alloc_traitsISaIcEcE17_S_select_on_copyERKS1_
FN:94,_ZN9__gnu_cxx14__alloc_traitsISaISt5tupleIJdS1_IJddEEEEES3_E17_S_select_on_copyERKS4_
FNDA:14,_ZN9__gnu_cxx14__alloc_traitsISaIiEiE17_S_select_on_copyERKS1_
FNDA:0,_ZN9__gnu_cxx14__alloc_traitsISaISt5tupleIJdS1_IJddEEEEES3_E17_S_select_on_copyERKS4_
FNDA:0,_ZN9__gnu_cxx14__alloc_traitsISaIcEcE17_S_select_on_copyERKS1_
FNF:3
FNH:1
DA:94,14
DA:95,14
LF:2
LH:2
end_of_record
SF:/usr/include/c++/8/bits/allocator.h
FN:131,_ZNSaIiEC2Ev
FN:131,_ZNSaISt5tupleIJdS_IJddEEEEEC2Ev
FN:133,_ZNSaIiEC2ERKS_
FN:133,_ZNSaISt5tupleIJdS_IJddEEEEEC2ERKS2_
FN:139,_ZNSaIiED2Ev
FN:139,_ZNSaISt5tupleIJdS_IJddEEEEED2Ev
FNDA:0,_ZNSaIiEC2Ev
FNDA:0,_ZNSaISt5tupleIJdS_IJddEEEEEC2Ev
FNDA:0,_ZNSaIiEC2ERKS_
FNDA:0,_ZNSaISt5tupleIJdS_IJddEEEEEC2ERKS2_
FNDA:0,_ZNSaIiED2Ev
FNDA:0,_ZNSaISt5tupleIJdS_IJddEEEEED2Ev
FNF:6
FNH:0
DA:131,0
DA:133,0
DA:134,0
DA:139,0
LF:4
LH:0
end_of_record
SF:/usr/include/c++/8/bits/basic_string.h
FN:232,_ZNSt7__cxx1112basic_stringIcSt11char_traitsIcESaIcEE16_M_construct_auxIPcEEvT_S7_St12__false_type
FN:232,_ZNSt7__cxx1112basic_stringIcSt11char_traitsIcESaIcEE16_M_construct_auxIPKcEEvT_S8_St12__false_type
FN:252,_ZNSt7__cxx1112basic_stringIcSt11char_traitsIcESaIcEE12_M_constructIPcEEvT_S7_
FN:252,_ZNSt7__cxx1112basic_stringIcSt11char_traitsIcESaIcEE12_M_constructIPKcEEvT_S8_
FNDA:0,_ZNSt7__cxx1112basic_stringIcSt11char_traitsIcESaIcEE16_M_construct_auxIPcEEvT_S7_St12__false_type
FNDA:0,_ZNSt7__cxx1112basic_stringIcSt11char_traitsIcESaIcEE16_M_construct_auxIPKcEEvT_S8_St12__false_type
FNDA:0,_ZNSt7__cxx1112basic_stringIcSt11char_traitsIcESaIcEE12_M_constructIPcEEvT_S7_
FNDA:0,_ZNSt7__cxx1112basic_stringIcSt11char_traitsIcESaIcEE12_M_constructIPKcEEvT_S8_
FNF:4
FNH:0
DA:232,0
DA:236,0
DA:237,0
DA:252,0
DA:255,0
DA:256,0
LF:6
LH:0
end_of_record
SF:/usr/include/c++/8/bits/basic_string.tcc
FN:206,_ZNSt7__cxx1112basic_stringIcSt11char_traitsIcESaIcEE12_M_constructIPKcEEvT_S8_St20forward_iterator_tag
FN:206,_ZNSt7__cxx1112basic_stringIcSt11char_traitsIcESaIcEE12_M_constructIPcEEvT_S7_St20forward_iterator_tag
FNDA:0,_ZNSt7__cxx1112basic_stringIcSt11char_traitsIcESaIcEE12_M_constructIPcEEvT_S7_St20forward_iterator_tag
FNDA:0,_ZNSt7__cxx1112basic_stringIcSt11char_traitsIcESaIcEE12_M_constructIPKcEEvT_S8_St20forward_iterator_tag
FNF:2
FNH:0
DA:206,0
DA:211,0
DA:212,0
DA:215,0
DA:217,0
DA:219,0
DA:220,0
DA:225,0
DA:226,0
DA:228,0
DA:229,0
DA:232,0
DA:233,0
LF:13
LH:0
end_of_record
SF:/usr/include/c++/8/bits/char_traits.h
FN:316,_ZNSt11char_traitsIcE6lengthEPKc
FNDA:0,_ZNSt11char_traitsIcE6lengthEPKc
FNF:1
FNH:0
DA:316,0
DA:322,0
LF:2
LH:0
end_of_record
SF:/home/leito-chan/Downloads/TPI/transporteUrbano/tests/completarHuecosTEST.cpp
FN:9,_Z13sin_faltantesSt6vectorISt5tupleIJdS0_IJddEEEESaIS2_EES_IiSaIiEE
FN:18,_Z26obtener_siguiente_de_huecoSt6vectorISt5tupleIJdS0_IJddEEEESaIS2_EEi
FN:42,_Z25obtener_anterior_de_huecoSt6vectorISt5tupleIJdS0_IJddEEEESaIS2_EEi
FN:66,_Z33distancia_y_tiempo_proporcionalesSt6vectorISt5tupleIJdS0_IJddEEEESaIS2_EES4_S_IiSaIiEE
FN:97,_Z10sin_huecosSt6vectorISt5tupleIJdS0_IJddEEEESaIS2_EE
FN:107,_ZN50completarHuecosTEST_largo_del_viaje_no_cambia_Test8TestBodyEv
FN:107,_ZN50completarHuecosTEST_largo_del_viaje_no_cambia_TestC2Ev
FN:133,_ZN42completarHuecosTEST_sin_pos_faltantes_Test8TestBodyEv
FN:133,_ZN42completarHuecosTEST_sin_pos_faltantes_TestC2Ev
FN:161,_ZN40completarHuecosTEST_puntos_cercanos_Test8TestBodyEv
FN:161,_ZN40completarHuecosTEST_puntos_cercanos_TestC2Ev
FN:196,_ZN56completarHuecosTEST_proporcional_distancia_y_tiempo_TestC2Ev
FN:196,_ZN56completarHuecosTEST_proporcional_distancia_y_tiempo_Test8TestBodyEv
FN:224,_ZN41completarHuecosTEST_mismos_no_huecos_TestC2Ev
FN:224,_ZN41completarHuecosTEST_mismos_no_huecos_Test8TestBodyEv
FNDA:2,_Z13sin_faltantesSt6vectorISt5tupleIJdS0_IJddEEEESaIS2_EES_IiSaIiEE
FNDA:6,_Z26obtener_siguiente_de_huecoSt6vectorISt5tupleIJdS0_IJddEEEESaIS2_EEi
FNDA:6,_Z25obtener_anterior_de_huecoSt6vectorISt5tupleIJdS0_IJddEEEESaIS2_EEi
FNDA:2,_Z33distancia_y_tiempo_proporcionalesSt6vectorISt5tupleIJdS0_IJddEEEESaIS2_EES4_S_IiSaIiEE
FNDA:2,_Z10sin_huecosSt6vectorISt5tupleIJdS0_IJddEEEESaIS2_EE
FNDA:2,_ZN50completarHuecosTEST_largo_del_viaje_no_cambia_Test8TestBodyEv
FNDA:2,_ZN50completarHuecosTEST_largo_del_viaje_no_cambia_TestC2Ev
FNDA:2,_ZN42completarHuecosTEST_sin_pos_faltantes_Test8TestBodyEv
FNDA:2,_ZN42completarHuecosTEST_sin_pos_faltantes_TestC2Ev
FNDA:2,_ZN40completarHuecosTEST_puntos_cercanos_Test8TestBodyEv
FNDA:2,_ZN40completarHuecosTEST_puntos_cercanos_TestC2Ev
FNDA:2,_ZN56completarHuecosTEST_proporcional_distancia_y_tiempo_Test8TestBodyEv
FNDA:2,_ZN56completarHuecosTEST_proporcional_distancia_y_tiempo_TestC2Ev
FNDA:2,_ZN41completarHuecosTEST_mismos_no_huecos_Test8TestBodyEv
FNDA:2,_ZN41completarHuecosTEST_mismos_no_huecos_TestC2Ev
FNF:15
FNH:15
DA:9,2
DA:10,2
DA:11,2
DA:12,2
DA:15,0
DA:18,6
DA:20,6
DA:21,14
DA:22,14
DA:23,6
DA:24,6
DA:27,6
DA:28,6
DA:29,6
DA:30,6
DA:33,10
DA:34,10
DA:35,6
DA:36,6
DA:39,12
DA:42,6
DA:43,6
DA:44,6
DA:45,14
DA:46,14
DA:47,6
DA:48,6
DA:51,6
DA:52,6
DA:53,6
DA:54,6
DA:57,16
DA:58,16
DA:59,6
DA:60,6
DA:63,12
DA:66,2
DA:68,2
DA:69,2
DA:70,2
DA:77,2
DA:78,2
DA:79,2
DA:80,2
DA:81,2
DA:82,2
DA:83,2
DA:84,2
DA:85,2
DA:86,2
DA:87,2
DA:88,2
DA:89,2
DA:90,2
DA:91,2
DA:94,0
DA:97,2
DA:98,6
DA:99,6
DA:100,2
DA:103,0
DA:107,4
DA:108,2
DA:109,2
DA:110,2
DA:111,2
DA:117,4
DA:119,4
DA:120,10
DA:122,8
DA:123,2
DA:127,4
DA:128,2
DA:130,2
DA:131,2
DA:133,4
DA:134,2
DA:135,2
DA:136,2
DA:137,2
DA:138,2
DA:145,4
DA:147,4
DA:148,12
DA:150,10
DA:151,6
DA:155,4
DA:156,2
DA:158,2
DA:159,2
DA:161,4
DA:162,2
DA:163,2
DA:164,2
DA:165,2
DA:166,2
DA:173,4
DA:175,4
DA:176,12
DA:178,10
DA:179,4
DA:183,4
DA:184,2
DA:186,2
DA:187,2
DA:188,2
DA:189,2
DA:190,2
DA:191,2
DA:192,2
DA:193,2
DA:194,2
DA:196,4
DA:197,2
DA:198,2
DA:199,2
DA:200,2
DA:201,2
DA:208,4
DA:210,4
DA:211,12
DA:213,10
DA:214,4
DA:218,4
DA:219,2
DA:221,2
DA:222,2
DA:224,4
DA:225,2
DA:226,2
DA:227,2
DA:232,4
DA:234,4
DA:235,8
DA:237,6
DA:238,2
DA:241,2
DA:242,2
DA:243,2
LF:139
LH:136
end_of_record
SF:/usr/include/c++/8/bits/cpp_type_traits.h
FN:419,_ZSt12__miter_baseIN9__gnu_cxx17__normal_iteratorIPKiSt6vectorIiSaIiEEEEET_S8_
FN:419,_ZSt12__miter_baseIPiET_S1_
FNDA:376,_ZSt12__miter_baseIPiET_S1_
FNDA:28,_ZSt12__miter_baseIN9__gnu_cxx17__normal_iteratorIPKiSt6vectorIiSaIiEEEEET_S8_
FNF:2
FNH:2
DA:419,404
DA:420,404
LF:2
LH:2
end_of_record
SF:/home/leito-chan/Downloads/TPI/transporteUrbano/lib/googletest-master/googletest/include/gtest/internal/gtest-internal.h
FN:466,_ZN7testing8internal15TestFactoryBaseD2Ev
FN:466,_ZN7testing8internal15TestFactoryBaseD0Ev
FN:473,_ZN7testing8internal15TestFactoryBaseC2Ev
FN:484,_ZN7testing8internal15TestFactoryImplI42completarHuecosTEST_sin_pos_faltantes_TestE10CreateTestEv
FN:484,_ZN7testing8internal15TestFactoryImplI40completarHuecosTEST_puntos_cercanos_TestE10CreateTestEv
FN:484,_ZN7testing8internal15TestFactoryImplI50completarHuecosTEST_largo_del_viaje_no_cambia_TestE10CreateTestEv
FN:484,_ZN7testing8internal15TestFactoryImplI56completarHuecosTEST_proporcional_distancia_y_tiempo_TestE10CreateTestEv
FN:484,_ZN7testing8internal15TestFactoryImplI41completarHuecosTEST_mismos_no_huecos_TestE10CreateTestEv
FN:505,_ZN7testing8internal12CodeLocationC2ERKNSt7__cxx1112basic_stringIcSt11char_traitsIcESaIcEEEi
FNDA:0,_ZN7testing8internal15TestFactoryBaseD0Ev
FNDA:0,_ZN7testing8internal15TestFactoryBaseD2Ev
FNDA:0,_ZN7testing8internal15TestFactoryBaseC2Ev
FNDA:2,_ZN7testing8internal15TestFactoryImplI50completarHuecosTEST_largo_del_viaje_no_cambia_TestE10CreateTestEv
FNDA:2,_ZN7testing8internal15TestFactoryImplI42completarHuecosTEST_sin_pos_faltantes_TestE10CreateTestEv
FNDA:2,_ZN7testing8internal15TestFactoryImplI40completarHuecosTEST_puntos_cercanos_TestE10CreateTestEv
FNDA:2,_ZN7testing8internal15TestFactoryImplI56completarHuecosTEST_proporcional_distancia_y_tiempo_TestE10CreateTestEv
FNDA:2,_ZN7testing8internal15TestFactoryImplI41completarHuecosTEST_mismos_no_huecos_TestE10CreateTestEv
FNDA:0,_ZN7testing8internal12CodeLocationC2ERKNSt7__cxx1112basic_stringIcSt11char_traitsIcESaIcEEEi
FNF:9
FNH:5
DA:466,0
DA:473,0
DA:484,10
DA:505,0
DA:506,0
LF:5
LH:1
end_of_record
SF:/home/leito-chan/Downloads/TPI/transporteUrbano/lib/googletest-master/googletest/include/gtest/internal/gtest-port.h
FN:1156,_ZN7testing8internal10scoped_ptrINSt7__cxx1112basic_stringIcSt11char_traitsIcESaIcEEEEC2EPS7_
FN:1157,_ZN7testing8internal10scoped_ptrINSt7__cxx1118basic_stringstreamIcSt11char_traitsIcESaIcEEEED2Ev
FN:1157,_ZN7testing8internal10scoped_ptrINSt7__cxx1112basic_stringIcSt11char_traitsIcESaIcEEEED2Ev
FN:1160,_ZNK7testing8internal10scoped_ptrINSt7__cxx1112basic_stringIcSt11char_traitsIcESaIcEEEEptEv
FN:1161,_ZNK7testing8internal10scoped_ptrINSt7__cxx1112basic_stringIcSt11char_traitsIcESaIcEEEE3getEv
FN:1169,_ZN7testing8internal10scoped_ptrINSt7__cxx1112basic_stringIcSt11char_traitsIcESaIcEEEE5resetEPS7_
FN:1169,_ZN7testing8internal10scoped_ptrINSt7__cxx1118basic_stringstreamIcSt11char_traitsIcESaIcEEEE5resetEPS7_
FNDA:0,_ZN7testing8internal10scoped_ptrINSt7__cxx1112basic_stringIcSt11char_traitsIcESaIcEEEEC2EPS7_
FNDA:0,_ZN7testing8internal10scoped_ptrINSt7__cxx1112basic_stringIcSt11char_traitsIcESaIcEEEED2Ev
FNDA:0,_ZN7testing8internal10scoped_ptrINSt7__cxx1118basic_stringstreamIcSt11char_traitsIcESaIcEEEED2Ev
FNDA:0,_ZNK7testing8internal10scoped_ptrINSt7__cxx1112basic_stringIcSt11char_traitsIcESaIcEEEEptEv
FNDA:0,_ZNK7testing8internal10scoped_ptrINSt7__cxx1112basic_stringIcSt11char_traitsIcESaIcEEEE3getEv
FNDA:0,_ZN7testing8internal10scoped_ptrINSt7__cxx1118basic_stringstreamIcSt11char_traitsIcESaIcEEEE5resetEPS7_
FNDA:0,_ZN7testing8internal10scoped_ptrINSt7__cxx1112basic_stringIcSt11char_traitsIcESaIcEEEE5resetEPS7_
FNF:7
FNH:0
DA:1156,0
DA:1157,0
DA:1160,0
DA:1161,0
DA:1169,0
DA:1170,0
DA:1171,0
DA:1172,0
DA:1174,0
DA:1176,0
LF:10
LH:0
end_of_record
SF:/home/leito-chan/Downloads/TPI/transporteUrbano/lib/googletest-master/googletest/include/gtest/gtest-printers.h
FN:222,_ZN16testing_internal26DefaultPrintNonContainerToIiEEvRKT_PSo
FN:222,_ZN16testing_internal26DefaultPrintNonContainerToImEEvRKT_PSo
FN:275,_ZN7testing8internal19FormatForComparisonIiiE6FormatB5cxx11ERKi
FN:275,_ZN7testing8internal19FormatForComparisonImmE6FormatB5cxx11ERKm
FN:349,_ZN7testing8internal33FormatForComparisonFailureMessageIiiEENSt7__cxx1112basic_stringIcSt11char_traitsIcESaIcEEERKT_RKT0_
FN:349,_ZN7testing8internal33FormatForComparisonFailureMessageImmEENSt7__cxx1112basic_stringIcSt11char_traitsIcESaIcEEERKT_RKT0_
FN:442,_ZN7testing8internal14DefaultPrintToIiEEvNS0_15WrapPrinterTypeILNS0_18DefaultPrinterTypeE3EEERKT_PSo
FN:442,_ZN7testing8internal14DefaultPrintToImEEvNS0_15WrapPrinterTypeILNS0_18DefaultPrinterTypeE3EEERKT_PSo
FN:459,_ZN7testing8internal7PrintToIiEEvRKT_PSo
FN:459,_ZN7testing8internal7PrintToImEEvRKT_PSo
FN:714,_ZN7testing8internal16UniversalPrinterIiE5PrintERKiPSo
FN:714,_ZN7testing8internal16UniversalPrinterImE5PrintERKmPSo
FN:799,_ZN7testing8internal21UniversalTersePrinterIiE5PrintERKiPSo
FN:799,_ZN7testing8internal21UniversalTersePrinterImE5PrintERKmPSo
FN:868,_ZN7testing8internal14UniversalPrintIiEEvRKT_PSo
FN:868,_ZN7testing8internal14UniversalPrintImEEvRKT_PSo
FNDA:0,_ZN16testing_internal26DefaultPrintNonContainerToIiEEvRKT_PSo
FNDA:0,_ZN16testing_internal26DefaultPrintNonContainerToImEEvRKT_PSo
FNDA:0,_ZN7testing8internal19FormatForComparisonIiiE6FormatB5cxx11ERKi
FNDA:0,_ZN7testing8internal19FormatForComparisonImmE6FormatB5cxx11ERKm
FNDA:0,_ZN7testing8internal33FormatForComparisonFailureMessageIiiEENSt7__cxx1112basic_stringIcSt11char_traitsIcESaIcEEERKT_RKT0_
FNDA:0,_ZN7testing8internal33FormatForComparisonFailureMessageImmEENSt7__cxx1112basic_stringIcSt11char_traitsIcESaIcEEERKT_RKT0_
FNDA:0,_ZN7testing8internal14DefaultPrintToIiEEvNS0_15WrapPrinterTypeILNS0_18DefaultPrinterTypeE3EEERKT_PSo
FNDA:0,_ZN7testing8internal14DefaultPrintToImEEvNS0_15WrapPrinterTypeILNS0_18DefaultPrinterTypeE3EEERKT_PSo
FNDA:0,_ZN7testing8internal7PrintToIiEEvRKT_PSo
FNDA:0,_ZN7testing8internal7PrintToImEEvRKT_PSo
FNDA:0,_ZN7testing8internal16UniversalPrinterIiE5PrintERKiPSo
FNDA:0,_ZN7testing8internal16UniversalPrinterImE5PrintERKmPSo
FNDA:0,_ZN7testing8internal21UniversalTersePrinterIiE5PrintERKiPSo
FNDA:0,_ZN7testing8internal21UniversalTersePrinterImE5PrintERKmPSo
FNDA:0,_ZN7testing8internal14UniversalPrintIiEEvRKT_PSo
FNDA:0,_ZN7testing8internal14UniversalPrintImEEvRKT_PSo
FNF:16
FNH:0
DA:222,0
DA:249,0
DA:250,0
DA:275,0
DA:276,0
DA:349,0
DA:351,0
DA:442,0
DA:444,0
DA:445,0
DA:459,0
DA:481,0
DA:494,0
DA:714,0
DA:723,0
DA:724,0
DA:799,0
DA:800,0
DA:801,0
DA:868,0
DA:872,0
DA:873,0
DA:996,0
DA:997,0
DA:998,0
DA:999,0
LF:26
LH:0
end_of_record
SF:/home/leito-chan/Downloads/TPI/transporteUrbano/lib/googletest-master/googletest/include/gtest/gtest.h
FN:272,_ZN7testing15AssertionResultC2IbEERKT_PNS_8internal8EnableIfIXntsrNS5_21ImplicitlyConvertibleIS2_S0_EE5valueEE4typeE
FN:288,_ZNK7testing15AssertionResultcvbEv
FN:297,_ZNK7testing15AssertionResult7messageEv
FN:302,_ZNK7testing15AssertionResult15failure_messageEv
FN:389,_ZN7testing4Test13SetUpTestCaseEv
FN:397,_ZN7testing4Test16TearDownTestCaseEv
FN:474,_ZN7testing4Test5SetupEv
FN:1375,_ZN7testing8internal18CmpHelperEQFailureImmEENS_15AssertionResultEPKcS4_RKT_RKT0_
FN:1375,_ZN7testing8internal18CmpHelperEQFailureIiiEENS_15AssertionResultEPKcS4_RKT_RKT0_
FN:1387,_ZN7testing8internal11CmpHelperEQIiiEENS_15AssertionResultEPKcS4_RKT_RKT0_
FN:1387,_ZN7testing8internal11CmpHelperEQImmEENS_15AssertionResultEPKcS4_RKT_RKT0_
FNDA:0,_ZN7testing15AssertionResultC2IbEERKT_PNS_8internal8EnableIfIXntsrNS5_21ImplicitlyConvertibleIS2_S0_EE5valueEE4typeE
FNDA:0,_ZNK7testing15AssertionResultcvbEv
FNDA:0,_ZNK7testing15AssertionResult7messageEv
FNDA:0,_ZNK7testing15AssertionResult15failure_messageEv
FNDA:0,_ZN7testing4Test13SetUpTestCaseEv
FNDA:0,_ZN7testing4Test16TearDownTestCaseEv
FNDA:0,_ZN7testing4Test5SetupEv
FNDA:0,_ZN7testing8internal18CmpHelperEQFailureIiiEENS_15AssertionResultEPKcS4_RKT_RKT0_
FNDA:0,_ZN7testing8internal18CmpHelperEQFailureImmEENS_15AssertionResultEPKcS4_RKT_RKT0_
FNDA:0,_ZN7testing8internal11CmpHelperEQIiiEENS_15AssertionResultEPKcS4_RKT_RKT0_
FNDA:2,_ZN7testing8internal11CmpHelperEQImmEENS_15AssertionResultEPKcS4_RKT_RKT0_
FNF:11
FNH:1
DA:272,0
DA:277,0
DA:288,0
DA:297,0
DA:298,0
DA:302,0
DA:389,0
DA:397,0
DA:474,0
DA:1375,0
DA:1382,0
DA:1387,2
DA:1392,2
DA:1393,2
DA:1397,0
DA:1417,2
DA:1421,2
LF:17
LH:5
end_of_record
SF:/usr/include/c++/8/initializer_list
FN:71,_ZNKSt16initializer_listISt5tupleIJdS0_IJddEEEEE4sizeEv
FN:75,_ZNKSt16initializer_listISt5tupleIJdS0_IJddEEEEE5beginEv
FN:79,_ZNKSt16initializer_listISt5tupleIJdS0_IJddEEEEE3endEv
FNDA:0,_ZNKSt16initializer_listISt5tupleIJdS0_IJddEEEEE4sizeEv
FNDA:0,_ZNKSt16initializer_listISt5tupleIJdS0_IJddEEEEE5beginEv
FNDA:0,_ZNKSt16initializer_listISt5tupleIJdS0_IJddEEEEE3endEv
FNF:3
FNH:0
DA:71,0
DA:75,0
DA:79,0
LF:3
LH:0
end_of_record
SF:/usr/include/c++/8/bits/ios_base.h
FN:129,_ZStorSt13_Ios_OpenmodeS_
FNDA:0,_ZStorSt13_Ios_OpenmodeS_
FNF:1
FNH:0
DA:129,0
DA:130,0
LF:2
LH:0
end_of_record
SF:/usr/include/c++/8/bits/move.h
FN:47,_ZSt11__addressofISt5tupleIJdS0_IJddEEEEEPT_RS3_
FN:74,_ZSt7forwardIdEOT_RNSt16remove_referenceIS0_E4typeE
FN:74,_ZSt7forwardIRKSt5tupleIJdS0_IJddEEEEEOT_RNSt16remove_referenceIS5_E4typeE
FN:74,_ZSt7forwardIRKiEOT_RNSt16remove_referenceIS2_E4typeE
FN:99,_ZSt4moveIRSaIcEEONSt16remove_referenceIT_E4typeEOS3_
FN:99,_ZSt4moveIRSt11_Tuple_implILm1EJdEEEONSt16remove_referenceIT_E4typeEOS4_
FN:99,_ZSt4moveIRSt5tupleIJddEEEONSt16remove_referenceIT_E4typeEOS4_
FNDA:0,_ZSt11__addressofISt5tupleIJdS0_IJddEEEEEPT_RS3_
FNDA:0,_ZSt7forwardIRKSt5tupleIJdS0_IJddEEEEEOT_RNSt16remove_referenceIS5_E4typeE
FNDA:54,_ZSt7forwardIRKiEOT_RNSt16remove_referenceIS2_E4typeE
FNDA:0,_ZSt7forwardIdEOT_RNSt16remove_referenceIS0_E4typeE
FNDA:0,_ZSt4moveIRSaIcEEONSt16remove_referenceIT_E4typeEOS3_
FNDA:0,_ZSt4moveIRSt5tupleIJddEEEONSt16remove_referenceIT_E4typeEOS4_
FNDA:0,_ZSt4moveIRSt11_Tuple_implILm1EJdEEEONSt16remove_referenceIT_E4typeEOS4_
FNF:7
FNH:1
DA:47,0
DA:48,0
DA:74,54
DA:75,54
DA:99,0
DA:100,0
LF:6
LH:2
end_of_record
SF:/usr/include/c++/8/new
FN:168,_ZnwmPv
FNDA:0,_ZnwmPv
FNF:1
FNH:0
DA:168,0
DA:169,0
LF:2
LH:0
end_of_record
SF:/usr/include/c++/8/ext/new_allocator.h
FN:79,_ZN9__gnu_cxx13new_allocatorIcEC2Ev
FN:79,_ZN9__gnu_cxx13new_allocatorISt5tupleIJdS1_IJddEEEEEC2Ev
FN:79,_ZN9__gnu_cxx13new_allocatorIiEC2Ev
FN:81,_ZN9__gnu_cxx13new_allocatorIcEC2ERKS1_
FN:81,_ZN9__gnu_cxx13new_allocatorIiEC2ERKS1_
FN:81,_ZN9__gnu_cxx13new_allocatorISt5tupleIJdS1_IJddEEEEEC2ERKS4_
FN:86,_ZN9__gnu_cxx13new_allocatorISt5tupleIJdS1_IJddEEEEED2Ev
FN:86,_ZN9__gnu_cxx13new_allocatorIiED2Ev
FN:86,_ZN9__gnu_cxx13new_allocatorIcED2Ev
FN:99,_ZN9__gnu_cxx13new_allocatorIiE8allocateEmPKv
FN:99,_ZN9__gnu_cxx13new_allocatorISt5tupleIJdS1_IJddEEEEE8allocateEmPKv
FN:116,_ZN9__gnu_cxx13new_allocatorISt5tupleIJdS1_IJddEEEEE10deallocateEPS3_m
FN:116,_ZN9__gnu_cxx13new_allocatorIiE10deallocateEPim
FN:129,_ZNK9__gnu_cxx13new_allocatorIiE8max_sizeEv
FN:129,_ZNK9__gnu_cxx13new_allocatorISt5tupleIJdS1_IJddEEEEE8max_sizeEv
FN:135,_ZN9__gnu_cxx13new_allocatorIiE9constructIiJRKiEEEvPT_DpOT0_
FN:140,_ZN9__gnu_cxx13new_allocatorIiE7destroyIiEEvPT_
FNDA:0,_ZN9__gnu_cxx13new_allocatorIiEC2Ev
FNDA:0,_ZN9__gnu_cxx13new_allocatorISt5tupleIJdS1_IJddEEEEEC2Ev
FNDA:0,_ZN9__gnu_cxx13new_allocatorIcEC2Ev
FNDA:0,_ZN9__gnu_cxx13new_allocatorIiEC2ERKS1_
FNDA:0,_ZN9__gnu_cxx13new_allocatorISt5tupleIJdS1_IJddEEEEEC2ERKS4_
FNDA:0,_ZN9__gnu_cxx13new_allocatorIcEC2ERKS1_
FNDA:0,_ZN9__gnu_cxx13new_allocatorIiED2Ev
FNDA:0,_ZN9__gnu_cxx13new_allocatorISt5tupleIJdS1_IJddEEEEED2Ev
FNDA:0,_ZN9__gnu_cxx13new_allocatorIcED2Ev
FNDA:0,_ZN9__gnu_cxx13new_allocatorIiE8allocateEmPKv
FNDA:0,_ZN9__gnu_cxx13new_allocatorISt5tupleIJdS1_IJddEEEEE8allocateEmPKv
FNDA:0,_ZN9__gnu_cxx13new_allocatorIiE10deallocateEPim
FNDA:0,_ZN9__gnu_cxx13new_allocatorISt5tupleIJdS1_IJddEEEEE10deallocateEPS3_m
FNDA:0,_ZNK9__gnu_cxx13new_allocatorIiE8max_sizeEv
FNDA:0,_ZNK9__gnu_cxx13new_allocatorISt5tupleIJdS1_IJddEEEEE8max_sizeEv
FNDA:18,_ZN9__gnu_cxx13new_allocatorIiE9constructIiJRKiEEEvPT_DpOT0_
FNDA:0,_ZN9__gnu_cxx13new_allocatorIiE7destroyIiEEvPT_
FNF:17
FNH:1
DA:79,0
DA:81,0
DA:86,0
DA:99,0
DA:101,0
DA:102,0
DA:111,0
DA:116,0
DA:125,0
DA:126,0
DA:129,0
DA:130,0
DA:135,18
DA:136,18
DA:140,0
LF:15
LH:2
end_of_record
SF:/usr/include/c++/8/bits/stl_algobase.h
FN:219,_ZSt3maxImERKT_S2_S2_
FN:277,_ZSt12__niter_baseIPiET_S1_
FN:357,_ZNSt11__copy_moveILb0ELb1ESt26random_access_iterator_tagE8__copy_mIiEEPT_PKS3_S6_S4_
FN:357,_ZNSt11__copy_moveILb1ELb1ESt26random_access_iterator_tagE8__copy_mIiEEPT_PKS3_S6_S4_
FN:375,_ZSt13__copy_move_aILb0EPKiPiET1_T0_S4_S3_
FN:375,_ZSt13__copy_move_aILb1EPiS0_ET1_T0_S2_S1_
FN:420,_ZSt14__copy_move_a2ILb0EN9__gnu_cxx17__normal_iteratorIPKiSt6vectorIiSaIiEEEEPiET1_T0_SA_S9_
FN:420,_ZSt14__copy_move_a2ILb1EPiS0_ET1_T0_S2_S1_
FNDA:0,_ZSt3maxImERKT_S2_S2_
FNDA:0,_ZSt12__niter_baseIPiET_S1_
FNDA:188,_ZNSt11__copy_moveILb1ELb1ESt26random_access_iterator_tagE8__copy_mIiEEPT_PKS3_S6_S4_
FNDA:0,_ZNSt11__copy_moveILb0ELb1ESt26random_access_iterator_tagE8__copy_mIiEEPT_PKS3_S6_S4_
FNDA:188,_ZSt13__copy_move_aILb1EPiS0_ET1_T0_S2_S1_
FNDA:0,_ZSt13__copy_move_aILb0EPKiPiET1_T0_S4_S3_
FNDA:188,_ZSt14__copy_move_a2ILb1EPiS0_ET1_T0_S2_S1_
FNDA:14,_ZSt14__copy_move_a2ILb0EN9__gnu_cxx17__normal_iteratorIPKiSt6vectorIiSaIiEEEEPiET1_T0_SA_S9_
FNF:8
FNH:4
DA:219,0
DA:224,0
DA:225,0
DA:226,0
DA:277,0
DA:278,0
DA:357,188
DA:366,188
DA:367,188
DA:368,60
DA:369,188
DA:375,188
DA:380,188
DA:386,188
DA:420,202
DA:422,202
DA:424,202
DA:446,202
DA:455,202
DA:456,202
LF:20
LH:14
end_of_record
SF:/usr/include/c++/8/bits/stl_construct.h
FN:74,_ZSt10_ConstructISt5tupleIJdS0_IJddEEEEJRKS2_EEvPT_DpOT0_
FN:117,_ZNSt12_Destroy_auxILb1EE9__destroyIPSt5tupleIJdS2_IJddEEEEEEvT_S6_
FN:117,_ZNSt12_Destroy_auxILb1EE9__destroyIPiEEvT_S3_
FN:127,_ZSt8_DestroyIPSt5tupleIJdS0_IJddEEEEEvT_S4_
FN:127,_ZSt8_DestroyIPiEvT_S1_
FN:203,_ZSt8_DestroyIPiiEvT_S1_RSaIT0_E
FN:203,_ZSt8_DestroyIPSt5tupleIJdS0_IJddEEEES2_EvT_S4_RSaIT0_E
FNDA:0,_ZSt10_ConstructISt5tupleIJdS0_IJddEEEEJRKS2_EEvPT_DpOT0_
FNDA:0,_ZNSt12_Destroy_auxILb1EE9__destroyIPiEEvT_S3_
FNDA:0,_ZNSt12_Destroy_auxILb1EE9__destroyIPSt5tupleIJdS2_IJddEEEEEEvT_S6_
FNDA:0,_ZSt8_DestroyIPiEvT_S1_
FNDA:0,_ZSt8_DestroyIPSt5tupleIJdS0_IJddEEEEEvT_S4_
FNDA:0,_ZSt8_DestroyIPiiEvT_S1_RSaIT0_E
FNDA:0,_ZSt8_DestroyIPSt5tupleIJdS0_IJddEEEES2_EvT_S4_RSaIT0_E
FNF:7
FNH:0
DA:74,0
DA:75,0
DA:117,0
DA:127,0
DA:137,0
DA:138,0
DA:203,0
DA:206,0
DA:207,0
LF:9
LH:0
end_of_record
SF:/usr/include/c++/8/bits/stl_iterator.h
FN:783,_ZN9__gnu_cxx17__normal_iteratorIPKiSt6vectorIiSaIiEEEC2ERKS2_
FN:783,_ZN9__gnu_cxx17__normal_iteratorIPiSt6vectorIiSaIiEEEC2ERKS1_
FN:783,_ZN9__gnu_cxx17__normal_iteratorIPKSt5tupleIJdS1_IJddEEEESt6vectorIS3_SaIS3_EEEC2ERKS5_
FN:796,_ZNK9__gnu_cxx17__normal_iteratorIPKSt5tupleIJdS1_IJddEEEESt6vectorIS3_SaIS3_EEEdeEv
FN:804,_ZN9__gnu_cxx17__normal_iteratorIPKSt5tupleIJdS1_IJddEEEESt6vectorIS3_SaIS3_EEEppEv
FN:848,_ZNK9__gnu_cxx17__normal_iteratorIPKSt5tupleIJdS1_IJddEEEESt6vectorIS3_SaIS3_EEE4baseEv
FN:848,_ZNK9__gnu_cxx17__normal_iteratorIPiSt6vectorIiSaIiEEE4baseEv
FN:848,_ZNK9__gnu_cxx17__normal_iteratorIPKiSt6vectorIiSaIiEEE4baseEv
FN:884,_ZN9__gnu_cxxneIPKSt5tupleIJdS1_IJddEEEESt6vectorIS3_SaIS3_EEEEbRKNS_17__normal_iteratorIT_T0_EESE_
FN:966,_ZN9__gnu_cxxmiIPiSt6vectorIiSaIiEEEENS_17__normal_iteratorIT_T0_E15difference_typeERKS8_SB_
FN:987,_ZSt12__niter_baseIPKiSt6vectorIiSaIiEEET_N9__gnu_cxx17__normal_iteratorIS5_T0_EE
FN:1033,_ZNSt13move_iteratorIPiEC2ES0_
FN:1042,_ZNKSt13move_iteratorIPiE4baseEv
FN:1218,_ZSt32__make_move_if_noexcept_iteratorIiSt13move_iteratorIPiEET0_PT_
FN:1238,_ZSt12__miter_baseIPiEDTcl12__miter_basecldtfp_4baseEEESt13move_iteratorIT_E
FNDA:28,_ZN9__gnu_cxx17__normal_iteratorIPKiSt6vectorIiSaIiEEEC2ERKS2_
FNDA:188,_ZN9__gnu_cxx17__normal_iteratorIPiSt6vectorIiSaIiEEEC2ERKS1_
FNDA:0,_ZN9__gnu_cxx17__normal_iteratorIPKSt5tupleIJdS1_IJddEEEESt6vectorIS3_SaIS3_EEEC2ERKS5_
FNDA:0,_ZNK9__gnu_cxx17__normal_iteratorIPKSt5tupleIJdS1_IJddEEEESt6vectorIS3_SaIS3_EEEdeEv
FNDA:0,_ZN9__gnu_cxx17__normal_iteratorIPKSt5tupleIJdS1_IJddEEEESt6vectorIS3_SaIS3_EEEppEv
FNDA:28,_ZNK9__gnu_cxx17__normal_iteratorIPKiSt6vectorIiSaIiEEE4baseEv
FNDA:0,_ZNK9__gnu_cxx17__normal_iteratorIPKSt5tupleIJdS1_IJddEEEESt6vectorIS3_SaIS3_EEE4baseEv
FNDA:376,_ZNK9__gnu_cxx17__normal_iteratorIPiSt6vectorIiSaIiEEE4baseEv
FNDA:0,_ZN9__gnu_cxxneIPKSt5tupleIJdS1_IJddEEEESt6vectorIS3_SaIS3_EEEEbRKNS_17__normal_iteratorIT_T0_EESE_
FNDA:94,_ZN9__gnu_cxxmiIPiSt6vectorIiSaIiEEEENS_17__normal_iteratorIT_T0_E15difference_typeERKS8_SB_
FNDA:28,_ZSt12__niter_baseIPKiSt6vectorIiSaIiEEET_N9__gnu_cxx17__normal_iteratorIS5_T0_EE
FNDA:376,_ZNSt13move_iteratorIPiEC2ES0_
FNDA:376,_ZNKSt13move_iteratorIPiE4baseEv
FNDA:376,_ZSt32__make_move_if_noexcept_iteratorIiSt13move_iteratorIPiEET0_PT_
FNDA:376,_ZSt12__miter_baseIPiEDTcl12__miter_basecldtfp_4baseEEESt13move_iteratorIT_E
FNF:15
FNH:10
DA:783,216
DA:784,216
DA:796,0
DA:797,0
DA:804,0
DA:806,0
DA:807,0
DA:848,404
DA:849,404
DA:884,0
DA:887,0
DA:966,94
DA:969,94
DA:987,28
DA:988,28
DA:1033,376
DA:1034,376
DA:1042,376
DA:1043,376
DA:1218,376
DA:1219,376
DA:1238,376
DA:1240,376
LF:23
LH:16
end_of_record
SF:/usr/include/c++/8/bits/stl_iterator_base_funcs.h
FN:98,_ZSt10__distanceIPKcENSt15iterator_traitsIT_E15difference_typeES3_S3_St26random_access_iterator_tag
FN:98,_ZSt10__distanceIPcENSt15iterator_traitsIT_E15difference_typeES2_S2_St26random_access_iterator_tag
FN:98,_ZSt10__distanceIPKSt5tupleIJdS0_IJddEEEEENSt15iterator_traitsIT_E15difference_typeES6_S6_St26random_access_iterator_tag
FNDA:0,_ZSt10__distanceIPcENSt15iterator_traitsIT_E15difference_typeES2_S2_St26random_access_iterator_tag
FNDA:0,_ZSt10__distanceIPKcENSt15iterator_traitsIT_E15difference_typeES3_S3_St26random_access_iterator_tag
FNDA:0,_ZSt10__distanceIPKSt5tupleIJdS0_IJddEEEEENSt15iterator_traitsIT_E15difference_typeES6_S6_St26random_access_iterator_tag
FNF:3
FNH:0
DA:98,0
DA:104,0
DA:138,0
DA:141,0
DA:142,0
LF:5
LH:0
end_of_record
SF:/usr/include/c++/8/bits/stl_iterator_base_types.h
FN:205,_ZSt19__iterator_categoryIPKSt5tupleIJdS0_IJddEEEEENSt15iterator_traitsIT_E17iterator_categoryERKS6_
FN:205,_ZSt19__iterator_categoryIPcENSt15iterator_traitsIT_E17iterator_categoryERKS2_
FN:205,_ZSt19__iterator_categoryIPKcENSt15iterator_traitsIT_E17iterator_categoryERKS3_
FNDA:0,_ZSt19__iterator_categoryIPcENSt15iterator_traitsIT_E17iterator_categoryERKS2_
FNDA:0,_ZSt19__iterator_categoryIPKcENSt15iterator_traitsIT_E17iterator_categoryERKS3_
FNDA:0,_ZSt19__iterator_categoryIPKSt5tupleIJdS0_IJddEEEEENSt15iterator_traitsIT_E17iterator_categoryERKS6_
FNF:3
FNH:0
DA:205,0
DA:206,0
LF:2
LH:0
end_of_record
SF:/usr/include/c++/8/bits/stl_uninitialized.h
FN:76,_ZNSt20__uninitialized_copyILb0EE13__uninit_copyIN9__gnu_cxx17__normal_iteratorIPKSt5tupleIJdS4_IJddEEEESt6vectorIS6_SaIS6_EEEEPS6_EET0_T_SF_SE_
FN:76,_ZNSt20__uninitialized_copyILb0EE13__uninit_copyIPKSt5tupleIJdS2_IJddEEEEPS4_EET0_T_S9_S8_
FN:99,_ZNSt20__uninitialized_copyILb1EE13__uninit_copyIN9__gnu_cxx17__normal_iteratorIPKiSt6vectorIiSaIiEEEEPiEET0_T_SC_SB_
FN:99,_ZNSt20__uninitialized_copyILb1EE13__uninit_copyISt13move_iteratorIPiES3_EET0_T_S6_S5_
FN:115,_ZSt18uninitialized_copyIN9__gnu_cxx17__normal_iteratorIPKiSt6vectorIiSaIiEEEEPiET0_T_SA_S9_
FN:115,_ZSt18uninitialized_copyIPKSt5tupleIJdS0_IJddEEEEPS2_ET0_T_S7_S6_
FN:115,_ZSt18uninitialized_copyISt13move_iteratorIPiES1_ET0_T_S4_S3_
FN:115,_ZSt18uninitialized_copyIN9__gnu_cxx17__normal_iteratorIPKSt5tupleIJdS2_IJddEEEESt6vectorIS4_SaIS4_EEEEPS4_ET0_T_SD_SC_
FN:287,_ZSt22__uninitialized_copy_aIN9__gnu_cxx17__normal_iteratorIPKiSt6vectorIiSaIiEEEEPiiET0_T_SA_S9_RSaIT1_E
FN:287,_ZSt22__uninitialized_copy_aISt13move_iteratorIPiES1_iET0_T_S4_S3_RSaIT1_E
FN:287,_ZSt22__uninitialized_copy_aIPKSt5tupleIJdS0_IJddEEEEPS2_S2_ET0_T_S7_S6_RSaIT1_E
FN:287,_ZSt22__uninitialized_copy_aIN9__gnu_cxx17__normal_iteratorIPKSt5tupleIJdS2_IJddEEEESt6vectorIS4_SaIS4_EEEEPS4_S4_ET0_T_SD_SC_RSaIT1_E
FN:305,_ZSt34__uninitialized_move_if_noexcept_aIPiS0_SaIiEET0_T_S3_S2_RT1_
FNDA:0,_ZNSt20__uninitialized_copyILb0EE13__uninit_copyIPKSt5tupleIJdS2_IJddEEEEPS4_EET0_T_S9_S8_
FNDA:0,_ZNSt20__uninitialized_copyILb0EE13__uninit_copyIN9__gnu_cxx17__normal_iteratorIPKSt5tupleIJdS4_IJddEEEESt6vectorIS6_SaIS6_EEEEPS6_EET0_T_SF_SE_
FNDA:188,_ZNSt20__uninitialized_copyILb1EE13__uninit_copyISt13move_iteratorIPiES3_EET0_T_S6_S5_
FNDA:14,_ZNSt20__uninitialized_copyILb1EE13__uninit_copyIN9__gnu_cxx17__normal_iteratorIPKiSt6vectorIiSaIiEEEEPiEET0_T_SC_SB_
FNDA:188,_ZSt18uninitialized_copyISt13move_iteratorIPiES1_ET0_T_S4_S3_
FNDA:0,_ZSt18uninitialized_copyIPKSt5tupleIJdS0_IJddEEEEPS2_ET0_T_S7_S6_
FNDA:14,_ZSt18uninitialized_copyIN9__gnu_cxx17__normal_iteratorIPKiSt6vectorIiSaIiEEEEPiET0_T_SA_S9_
FNDA:0,_ZSt18uninitialized_copyIN9__gnu_cxx17__normal_iteratorIPKSt5tupleIJdS2_IJddEEEESt6vectorIS4_SaIS4_EEEEPS4_ET0_T_SD_SC_
FNDA:188,_ZSt22__uninitialized_copy_aISt13move_iteratorIPiES1_iET0_T_S4_S3_RSaIT1_E
FNDA:0,_ZSt22__uninitialized_copy_aIPKSt5tupleIJdS0_IJddEEEEPS2_S2_ET0_T_S7_S6_RSaIT1_E
FNDA:14,_ZSt22__uninitialized_copy_aIN9__gnu_cxx17__normal_iteratorIPKiSt6vectorIiSaIiEEEEPiiET0_T_SA_S9_RSaIT1_E
FNDA:0,_ZSt22__uninitialized_copy_aIN9__gnu_cxx17__normal_iteratorIPKSt5tupleIJdS2_IJddEEEESt6vectorIS4_SaIS4_EEEEPS4_S4_ET0_T_SD_SC_RSaIT1_E
FNDA:188,_ZSt34__uninitialized_move_if_noexcept_aIPiS0_SaIiEET0_T_S3_S2_RT1_
FNF:13
FNH:7
DA:76,0
DA:79,0
DA:82,0
DA:83,0
DA:84,0
DA:99,202
DA:101,202
DA:115,202
DA:128,202
DA:134,202
DA:287,202
DA:289,202
DA:305,188
DA:311,188
DA:312,188
LF:15
LH:10
end_of_record
SF:/usr/include/c++/8/bits/stl_vector.h
FN:95,_ZNSt12_Vector_baseIiSaIiEE12_Vector_implC2Ev
FN:99,_ZNSt12_Vector_baseISt5tupleIJdS0_IJddEEEESaIS2_EE12_Vector_implC2ERKS3_
FN:99,_ZNSt12_Vector_baseIiSaIiEE12_Vector_implC2ERKS0_
FN:237,_ZNSt12_Vector_baseIiSaIiEE19_M_get_Tp_allocatorEv
FN:237,_ZNSt12_Vector_baseISt5tupleIJdS0_IJddEEEESaIS2_EE19_M_get_Tp_allocatorEv
FN:241,_ZNKSt12_Vector_baseISt5tupleIJdS0_IJddEEEESaIS2_EE19_M_get_Tp_allocatorEv
FN:241,_ZNKSt12_Vector_baseIiSaIiEE19_M_get_Tp_allocatorEv
FN:248,_ZNSt12_Vector_baseIiSaIiEEC2Ev
FN:251,_ZNSt12_Vector_baseISt5tupleIJdS0_IJddEEEESaIS2_EEC2ERKS3_
FN:258,_ZNSt12_Vector_baseISt5tupleIJdS0_IJddEEEESaIS2_EEC2EmRKS3_
FN:258,_ZNSt12_Vector_baseIiSaIiEEC2EmRKS0_
FN:283,_ZNSt12_Vector_baseIiSaIiEED2Ev
FN:283,_ZNSt12_Vector_baseISt5tupleIJdS0_IJddEEEESaIS2_EED2Ev
FN:293,_ZNSt12_Vector_baseIiSaIiEE11_M_allocateEm
FN:293,_ZNSt12_Vector_baseISt5tupleIJdS0_IJddEEEESaIS2_EE11_M_allocateEm
FN:300,_ZNSt12_Vector_baseIiSaIiEE13_M_deallocateEPim
FN:300,_ZNSt12_Vector_baseISt5tupleIJdS0_IJddEEEESaIS2_EE13_M_deallocateEPS2_m
FN:309,_ZNSt12_Vector_baseISt5tupleIJdS0_IJddEEEESaIS2_EE17_M_create_storageEm
FN:309,_ZNSt12_Vector_baseIiSaIiEE17_M_create_storageEm
FN:391,_ZNSt6vectorIiSaIiEEC2Ev
FN:458,_ZNSt6vectorIiSaIiEEC2ERKS1_
FN:458,_ZNSt6vectorISt5tupleIJdS0_IJddEEEESaIS2_EEC2ERKS4_
FN:515,_ZNSt6vectorISt5tupleIJdS0_IJddEEEESaIS2_EEC2ESt16initializer_listIS2_ERKS3_
FN:565,_ZNSt6vectorIiSaIiEED2Ev
FN:565,_ZNSt6vectorISt5tupleIJdS0_IJddEEEESaIS2_EED2Ev
FN:698,_ZNSt6vectorIiSaIiEE5beginEv
FN:707,_ZNKSt6vectorIiSaIiEE5beginEv
FN:707,_ZNKSt6vectorISt5tupleIJdS0_IJddEEEESaIS2_EE5beginEv
FN:716,_ZNSt6vectorIiSaIiEE3endEv
FN:725,_ZNKSt6vectorISt5tupleIJdS0_IJddEEEESaIS2_EE3endEv
FN:725,_ZNKSt6vectorIiSaIiEE3endEv
FN:805,_ZNKSt6vectorISt5tupleIJdS0_IJddEEEESaIS2_EE4sizeEv
FN:805,_ZNKSt6vectorIiSaIiEE4sizeEv
FN:810,_ZNKSt6vectorIiSaIiEE8max_sizeEv
FN:930,_ZNSt6vectorIiSaIiEEixEm
FN:930,_ZNSt6vectorISt5tupleIJdS0_IJddEEEESaIS2_EEixEm
FN:1074,_ZNSt6vectorIiSaIiEE9push_backERKi
FN:1462,_ZNSt6vectorISt5tupleIJdS0_IJddEEEESaIS2_EE19_M_range_initializeIPKS2_EEvT_S8_St20forward_iterator_tag
FN:1640,_ZNKSt6vectorIiSaIiEE12_M_check_lenEmPKc
FNDA:34,_ZNSt12_Vector_baseIiSaIiEE12_Vector_implC2Ev
FNDA:0,_ZNSt12_Vector_baseIiSaIiEE12_Vector_implC2ERKS0_
FNDA:0,_ZNSt12_Vector_baseISt5tupleIJdS0_IJddEEEESaIS2_EE12_Vector_implC2ERKS3_
FNDA:0,_ZNSt12_Vector_baseIiSaIiEE19_M_get_Tp_allocatorEv
FNDA:0,_ZNSt12_Vector_baseISt5tupleIJdS0_IJddEEEESaIS2_EE19_M_get_Tp_allocatorEv
FNDA:202,_ZNKSt12_Vector_baseIiSaIiEE19_M_get_Tp_allocatorEv
FNDA:0,_ZNKSt12_Vector_baseISt5tupleIJdS0_IJddEEEESaIS2_EE19_M_get_Tp_allocatorEv
FNDA:34,_ZNSt12_Vector_baseIiSaIiEEC2Ev
FNDA:0,_ZNSt12_Vector_baseISt5tupleIJdS0_IJddEEEESaIS2_EEC2ERKS3_
FNDA:0,_ZNSt12_Vector_baseIiSaIiEEC2EmRKS0_
FNDA:0,_ZNSt12_Vector_baseISt5tupleIJdS0_IJddEEEESaIS2_EEC2EmRKS3_
FNDA:0,_ZNSt12_Vector_baseIiSaIiEED2Ev
FNDA:0,_ZNSt12_Vector_baseISt5tupleIJdS0_IJddEEEESaIS2_EED2Ev
FNDA:0,_ZNSt12_Vector_baseIiSaIiEE11_M_allocateEm
FNDA:0,_ZNSt12_Vector_baseISt5tupleIJdS0_IJddEEEESaIS2_EE11_M_allocateEm
FNDA:0,_ZNSt12_Vector_baseIiSaIiEE13_M_deallocateEPim
FNDA:0,_ZNSt12_Vector_baseISt5tupleIJdS0_IJddEEEESaIS2_EE13_M_deallocateEPS2_m
FNDA:0,_ZNSt12_Vector_baseIiSaIiEE17_M_create_storageEm
FNDA:0,_ZNSt12_Vector_baseISt5tupleIJdS0_IJddEEEESaIS2_EE17_M_create_storageEm
FNDA:34,_ZNSt6vectorIiSaIiEEC2Ev
FNDA:14,_ZNSt6vectorIiSaIiEEC2ERKS1_
FNDA:0,_ZNSt6vectorISt5tupleIJdS0_IJddEEEESaIS2_EEC2ERKS4_
FNDA:0,_ZNSt6vectorISt5tupleIJdS0_IJddEEEESaIS2_EEC2ESt16initializer_listIS2_ERKS3_
FNDA:0,_ZNSt6vectorIiSaIiEED2Ev
FNDA:0,_ZNSt6vectorISt5tupleIJdS0_IJddEEEESaIS2_EED2Ev
FNDA:94,_ZNSt6vectorIiSaIiEE5beginEv
FNDA:14,_ZNKSt6vectorIiSaIiEE5beginEv
FNDA:0,_ZNKSt6vectorISt5tupleIJdS0_IJddEEEESaIS2_EE5beginEv
FNDA:94,_ZNSt6vectorIiSaIiEE3endEv
FNDA:14,_ZNKSt6vectorIiSaIiEE3endEv
FNDA:0,_ZNKSt6vectorISt5tupleIJdS0_IJddEEEESaIS2_EE3endEv
FNDA:0,_ZNKSt6vectorISt5tupleIJdS0_IJddEEEESaIS2_EE4sizeEv
FNDA:756,_ZNKSt6vectorIiSaIiEE4sizeEv
FNDA:188,_ZNKSt6vectorIiSaIiEE8max_sizeEv
FNDA:0,_ZNSt6vectorISt5tupleIJdS0_IJddEEEESaIS2_EEixEm
FNDA:0,_ZNSt6vectorIiSaIiEEixEm
FNDA:18,_ZNSt6vectorIiSaIiEE9push_backERKi
FNDA:0,_ZNSt6vectorISt5tupleIJdS0_IJddEEEESaIS2_EE19_M_range_initializeIPKS2_EEvT_S8_St20forward_iterator_tag
FNDA:94,_ZNKSt6vectorIiSaIiEE12_M_check_lenEmPKc
FNF:39
FNH:13
DA:95,34
DA:96,34
DA:97,34
DA:99,0
DA:100,0
DA:101,0
DA:237,0
DA:238,0
DA:241,202
DA:242,202
DA:248,34
DA:249,34
DA:251,0
DA:252,0
DA:258,0
DA:259,0
DA:260,0
DA:283,0
DA:285,0
DA:286,0
DA:287,0
DA:293,0
DA:296,0
DA:300,0
DA:303,0
DA:304,0
DA:305,0
DA:309,0
DA:311,0
DA:312,0
DA:313,0
DA:314,0
DA:391,34
DA:395,34
DA:458,14
DA:460,14
DA:462,14
DA:463,14
DA:465,14
DA:466,14
DA:515,0
DA:517,0
DA:519,0
DA:521,0
DA:565,0
DA:567,0
DA:568,0
DA:570,0
DA:698,94
DA:699,94
DA:707,14
DA:708,14
DA:716,94
DA:717,94
DA:725,14
DA:726,14
DA:805,756
DA:806,756
DA:810,188
DA:811,188
DA:930,0
DA:933,0
DA:1074,18
DA:1076,18
DA:1079,0
DA:1081,0
DA:1085,18
DA:1086,18
DA:1462,0
DA:1465,0
DA:1466,0
DA:1467,0
DA:1468,0
DA:1469,0
DA:1471,0
DA:1472,0
DA:1640,94
DA:1642,94
DA:1643,0
DA:1645,94
DA:1646,94
LF:81
LH:35
end_of_record
SF:/usr/include/c++/8/tuple
FN:160,_ZNSt10_Head_baseILm0EdLb0EE7_M_headERS0_
FN:160,_ZNSt10_Head_baseILm1EdLb0EE7_M_headERS0_
FN:163,_ZNSt10_Head_baseILm1EdLb0EE7_M_headERKS0_
FN:163,_ZNSt10_Head_baseILm0EdLb0EE7_M_headERKS0_
FN:163,_ZNSt10_Head_baseILm1ESt5tupleIJddEELb0EE7_M_headERKS2_
FN:195,_ZNSt11_Tuple_implILm0EJddEE7_M_headERS0_
FN:198,_ZNSt11_Tuple_implILm0EJdSt5tupleIJddEEEE7_M_headERKS2_
FN:198,_ZNSt11_Tuple_implILm0EJddEE7_M_headERKS0_
FN:201,_ZNSt11_Tuple_implILm0EJddEE7_M_tailERS0_
FN:300,_ZNSt11_Tuple_implILm0EJddEEaSEOS0_
FN:351,_ZNSt11_Tuple_implILm1EJdEE7_M_headERS0_
FN:354,_ZNSt11_Tuple_implILm1EJdEE7_M_headERKS0_
FN:354,_ZNSt11_Tuple_implILm1EJSt5tupleIJddEEEE7_M_headERKS2_
FN:431,_ZNSt11_Tuple_implILm1EJdEEaSEOS0_
FN:1216,_ZNSt5tupleIJddEEaSEOS0_
FN:1308,_ZSt12__get_helperILm1ESt5tupleIJddEEJEERKT0_RKSt11_Tuple_implIXT_EJS2_DpT1_EE
FN:1308,_ZSt12__get_helperILm0EdJSt5tupleIJddEEEERKT0_RKSt11_Tuple_implIXT_EJS2_DpT1_EE
FN:1308,_ZSt12__get_helperILm0EdJdEERKT0_RKSt11_Tuple_implIXT_EJS0_DpT1_EE
FN:1308,_ZSt12__get_helperILm1EdJEERKT0_RKSt11_Tuple_implIXT_EJS0_DpT1_EE
FN:1320,_ZSt3getILm0EJddEERKNSt13tuple_elementIXT_ESt5tupleIJDpT0_EEE4typeERKS4_
FN:1320,_ZSt3getILm1EJdSt5tupleIJddEEEERKNSt13tuple_elementIXT_ES0_IJDpT0_EEE4typeERKS5_
FN:1320,_ZSt3getILm1EJddEERKNSt13tuple_elementIXT_ESt5tupleIJDpT0_EEE4typeERKS4_
FN:1320,_ZSt3getILm0EJdSt5tupleIJddEEEERKNSt13tuple_elementIXT_ES0_IJDpT0_EEE4typeERKS5_
FN:1386,_ZNSt15__tuple_compareISt5tupleIJdS0_IJddEEEES2_Lm0ELm2EE4__eqERKS2_S5_
FN:1386,_ZNSt15__tuple_compareISt5tupleIJdS0_IJddEEEES2_Lm1ELm2EE4__eqERKS2_S5_
FN:1386,_ZNSt15__tuple_compareISt5tupleIJddEES1_Lm0ELm2EE4__eqERKS1_S4_
FN:1386,_ZNSt15__tuple_compareISt5tupleIJddEES1_Lm1ELm2EE4__eqERKS1_S4_
FN:1405,_ZNSt15__tuple_compareISt5tupleIJddEES1_Lm2ELm2EE4__eqERKS1_S4_
FN:1405,_ZNSt15__tuple_compareISt5tupleIJdS0_IJddEEEES2_Lm2ELm2EE4__eqERKS2_S5_
FN:1413,_ZSteqIJddEJddEEbRKSt5tupleIJDpT_EERKS0_IJDpT0_EE
FN:1413,_ZSteqIJdSt5tupleIJddEEEJdS1_EEbRKS0_IJDpT_EERKS0_IJDpT0_EE
FN:1439,_ZStneIJddEJddEEbRKSt5tupleIJDpT_EERKS0_IJDpT0_EE
FNDA:0,_ZNSt10_Head_baseILm0EdLb0EE7_M_headERS0_
FNDA:0,_ZNSt10_Head_baseILm1EdLb0EE7_M_headERS0_
FNDA:0,_ZNSt10_Head_baseILm1ESt5tupleIJddEELb0EE7_M_headERKS2_
FNDA:0,_ZNSt10_Head_baseILm1EdLb0EE7_M_headERKS0_
FNDA:0,_ZNSt10_Head_baseILm0EdLb0EE7_M_headERKS0_
FNDA:0,_ZNSt11_Tuple_implILm0EJddEE7_M_headERS0_
FNDA:0,_ZNSt11_Tuple_implILm0EJdSt5tupleIJddEEEE7_M_headERKS2_
FNDA:0,_ZNSt11_Tuple_implILm0EJddEE7_M_headERKS0_
FNDA:0,_ZNSt11_Tuple_implILm0EJddEE7_M_tailERS0_
FNDA:0,_ZNSt11_Tuple_implILm0EJddEEaSEOS0_
FNDA:0,_ZNSt11_Tuple_implILm1EJdEE7_M_headERS0_
FNDA:0,_ZNSt11_Tuple_implILm1EJSt5tupleIJddEEEE7_M_headERKS2_
FNDA:0,_ZNSt11_Tuple_implILm1EJdEE7_M_headERKS0_
FNDA:0,_ZNSt11_Tuple_implILm1EJdEEaSEOS0_
FNDA:0,_ZNSt5tupleIJddEEaSEOS0_
FNDA:24,_ZSt12__get_helperILm1ESt5tupleIJddEEJEERKT0_RKSt11_Tuple_implIXT_EJS2_DpT1_EE
FNDA:0,_ZSt12__get_helperILm1EdJEERKT0_RKSt11_Tuple_implIXT_EJS0_DpT1_EE
FNDA:56,_ZSt12__get_helperILm0EdJSt5tupleIJddEEEERKT0_RKSt11_Tuple_implIXT_EJS2_DpT1_EE
FNDA:0,_ZSt12__get_helperILm0EdJdEERKT0_RKSt11_Tuple_implIXT_EJS0_DpT1_EE
FNDA:24,_ZSt3getILm1EJdSt5tupleIJddEEEERKNSt13tuple_elementIXT_ES0_IJDpT0_EEE4typeERKS5_
FNDA:0,_ZSt3getILm1EJddEERKNSt13tuple_elementIXT_ESt5tupleIJDpT0_EEE4typeERKS4_
FNDA:56,_ZSt3getILm0EJdSt5tupleIJddEEEERKNSt13tuple_elementIXT_ES0_IJDpT0_EEE4typeERKS5_
FNDA:0,_ZSt3getILm0EJddEERKNSt13tuple_elementIXT_ESt5tupleIJDpT0_EEE4typeERKS4_
FNDA:12,_ZNSt15__tuple_compareISt5tupleIJdS0_IJddEEEES2_Lm1ELm2EE4__eqERKS2_S5_
FNDA:0,_ZNSt15__tuple_compareISt5tupleIJddEES1_Lm1ELm2EE4__eqERKS1_S4_
FNDA:28,_ZNSt15__tuple_compareISt5tupleIJdS0_IJddEEEES2_Lm0ELm2EE4__eqERKS2_S5_
FNDA:0,_ZNSt15__tuple_compareISt5tupleIJddEES1_Lm0ELm2EE4__eqERKS1_S4_
FNDA:12,_ZNSt15__tuple_compareISt5tupleIJdS0_IJddEEEES2_Lm2ELm2EE4__eqERKS2_S5_
FNDA:0,_ZNSt15__tuple_compareISt5tupleIJddEES1_Lm2ELm2EE4__eqERKS1_S4_
FNDA:28,_ZSteqIJdSt5tupleIJddEEEJdS1_EEbRKS0_IJDpT_EERKS0_IJDpT0_EE
FNDA:0,_ZSteqIJddEJddEEbRKSt5tupleIJDpT_EERKS0_IJDpT0_EE
FNDA:12,_ZStneIJddEJddEEbRKSt5tupleIJDpT_EERKS0_IJDpT0_EE
FNF:32
FNH:9
DA:160,0
DA:163,0
DA:195,0
DA:198,0
DA:201,0
DA:300,0
DA:304,0
DA:305,0
DA:306,0
DA:351,0
DA:354,0
DA:431,0
DA:434,0
DA:435,0
DA:1216,0
DA:1219,0
DA:1220,0
DA:1308,80
DA:1309,80
DA:1320,80
DA:1321,80
DA:1386,40
DA:1388,40
DA:1389,40
DA:1405,12
DA:1413,28
DA:1421,28
DA:1439,12
DA:1441,12
LF:29
LH:12
end_of_record
SF:/usr/include/c++/8/ext/type_traits.h
FN:152,_ZN9__gnu_cxx17__is_null_pointerIKcEEbPT_
FN:152,_ZN9__gnu_cxx17__is_null_pointerIcEEbPT_
FNDA:0,_ZN9__gnu_cxx17__is_null_pointerIcEEbPT_
FNDA:0,_ZN9__gnu_cxx17__is_null_pointerIKcEEbPT_
FNF:2
FNH:0
DA:152,0
DA:153,0
LF:2
LH:0
end_of_record
SF:/usr/include/c++/8/bits/vector.tcc
FN:413,_ZNSt6vectorIiSaIiEE17_M_realloc_insertIJRKiEEEvN9__gnu_cxx17__normal_iteratorIPiS1_EEDpOT_
FNDA:18,_ZNSt6vectorIiSaIiEE17_M_realloc_insertIJRKiEEEvN9__gnu_cxx17__normal_iteratorIPiS1_EEDpOT_
FNF:1
FNH:1
DA:413,18
DA:422,18
DA:424,18
DA:425,18
DA:426,18
DA:427,18
DA:428,18
DA:436,18
DA:437,18
DA:443,18
DA:447,18
DA:448,18
DA:450,18
DA:454,18
DA:455,18
DA:457,0
DA:459,0
DA:460,0
DA:461,0
DA:463,0
DA:464,0
DA:465,0
DA:468,18
DA:469,36
DA:470,18
DA:471,18
DA:472,18
DA:473,18
DA:474,18
LF:29
LH:22
end_of_record
TN:
SF:/usr/include/c++/8/bits/alloc_traits.h
FN:435,_ZNSt16allocator_traitsISaISt5tupleIJddEEEE8allocateERS2_m
FN:435,_ZNSt16allocator_traitsISaISt6vectorISt5tupleIJddEESaIS2_EEEE8allocateERS5_m
FN:461,_ZNSt16allocator_traitsISaISt5tupleIJddEEEE10deallocateERS2_PS1_m
FN:461,_ZNSt16allocator_traitsISaISt6vectorISt5tupleIJddEESaIS2_EEEE10deallocateERS5_PS4_m
FN:504,_ZNSt16allocator_traitsISaISt5tupleIJddEEEE37select_on_container_copy_constructionERKS2_
FNDA:2,_ZNSt16allocator_traitsISaISt6vectorISt5tupleIJddEESaIS2_EEEE8allocateERS5_m
FNDA:100,_ZNSt16allocator_traitsISaISt5tupleIJddEEEE8allocateERS2_m
FNDA:2,_ZNSt16allocator_traitsISaISt6vectorISt5tupleIJddEESaIS2_EEEE10deallocateERS5_PS4_m
FNDA:100,_ZNSt16allocator_traitsISaISt5tupleIJddEEEE10deallocateERS2_PS1_m
FNDA:58,_ZNSt16allocator_traitsISaISt5tupleIJddEEEE37select_on_container_copy_constructionERKS2_
FNF:5
FNH:5
DA:435,102
DA:436,102
DA:461,102
DA:462,102
DA:504,58
DA:505,58
LF:6
LH:6
end_of_record
SF:/usr/include/c++/8/ext/alloc_traits.h
FN:94,_ZN9__gnu_cxx14__alloc_traitsISaISt5tupleIJddEEES2_E17_S_select_on_copyERKS3_
FNDA:58,_ZN9__gnu_cxx14__alloc_traitsISaISt5tupleIJddEEES2_E17_S_select_on_copyERKS3_
FNF:1
FNH:1
DA:94,58
DA:95,58
LF:2
LH:2
end_of_record
SF:/usr/include/c++/8/bits/allocator.h
FN:131,_ZNSaISt5tupleIJddEEEC2Ev
FN:131,_ZNSaISt6vectorISt5tupleIJddEESaIS1_EEEC2Ev
FN:133,_ZNSaISt6vectorISt5tupleIJddEESaIS1_EEEC2ERKS4_
FN:133,_ZNSaISt5tupleIJddEEEC2ERKS1_
FN:139,_ZNSaISt5tupleIJddEEED2Ev
FN:139,_ZNSaISt6vectorISt5tupleIJddEESaIS1_EEED2Ev
FNDA:2,_ZNSaISt6vectorISt5tupleIJddEESaIS1_EEEC2Ev
FNDA:46,_ZNSaISt5tupleIJddEEEC2Ev
FNDA:2,_ZNSaISt6vectorISt5tupleIJddEESaIS1_EEEC2ERKS4_
FNDA:142,_ZNSaISt5tupleIJddEEEC2ERKS1_
FNDA:4,_ZNSaISt6vectorISt5tupleIJddEESaIS1_EEED2Ev
FNDA:188,_ZNSaISt5tupleIJddEEED2Ev
FNF:6
FNH:6
DA:131,48
DA:133,144
DA:134,144
DA:139,192
LF:4
LH:4
end_of_record
SF:/usr/include/c++/8/bits/basic_string.h
FN:232,_ZNSt7__cxx1112basic_stringIcSt11char_traitsIcESaIcEE16_M_construct_auxIPKcEEvT_S8_St12__false_type
FN:252,_ZNSt7__cxx1112basic_stringIcSt11char_traitsIcESaIcEE12_M_constructIPKcEEvT_S8_
FNDA:0,_ZNSt7__cxx1112basic_stringIcSt11char_traitsIcESaIcEE16_M_construct_auxIPKcEEvT_S8_St12__false_type
FNDA:0,_ZNSt7__cxx1112basic_stringIcSt11char_traitsIcESaIcEE12_M_constructIPKcEEvT_S8_
FNF:2
FNH:0
DA:232,0
DA:236,0
DA:237,0
DA:252,0
DA:255,0
DA:256,0
LF:6
LH:0
end_of_record
SF:/usr/include/c++/8/bits/basic_string.tcc
FN:206,_ZNSt7__cxx1112basic_stringIcSt11char_traitsIcESaIcEE12_M_constructIPKcEEvT_S8_St20forward_iterator_tag
FNDA:0,_ZNSt7__cxx1112basic_stringIcSt11char_traitsIcESaIcEE12_M_constructIPKcEEvT_S8_St20forward_iterator_tag
FNF:1
FNH:0
DA:206,0
DA:211,0
DA:212,0
DA:215,0
DA:217,0
DA:219,0
DA:220,0
DA:225,0
DA:226,0
DA:228,0
DA:229,0
DA:232,0
DA:233,0
LF:13
LH:0
end_of_record
SF:/usr/include/c++/8/bits/char_traits.h
FN:316,_ZNSt11char_traitsIcE6lengthEPKc
FNDA:0,_ZNSt11char_traitsIcE6lengthEPKc
FNF:1
FNH:0
DA:316,0
DA:322,0
LF:2
LH:0
end_of_record
SF:/home/leito-chan/Downloads/TPI/transporteUrbano/lib/googletest-master/googletest/include/gtest/gtest.h
FN:2236,_Z13RUN_ALL_TESTSv
FNDA:2,_Z13RUN_ALL_TESTSv
FNF:1
FNH:1
DA:2236,2
DA:2237,2
LF:2
LH:2
end_of_record
SF:/usr/include/c++/8/initializer_list
FN:71,_ZNKSt16initializer_listISt6vectorISt5tupleIJddEESaIS2_EEE4sizeEv
FN:71,_ZNKSt16initializer_listISt5tupleIJddEEE4sizeEv
FN:75,_ZNKSt16initializer_listISt6vectorISt5tupleIJddEESaIS2_EEE5beginEv
FN:75,_ZNKSt16initializer_listISt5tupleIJddEEE5beginEv
FN:79,_ZNKSt16initializer_listISt6vectorISt5tupleIJddEESaIS2_EEE3endEv
FN:79,_ZNKSt16initializer_listISt5tupleIJddEEE3endEv
FNDA:2,_ZNKSt16initializer_listISt6vectorISt5tupleIJddEESaIS2_EEE4sizeEv
FNDA:26,_ZNKSt16initializer_listISt5tupleIJddEEE4sizeEv
FNDA:4,_ZNKSt16initializer_listISt6vectorISt5tupleIJddEESaIS2_EEE5beginEv
FNDA:52,_ZNKSt16initializer_listISt5tupleIJddEEE5beginEv
FNDA:2,_ZNKSt16initializer_listISt6vectorISt5tupleIJddEESaIS2_EEE3endEv
FNDA:26,_ZNKSt16initializer_listISt5tupleIJddEEE3endEv
FNF:6
FNH:6
DA:71,28
DA:75,56
DA:79,28
LF:3
LH:3
end_of_record
SF:/home/leito-chan/Downloads/TPI/transporteUrbano/main.cpp
FN:7,main
FNDA:2,main
FNF:1
FNH:1
DA:7,2
DA:8,2
DA:9,2
DA:12,8
DA:13,2
DA:20,2
DA:22,2
LF:7
LH:7
end_of_record
SF:/usr/include/c++/8/bits/move.h
FN:47,_ZSt11__addressofISt5tupleIJddEEEPT_RS2_
FN:47,_ZSt11__addressofISt6vectorISt5tupleIJddEESaIS2_EEEPT_RS5_
FN:74,_ZSt7forwardIRKSt6vectorISt5tupleIJddEESaIS2_EEEOT_RNSt16remove_referenceIS7_E4typeE
FN:74,_ZSt7forwardIRKSt5tupleIJddEEEOT_RNSt16remove_referenceIS4_E4typeE
FNDA:594,_ZSt11__addressofISt5tupleIJddEEEPT_RS2_
FNDA:12,_ZSt11__addressofISt6vectorISt5tupleIJddEESaIS2_EEEPT_RS5_
FNDA:6,_ZSt7forwardIRKSt6vectorISt5tupleIJddEESaIS2_EEEOT_RNSt16remove_referenceIS7_E4typeE
FNDA:628,_ZSt7forwardIRKSt5tupleIJddEEEOT_RNSt16remove_referenceIS4_E4typeE
FNF:4
FNH:4
DA:47,606
DA:48,606
DA:74,634
DA:75,634
LF:4
LH:4
end_of_record
SF:/usr/include/c++/8/new
FN:168,_ZnwmPv
FN:174,_ZdlPvS_
FNDA:6916,_ZnwmPv
FNDA:0,_ZdlPvS_
FNF:2
FNH:1
DA:168,6916
DA:169,6916
DA:174,0
LF:3
LH:2
end_of_record
SF:/usr/include/c++/8/ext/new_allocator.h
FN:79,_ZN9__gnu_cxx13new_allocatorISt5tupleIJddEEEC2Ev
FN:79,_ZN9__gnu_cxx13new_allocatorIcEC2Ev
FN:79,_ZN9__gnu_cxx13new_allocatorISt6vectorISt5tupleIJddEESaIS3_EEEC2Ev
FN:81,_ZN9__gnu_cxx13new_allocatorISt5tupleIJddEEEC2ERKS3_
FN:81,_ZN9__gnu_cxx13new_allocatorISt6vectorISt5tupleIJddEESaIS3_EEEC2ERKS6_
FN:86,_ZN9__gnu_cxx13new_allocatorIcED2Ev
FN:86,_ZN9__gnu_cxx13new_allocatorISt5tupleIJddEEED2Ev
FN:86,_ZN9__gnu_cxx13new_allocatorISt6vectorISt5tupleIJddEESaIS3_EEED2Ev
FN:99,_ZN9__gnu_cxx13new_allocatorISt6vectorISt5tupleIJddEESaIS3_EEE8allocateEmPKv
FN:99,_ZN9__gnu_cxx13new_allocatorISt5tupleIJddEEE8allocateEmPKv
FN:116,_ZN9__gnu_cxx13new_allocatorISt5tupleIJddEEE10deallocateEPS2_m
FN:116,_ZN9__gnu_cxx13new_allocatorISt6vectorISt5tupleIJddEESaIS3_EEE10deallocateEPS5_m
FN:129,_ZNK9__gnu_cxx13new_allocatorISt6vectorISt5tupleIJddEESaIS3_EEE8max_sizeEv
FN:129,_ZNK9__gnu_cxx13new_allocatorISt5tupleIJddEEE8max_sizeEv
FNDA:2,_ZN9__gnu_cxx13new_allocatorISt6vectorISt5tupleIJddEESaIS3_EEEC2Ev
FNDA:46,_ZN9__gnu_cxx13new_allocatorISt5tupleIJddEEEC2Ev
FNDA:0,_ZN9__gnu_cxx13new_allocatorIcEC2Ev
FNDA:2,_ZN9__gnu_cxx13new_allocatorISt6vectorISt5tupleIJddEESaIS3_EEEC2ERKS6_
FNDA:142,_ZN9__gnu_cxx13new_allocatorISt5tupleIJddEEEC2ERKS3_
FNDA:4,_ZN9__gnu_cxx13new_allocatorISt6vectorISt5tupleIJddEESaIS3_EEED2Ev
FNDA:188,_ZN9__gnu_cxx13new_allocatorISt5tupleIJddEEED2Ev
FNDA:0,_ZN9__gnu_cxx13new_allocatorIcED2Ev
FNDA:2,_ZN9__gnu_cxx13new_allocatorISt6vectorISt5tupleIJddEESaIS3_EEE8allocateEmPKv
FNDA:100,_ZN9__gnu_cxx13new_allocatorISt5tupleIJddEEE8allocateEmPKv
FNDA:2,_ZN9__gnu_cxx13new_allocatorISt6vectorISt5tupleIJddEESaIS3_EEE10deallocateEPS5_m
FNDA:100,_ZN9__gnu_cxx13new_allocatorISt5tupleIJddEEE10deallocateEPS2_m
FNDA:2,_ZNK9__gnu_cxx13new_allocatorISt6vectorISt5tupleIJddEESaIS3_EEE8max_sizeEv
FNDA:132,_ZNK9__gnu_cxx13new_allocatorISt5tupleIJddEEE8max_sizeEv
FNF:14
FNH:12
DA:79,48
DA:81,144
DA:86,192
DA:99,102
DA:101,102
DA:102,0
DA:111,102
DA:116,102
DA:125,102
DA:126,102
DA:129,134
DA:130,134
LF:12
LH:11
end_of_record
SF:/usr/include/c++/8/bits/stl_construct.h
FN:74,_ZSt10_ConstructISt5tupleIJddEEJRKS1_EEvPT_DpOT0_
FN:74,_ZSt10_ConstructISt6vectorISt5tupleIJddEESaIS2_EEJRKS4_EEvPT_DpOT0_
FN:97,_ZSt8_DestroyISt6vectorISt5tupleIJddEESaIS2_EEEvPT_
FN:105,_ZNSt12_Destroy_auxILb0EE9__destroyIPSt6vectorISt5tupleIJddEESaIS4_EEEEvT_S8_
FN:117,_ZNSt12_Destroy_auxILb1EE9__destroyIPSt5tupleIJddEEEEvT_S5_
FN:127,_ZSt8_DestroyIPSt5tupleIJddEEEvT_S3_
FN:127,_ZSt8_DestroyIPSt6vectorISt5tupleIJddEESaIS2_EEEvT_S6_
FN:203,_ZSt8_DestroyIPSt6vectorISt5tupleIJddEESaIS2_EES4_EvT_S6_RSaIT0_E
FN:203,_ZSt8_DestroyIPSt5tupleIJddEES1_EvT_S3_RSaIT0_E
FNDA:6,_ZSt10_ConstructISt6vectorISt5tupleIJddEESaIS2_EEJRKS4_EEvPT_DpOT0_
FNDA:580,_ZSt10_ConstructISt5tupleIJddEEJRKS1_EEvPT_DpOT0_
FNDA:6,_ZSt8_DestroyISt6vectorISt5tupleIJddEESaIS2_EEEvPT_
FNDA:2,_ZNSt12_Destroy_auxILb0EE9__destroyIPSt6vectorISt5tupleIJddEESaIS4_EEEEvT_S8_
FNDA:122,_ZNSt12_Destroy_auxILb1EE9__destroyIPSt5tupleIJddEEEEvT_S5_
FNDA:2,_ZSt8_DestroyIPSt6vectorISt5tupleIJddEESaIS2_EEEvT_S6_
FNDA:122,_ZSt8_DestroyIPSt5tupleIJddEEEvT_S3_
FNDA:2,_ZSt8_DestroyIPSt6vectorISt5tupleIJddEESaIS2_EES4_EvT_S6_RSaIT0_E
FNDA:122,_ZSt8_DestroyIPSt5tupleIJddEES1_EvT_S3_RSaIT0_E
FNF:9
FNH:9
DA:74,586
DA:75,586
DA:97,6
DA:98,6
DA:105,8
DA:107,8
DA:108,6
DA:109,2
DA:117,122
DA:127,124
DA:137,124
DA:138,124
DA:203,124
DA:206,124
DA:207,124
LF:15
LH:15
end_of_record
SF:/usr/include/c++/8/bits/stl_iterator.h
FN:783,_ZN9__gnu_cxx17__normal_iteratorIPKSt5tupleIJddEESt6vectorIS2_SaIS2_EEEC2ERKS4_
FN:796,_ZNK9__gnu_cxx17__normal_iteratorIPKSt5tupleIJddEESt6vectorIS2_SaIS2_EEEdeEv
FN:804,_ZN9__gnu_cxx17__normal_iteratorIPKSt5tupleIJddEESt6vectorIS2_SaIS2_EEEppEv
FN:848,_ZNK9__gnu_cxx17__normal_iteratorIPKSt5tupleIJddEESt6vectorIS2_SaIS2_EEE4baseEv
FN:884,_ZN9__gnu_cxxneIPKSt5tupleIJddEESt6vectorIS2_SaIS2_EEEEbRKNS_17__normal_iteratorIT_T0_EESD_
FNDA:128,_ZN9__gnu_cxx17__normal_iteratorIPKSt5tupleIJddEESt6vectorIS2_SaIS2_EEEC2ERKS4_
FNDA:404,_ZNK9__gnu_cxx17__normal_iteratorIPKSt5tupleIJddEESt6vectorIS2_SaIS2_EEEdeEv
FNDA:404,_ZN9__gnu_cxx17__normal_iteratorIPKSt5tupleIJddEESt6vectorIS2_SaIS2_EEEppEv
FNDA:936,_ZNK9__gnu_cxx17__normal_iteratorIPKSt5tupleIJddEESt6vectorIS2_SaIS2_EEE4baseEv
FNDA:464,_ZN9__gnu_cxxneIPKSt5tupleIJddEESt6vectorIS2_SaIS2_EEEEbRKNS_17__normal_iteratorIT_T0_EESD_
FNF:5
FNH:5
DA:783,128
DA:784,128
DA:796,404
DA:797,404
DA:804,404
DA:806,404
DA:807,404
DA:848,936
DA:849,936
DA:884,464
DA:887,464
LF:11
LH:11
end_of_record
SF:/usr/include/c++/8/bits/stl_iterator_base_funcs.h
FN:98,_ZSt10__distanceIPKSt5tupleIJddEEENSt15iterator_traitsIT_E15difference_typeES5_S5_St26random_access_iterator_tag
FN:98,_ZSt10__distanceIPKcENSt15iterator_traitsIT_E15difference_typeES3_S3_St26random_access_iterator_tag
FN:98,_ZSt10__distanceIPKSt6vectorISt5tupleIJddEESaIS2_EEENSt15iterator_traitsIT_E15difference_typeES8_S8_St26random_access_iterator_tag
FNDA:0,_ZSt10__distanceIPKcENSt15iterator_traitsIT_E15difference_typeES3_S3_St26random_access_iterator_tag
FNDA:2,_ZSt10__distanceIPKSt6vectorISt5tupleIJddEESaIS2_EEENSt15iterator_traitsIT_E15difference_typeES8_S8_St26random_access_iterator_tag
FNDA:26,_ZSt10__distanceIPKSt5tupleIJddEEENSt15iterator_traitsIT_E15difference_typeES5_S5_St26random_access_iterator_tag
FNF:3
FNH:2
DA:98,28
DA:104,28
DA:138,28
DA:141,28
DA:142,56
LF:5
LH:5
end_of_record
SF:/usr/include/c++/8/bits/stl_iterator_base_types.h
FN:205,_ZSt19__iterator_categoryIPKcENSt15iterator_traitsIT_E17iterator_categoryERKS3_
FN:205,_ZSt19__iterator_categoryIPKSt5tupleIJddEEENSt15iterator_traitsIT_E17iterator_categoryERKS5_
FN:205,_ZSt19__iterator_categoryIPKSt6vectorISt5tupleIJddEESaIS2_EEENSt15iterator_traitsIT_E17iterator_categoryERKS8_
FNDA:0,_ZSt19__iterator_categoryIPKcENSt15iterator_traitsIT_E17iterator_categoryERKS3_
FNDA:2,_ZSt19__iterator_categoryIPKSt6vectorISt5tupleIJddEESaIS2_EEENSt15iterator_traitsIT_E17iterator_categoryERKS8_
FNDA:26,_ZSt19__iterator_categoryIPKSt5tupleIJddEEENSt15iterator_traitsIT_E17iterator_categoryERKS5_
FNF:3
FNH:2
DA:205,28
DA:206,28
LF:2
LH:2
end_of_record
SF:/usr/include/c++/8/bits/stl_uninitialized.h
FN:76,_ZNSt20__uninitialized_copyILb0EE13__uninit_copyIPKSt5tupleIJddEEPS3_EET0_T_S8_S7_
FN:76,_ZNSt20__uninitialized_copyILb0EE13__uninit_copyIN9__gnu_cxx17__normal_iteratorIPKSt5tupleIJddEESt6vectorIS5_SaIS5_EEEEPS5_EET0_T_SE_SD_
FN:76,_ZNSt20__uninitialized_copyILb0EE13__uninit_copyIPKSt6vectorISt5tupleIJddEESaIS4_EEPS6_EET0_T_SB_SA_
FN:115,_ZSt18uninitialized_copyIN9__gnu_cxx17__normal_iteratorIPKSt5tupleIJddEESt6vectorIS3_SaIS3_EEEEPS3_ET0_T_SC_SB_
FN:115,_ZSt18uninitialized_copyIPKSt5tupleIJddEEPS1_ET0_T_S6_S5_
FN:115,_ZSt18uninitialized_copyIPKSt6vectorISt5tupleIJddEESaIS2_EEPS4_ET0_T_S9_S8_
FN:287,_ZSt22__uninitialized_copy_aIPKSt5tupleIJddEEPS1_S1_ET0_T_S6_S5_RSaIT1_E
FN:287,_ZSt22__uninitialized_copy_aIN9__gnu_cxx17__normal_iteratorIPKSt5tupleIJddEESt6vectorIS3_SaIS3_EEEEPS3_S3_ET0_T_SC_SB_RSaIT1_E
FN:287,_ZSt22__uninitialized_copy_aIPKSt6vectorISt5tupleIJddEESaIS2_EEPS4_S4_ET0_T_S9_S8_RSaIT1_E
FNDA:2,_ZNSt20__uninitialized_copyILb0EE13__uninit_copyIPKSt6vectorISt5tupleIJddEESaIS4_EEPS6_EET0_T_SB_SA_
FNDA:26,_ZNSt20__uninitialized_copyILb0EE13__uninit_copyIPKSt5tupleIJddEEPS3_EET0_T_S8_S7_
FNDA:60,_ZNSt20__uninitialized_copyILb0EE13__uninit_copyIN9__gnu_cxx17__normal_iteratorIPKSt5tupleIJddEESt6vectorIS5_SaIS5_EEEEPS5_EET0_T_SE_SD_
FNDA:2,_ZSt18uninitialized_copyIPKSt6vectorISt5tupleIJddEESaIS2_EEPS4_ET0_T_S9_S8_
FNDA:26,_ZSt18uninitialized_copyIPKSt5tupleIJddEEPS1_ET0_T_S6_S5_
FNDA:60,_ZSt18uninitialized_copyIN9__gnu_cxx17__normal_iteratorIPKSt5tupleIJddEESt6vectorIS3_SaIS3_EEEEPS3_ET0_T_SC_SB_
FNDA:2,_ZSt22__uninitialized_copy_aIPKSt6vectorISt5tupleIJddEESaIS2_EEPS4_S4_ET0_T_S9_S8_RSaIT1_E
FNDA:26,_ZSt22__uninitialized_copy_aIPKSt5tupleIJddEEPS1_S1_ET0_T_S6_S5_RSaIT1_E
FNDA:60,_ZSt22__uninitialized_copy_aIN9__gnu_cxx17__normal_iteratorIPKSt5tupleIJddEESt6vectorIS3_SaIS3_EEEEPS3_S3_ET0_T_SC_SB_RSaIT1_E
FNF:9
FNH:9
DA:76,88
DA:79,88
DA:82,674
DA:83,586
DA:84,88
DA:86,0
DA:88,0
DA:89,0
DA:115,88
DA:128,88
DA:134,88
DA:287,88
DA:289,88
LF:13
LH:10
end_of_record
SF:/usr/include/c++/8/bits/stl_vector.h
FN:99,_ZNSt12_Vector_baseISt6vectorISt5tupleIJddEESaIS2_EESaIS4_EE12_Vector_implC2ERKS5_
FN:99,_ZNSt12_Vector_baseISt5tupleIJddEESaIS1_EE12_Vector_implC2ERKS2_
FN:237,_ZNSt12_Vector_baseISt5tupleIJddEESaIS1_EE19_M_get_Tp_allocatorEv
FN:237,_ZNSt12_Vector_baseISt6vectorISt5tupleIJddEESaIS2_EESaIS4_EE19_M_get_Tp_allocatorEv
FN:241,_ZNKSt12_Vector_baseISt5tupleIJddEESaIS1_EE19_M_get_Tp_allocatorEv
FN:251,_ZNSt12_Vector_baseISt6vectorISt5tupleIJddEESaIS2_EESaIS4_EEC2ERKS5_
FN:251,_ZNSt12_Vector_baseISt5tupleIJddEESaIS1_EEC2ERKS2_
FN:258,_ZNSt12_Vector_baseISt5tupleIJddEESaIS1_EEC2EmRKS2_
FN:283,_ZNSt12_Vector_baseISt5tupleIJddEESaIS1_EED2Ev
FN:283,_ZNSt12_Vector_baseISt6vectorISt5tupleIJddEESaIS2_EESaIS4_EED2Ev
FN:293,_ZNSt12_Vector_baseISt6vectorISt5tupleIJddEESaIS2_EESaIS4_EE11_M_allocateEm
FN:293,_ZNSt12_Vector_baseISt5tupleIJddEESaIS1_EE11_M_allocateEm
FN:300,_ZNSt12_Vector_baseISt5tupleIJddEESaIS1_EE13_M_deallocateEPS1_m
FN:300,_ZNSt12_Vector_baseISt6vectorISt5tupleIJddEESaIS2_EESaIS4_EE13_M_deallocateEPS4_m
FN:309,_ZNSt12_Vector_baseISt5tupleIJddEESaIS1_EE17_M_create_storageEm
FN:458,_ZNSt6vectorISt5tupleIJddEESaIS1_EEC2ERKS3_
FN:515,_ZNSt6vectorISt5tupleIJddEESaIS1_EEC2ESt16initializer_listIS1_ERKS2_
FN:515,_ZNSt6vectorIS_ISt5tupleIJddEESaIS1_EESaIS3_EEC2ESt16initializer_listIS3_ERKS4_
FN:565,_ZNSt6vectorIS_ISt5tupleIJddEESaIS1_EESaIS3_EED2Ev
FN:565,_ZNSt6vectorISt5tupleIJddEESaIS1_EED2Ev
FN:707,_ZNKSt6vectorISt5tupleIJddEESaIS1_EE5beginEv
FN:725,_ZNKSt6vectorISt5tupleIJddEESaIS1_EE3endEv
FN:805,_ZNKSt6vectorISt5tupleIJddEESaIS1_EE4sizeEv
FN:1462,_ZNSt6vectorIS_ISt5tupleIJddEESaIS1_EESaIS3_EE19_M_range_initializeIPKS3_EEvT_S9_St20forward_iterator_tag
FN:1462,_ZNSt6vectorISt5tupleIJddEESaIS1_EE19_M_range_initializeIPKS1_EEvT_S7_St20forward_iterator_tag
FNDA:2,_ZNSt12_Vector_baseISt6vectorISt5tupleIJddEESaIS2_EESaIS4_EE12_Vector_implC2ERKS5_
FNDA:84,_ZNSt12_Vector_baseISt5tupleIJddEESaIS1_EE12_Vector_implC2ERKS2_
FNDA:4,_ZNSt12_Vector_baseISt6vectorISt5tupleIJddEESaIS2_EESaIS4_EE19_M_get_Tp_allocatorEv
FNDA:244,_ZNSt12_Vector_baseISt5tupleIJddEESaIS1_EE19_M_get_Tp_allocatorEv
FNDA:90,_ZNKSt12_Vector_baseISt5tupleIJddEESaIS1_EE19_M_get_Tp_allocatorEv
FNDA:2,_ZNSt12_Vector_baseISt6vectorISt5tupleIJddEESaIS2_EESaIS4_EEC2ERKS5_
FNDA:26,_ZNSt12_Vector_baseISt5tupleIJddEESaIS1_EEC2ERKS2_
FNDA:58,_ZNSt12_Vector_baseISt5tupleIJddEESaIS1_EEC2EmRKS2_
FNDA:2,_ZNSt12_Vector_baseISt6vectorISt5tupleIJddEESaIS2_EESaIS4_EED2Ev
FNDA:104,_ZNSt12_Vector_baseISt5tupleIJddEESaIS1_EED2Ev
FNDA:2,_ZNSt12_Vector_baseISt6vectorISt5tupleIJddEESaIS2_EESaIS4_EE11_M_allocateEm
FNDA:102,_ZNSt12_Vector_baseISt5tupleIJddEESaIS1_EE11_M_allocateEm
FNDA:2,_ZNSt12_Vector_baseISt6vectorISt5tupleIJddEESaIS2_EESaIS4_EE13_M_deallocateEPS4_m
FNDA:122,_ZNSt12_Vector_baseISt5tupleIJddEESaIS1_EE13_M_deallocateEPS1_m
FNDA:58,_ZNSt12_Vector_baseISt5tupleIJddEESaIS1_EE17_M_create_storageEm
FNDA:58,_ZNSt6vectorISt5tupleIJddEESaIS1_EEC2ERKS3_
FNDA:2,_ZNSt6vectorIS_ISt5tupleIJddEESaIS1_EESaIS3_EEC2ESt16initializer_listIS3_ERKS4_
FNDA:26,_ZNSt6vectorISt5tupleIJddEESaIS1_EEC2ESt16initializer_listIS1_ERKS2_
FNDA:2,_ZNSt6vectorIS_ISt5tupleIJddEESaIS1_EESaIS3_EED2Ev
FNDA:104,_ZNSt6vectorISt5tupleIJddEESaIS1_EED2Ev
FNDA:64,_ZNKSt6vectorISt5tupleIJddEESaIS1_EE5beginEv
FNDA:64,_ZNKSt6vectorISt5tupleIJddEESaIS1_EE3endEv
FNDA:672,_ZNKSt6vectorISt5tupleIJddEESaIS1_EE4sizeEv
FNDA:2,_ZNSt6vectorIS_ISt5tupleIJddEESaIS1_EESaIS3_EE19_M_range_initializeIPKS3_EEvT_S9_St20forward_iterator_tag
FNDA:26,_ZNSt6vectorISt5tupleIJddEESaIS1_EE19_M_range_initializeIPKS1_EEvT_S7_St20forward_iterator_tag
FNF:25
FNH:25
DA:99,86
DA:100,86
DA:101,86
DA:237,248
DA:238,248
DA:241,90
DA:242,90
DA:251,28
DA:252,28
DA:258,58
DA:259,58
DA:260,58
DA:283,106
DA:285,106
DA:286,106
DA:287,106
DA:293,104
DA:296,104
DA:300,124
DA:303,124
DA:304,102
DA:305,124
DA:309,58
DA:311,58
DA:312,58
DA:313,58
DA:314,58
DA:458,58
DA:460,58
DA:462,58
DA:463,58
DA:465,58
DA:466,58
DA:515,28
DA:517,28
DA:519,28
DA:521,28
DA:565,106
DA:567,106
DA:568,106
DA:570,106
DA:707,64
DA:708,64
DA:725,64
DA:726,64
DA:805,672
DA:806,672
DA:1462,28
DA:1465,28
DA:1466,28
DA:1467,28
DA:1468,28
DA:1469,28
DA:1471,28
DA:1472,28
LF:55
LH:55
end_of_record
SF:/usr/include/c++/8/tuple
FN:163,_ZNSt10_Head_baseILm1EdLb0EE7_M_headERKS0_
FN:163,_ZNSt10_Head_baseILm0EdLb0EE7_M_headERKS0_
FN:198,_ZNSt11_Tuple_implILm0EJddEE7_M_headERKS0_
FN:354,_ZNSt11_Tuple_implILm1EJdEE7_M_headERKS0_
FN:1308,_ZSt12__get_helperILm1EdJEERKT0_RKSt11_Tuple_implIXT_EJS0_DpT1_EE
FN:1308,_ZSt12__get_helperILm0EdJdEERKT0_RKSt11_Tuple_implIXT_EJS0_DpT1_EE
FN:1320,_ZSt3getILm1EJddEERKNSt13tuple_elementIXT_ESt5tupleIJDpT0_EEE4typeERKS4_
FN:1320,_ZSt3getILm0EJddEERKNSt13tuple_elementIXT_ESt5tupleIJDpT0_EEE4typeERKS4_
FNDA:328,_ZNSt10_Head_baseILm1EdLb0EE7_M_headERKS0_
FNDA:674,_ZNSt10_Head_baseILm0EdLb0EE7_M_headERKS0_
FNDA:440,_ZNSt11_Tuple_implILm0EJddEE7_M_headERKS0_
FNDA:328,_ZNSt11_Tuple_implILm1EJdEE7_M_headERKS0_
FNDA:102,_ZSt12__get_helperILm1EdJEERKT0_RKSt11_Tuple_implIXT_EJS0_DpT1_EE
FNDA:214,_ZSt12__get_helperILm0EdJdEERKT0_RKSt11_Tuple_implIXT_EJS0_DpT1_EE
FNDA:102,_ZSt3getILm1EJddEERKNSt13tuple_elementIXT_ESt5tupleIJDpT0_EEE4typeERKS4_
FNDA:214,_ZSt3getILm0EJddEERKNSt13tuple_elementIXT_ESt5tupleIJDpT0_EEE4typeERKS4_
FNF:8
FNH:8
DA:163,1002
DA:198,440
DA:354,328
DA:1308,316
DA:1309,316
DA:1320,316
DA:1321,316
LF:7
LH:7
end_of_record
SF:/usr/include/c++/8/ext/type_traits.h
FN:152,_ZN9__gnu_cxx17__is_null_pointerIKcEEbPT_
FNDA:0,_ZN9__gnu_cxx17__is_null_pointerIKcEEbPT_
FNF:1
FNH:0
DA:152,0
DA:153,0
LF:2
LH:0
end_of_record
