TN:
SF:/home/ltoconas/Downloads/labo07/taller/src/ej2/puntaje.cpp
FN:1,_Z7puntajei
FNDA:25,_Z7puntajei
FNF:1
FNH:1
DA:1,25
DA:3,25
DA:4,15
DA:6,10
DA:8,25
DA:9,18
DA:11,7
DA:13,25
LF:8
LH:8
end_of_record
TN:
SF:/home/ltoconas/Downloads/labo07/taller/src/ej2/llenarTaxis.cpp
FN:1,_Z12llenarTaxis1iiiRi
FN:5,_Z12llenarTaxis2iiiRi
FN:17,_Z12llenarTaxis3iiiRi
FNDA:0,_Z12llenarTaxis1iiiRi
FNDA:0,_Z12llenarTaxis2iiiRi
FNDA:0,_Z12llenarTaxis3iiiRi
FNF:3
FNH:0
DA:1,0
DA:2,0
DA:3,0
DA:5,0
DA:6,0
DA:8,0
DA:9,0
DA:11,0
DA:14,0
DA:15,0
DA:17,0
DA:18,0
DA:20,0
DA:21,0
DA:23,0
DA:26,0
DA:27,0
DA:28,0
DA:29,0
DA:31,0
DA:35,0
DA:36,0
LF:22
LH:0
end_of_record
TN:
SF:/home/ltoconas/Downloads/labo07/taller/src/ej1/esPrimo.cpp
FN:3,_Z7esPrimoi
FNDA:20,_Z7esPrimoi
FNF:1
FNH:1
DA:3,20
DA:4,20
DA:5,6
DA:7,34
DA:8,26
DA:9,6
DA:12,8
LF:7
LH:7
end_of_record
TN:
SF:/home/ltoconas/Downloads/labo07/taller/src/ej3/baldosasDelPiso.cpp
FN:1,_Z15baldosasDelPisoiii
FNDA:0,_Z15baldosasDelPisoiii
FNF:1
FNH:0
DA:1,0
DA:2,0
LF:2
LH:0
end_of_record
TN:
SF:/home/ltoconas/Downloads/labo07/taller/src/ej3/contandoDragones.cpp
FN:1,_Z16contandoDragonesiiii
FNDA:0,_Z16contandoDragonesiiii
FNF:1
FNH:0
DA:1,0
DA:2,0
LF:2
LH:0
end_of_record
TN:
SF:/home/ltoconas/Downloads/labo07/taller/src/ej3/sandia.cpp
FN:1,_Z6sandiai
FNDA:0,_Z6sandiai
FNF:1
FNH:0
DA:1,0
DA:2,0
LF:2
LH:0
end_of_record
TN:
SF:/home/ltoconas/Downloads/labo07/taller/lib/gtest/gtest.h
FN:2395,_ZN7testing8internal10scoped_ptrINSt7__cxx1118basic_stringstreamIcSt11char_traitsIcESaIcEEEED2Ev
FN:2395,_ZN7testing8internal10scoped_ptrINSt7__cxx1112basic_stringIcSt11char_traitsIcESaIcEEEED2Ev
FN:2398,_ZNK7testing8internal10scoped_ptrINSt7__cxx1112basic_stringIcSt11char_traitsIcESaIcEEEEptEv
FN:2399,_ZNK7testing8internal10scoped_ptrINSt7__cxx1112basic_stringIcSt11char_traitsIcESaIcEEEE3getEv
FN:2407,_ZN7testing8internal10scoped_ptrINSt7__cxx1112basic_stringIcSt11char_traitsIcESaIcEEEE5resetEPS7_
FN:2407,_ZN7testing8internal10scoped_ptrINSt7__cxx1118basic_stringstreamIcSt11char_traitsIcESaIcEEEE5resetEPS7_
FN:3935,_ZN7testing7MessageD2Ev
FN:8201,_ZN7testing8internal15TestFactoryBaseD0Ev
FN:8201,_ZN7testing8internal15TestFactoryBaseD2Ev
FN:8208,_ZN7testing8internal15TestFactoryBaseC2Ev
FN:8217,_ZN7testing8internal15TestFactoryImplI40puntajeTest_puntajeTest_bMenor_Test_TestED2Ev
FN:8217,_ZN7testing8internal15TestFactoryImplI40puntajeTest_puntajeTest_bMenor_Test_TestED0Ev
FN:8217,_ZN7testing8internal15TestFactoryImplI40puntajeTest_puntajeTest_bMenor_Test_TestEC2Ev
FN:8219,_ZN7testing8internal15TestFactoryImplI40puntajeTest_puntajeTest_bMenor_Test_TestE10CreateTestEv
FN:8239,_ZN7testing8internal12CodeLocationD2Ev
FN:8240,_ZN7testing8internal12CodeLocationC2ERKNSt7__cxx1112basic_stringIcSt11char_traitsIcESaIcEEEi
FN:8675,_ZN7testing8internal15IsContainerTestIiEEcl
FN:10281,_ZN16testing_internal26DefaultPrintNonContainerToIiEEvRKT_PSo
FN:10334,_ZN7testing8internal19FormatForComparisonIiiE6FormatB5cxx11ERKi
FN:10408,_ZN7testing8internal33FormatForComparisonFailureMessageIiiEENSt7__cxx1112basic_stringIcSt11char_traitsIcESaIcEEERKT_RKT0_
FN:10495,_ZN7testing8internal14DefaultPrintToIiEEvcNS0_13bool_constantILb0EEERKT_PSo
FN:10513,_ZN7testing8internal7PrintToIiEEvRKT_PSo
FN:10757,_ZN7testing8internal16UniversalPrinterIiE5PrintERKiPSo
FN:10842,_ZN7testing8internal21UniversalTersePrinterIiE5PrintERKiPSo
FN:10911,_ZN7testing8internal14UniversalPrintIiEEvRKT_PSo
FN:11039,_ZN7testing13PrintToStringIiEENSt7__cxx1112basic_stringIcSt11char_traitsIcESaIcEEERKT_
FN:18855,_ZN7testing15AssertionResultD2Ev
FN:18887,_ZNK7testing15AssertionResultcvbEv
FN:18896,_ZNK7testing15AssertionResult7messageEv
FN:18901,_ZNK7testing15AssertionResult15failure_messageEv
FN:18988,_ZN7testing4Test13SetUpTestCaseEv
FN:18996,_ZN7testing4Test16TearDownTestCaseEv
FN:19073,_ZN7testing4Test5SetupEv
FN:19974,_ZN7testing8internal18CmpHelperEQFailureIiiEENS_15AssertionResultEPKcS4_RKT_RKT0_
FN:19986,_ZN7testing8internal11CmpHelperEQIiiEENS_15AssertionResultEPKcS4_RKT_RKT0_
FN:20016,_ZN7testing8internal8EqHelperILb0EE7CompareIiiEENS_15AssertionResultEPKcS6_RKT_RKT0_
FN:20047,_ZN7testing8internal8EqHelperILb1EE7CompareIiiEENS_15AssertionResultEPKcS6_RKT_RKT0_PNS0_8EnableIfIXntsrNS0_10is_pointerISA_EE5valueEE4typeE
FNDA:0,_ZN7testing8internal10scoped_ptrINSt7__cxx1112basic_stringIcSt11char_traitsIcESaIcEEEED2Ev
FNDA:0,_ZN7testing8internal10scoped_ptrINSt7__cxx1118basic_stringstreamIcSt11char_traitsIcESaIcEEEED2Ev
FNDA:0,_ZNK7testing8internal10scoped_ptrINSt7__cxx1112basic_stringIcSt11char_traitsIcESaIcEEEEptEv
FNDA:0,_ZNK7testing8internal10scoped_ptrINSt7__cxx1112basic_stringIcSt11char_traitsIcESaIcEEEE3getEv
FNDA:0,_ZN7testing8internal10scoped_ptrINSt7__cxx1118basic_stringstreamIcSt11char_traitsIcESaIcEEEE5resetEPS7_
FNDA:0,_ZN7testing8internal10scoped_ptrINSt7__cxx1112basic_stringIcSt11char_traitsIcESaIcEEEE5resetEPS7_
FNDA:0,_ZN7testing7MessageD2Ev
FNDA:0,_ZN7testing8internal15TestFactoryBaseD0Ev
FNDA:0,_ZN7testing8internal15TestFactoryBaseD2Ev
FNDA:0,_ZN7testing8internal15TestFactoryBaseC2Ev
FNDA:2,_ZN7testing8internal15TestFactoryImplI40puntajeTest_puntajeTest_bMenor_Test_TestED0Ev
FNDA:2,_ZN7testing8internal15TestFactoryImplI40puntajeTest_puntajeTest_bMenor_Test_TestED2Ev
FNDA:2,_ZN7testing8internal15TestFactoryImplI40puntajeTest_puntajeTest_bMenor_Test_TestEC2Ev
FNDA:2,_ZN7testing8internal15TestFactoryImplI40puntajeTest_puntajeTest_bMenor_Test_TestE10CreateTestEv
FNDA:0,_ZN7testing8internal12CodeLocationD2Ev
FNDA:0,_ZN7testing8internal12CodeLocationC2ERKNSt7__cxx1112basic_stringIcSt11char_traitsIcESaIcEEEi
FNDA:0,_ZN7testing8internal15IsContainerTestIiEEcl
FNDA:0,_ZN16testing_internal26DefaultPrintNonContainerToIiEEvRKT_PSo
FNDA:0,_ZN7testing8internal19FormatForComparisonIiiE6FormatB5cxx11ERKi
FNDA:0,_ZN7testing8internal33FormatForComparisonFailureMessageIiiEENSt7__cxx1112basic_stringIcSt11char_traitsIcESaIcEEERKT_RKT0_
FNDA:0,_ZN7testing8internal14DefaultPrintToIiEEvcNS0_13bool_constantILb0EEERKT_PSo
FNDA:0,_ZN7testing8internal7PrintToIiEEvRKT_PSo
FNDA:0,_ZN7testing8internal16UniversalPrinterIiE5PrintERKiPSo
FNDA:0,_ZN7testing8internal21UniversalTersePrinterIiE5PrintERKiPSo
FNDA:0,_ZN7testing8internal14UniversalPrintIiEEvRKT_PSo
FNDA:0,_ZN7testing13PrintToStringIiEENSt7__cxx1112basic_stringIcSt11char_traitsIcESaIcEEERKT_
FNDA:0,_ZN7testing15AssertionResultD2Ev
FNDA:0,_ZNK7testing15AssertionResultcvbEv
FNDA:0,_ZNK7testing15AssertionResult7messageEv
FNDA:0,_ZNK7testing15AssertionResult15failure_messageEv
FNDA:0,_ZN7testing4Test13SetUpTestCaseEv
FNDA:0,_ZN7testing4Test16TearDownTestCaseEv
FNDA:0,_ZN7testing4Test5SetupEv
FNDA:0,_ZN7testing8internal18CmpHelperEQFailureIiiEENS_15AssertionResultEPKcS4_RKT_RKT0_
FNDA:8,_ZN7testing8internal11CmpHelperEQIiiEENS_15AssertionResultEPKcS4_RKT_RKT0_
FNDA:6,_ZN7testing8internal8EqHelperILb0EE7CompareIiiEENS_15AssertionResultEPKcS6_RKT_RKT0_
FNDA:2,_ZN7testing8internal8EqHelperILb1EE7CompareIiiEENS_15AssertionResultEPKcS6_RKT_RKT0_PNS0_8EnableIfIXntsrNS0_10is_pointerISA_EE5valueEE4typeE
FNF:37
FNH:7
DA:2395,0
DA:2398,0
DA:2399,0
DA:2407,0
DA:2408,0
DA:2409,0
DA:2410,0
DA:2412,0
DA:2414,0
DA:3935,0
DA:8201,0
DA:8208,0
DA:8217,6
DA:8219,2
DA:8239,0
DA:8240,0
DA:8675,0
DA:10281,0
DA:10308,0
DA:10309,0
DA:10334,0
DA:10335,0
DA:10408,0
DA:10410,0
DA:10495,0
DA:10498,0
DA:10499,0
DA:10513,0
DA:10536,0
DA:10537,0
DA:10757,0
DA:10766,0
DA:10767,0
DA:10842,0
DA:10843,0
DA:10844,0
DA:10911,0
DA:10915,0
DA:10916,0
DA:11039,0
DA:11040,0
DA:11041,0
DA:11042,0
DA:18855,0
DA:18887,0
DA:18896,0
DA:18897,0
DA:18901,0
DA:18988,0
DA:18996,0
DA:19073,0
DA:19974,0
DA:19981,0
DA:19986,8
DA:19991,8
DA:19992,8
DA:19996,0
DA:20016,6
DA:20020,6
DA:20047,2
DA:20058,2
LF:61
LH:9
end_of_record
SF:/home/ltoconas/Downloads/labo07/taller/test/ej2/puntajeTEST.cpp
FN:5,_ZN40puntajeTest_puntajeTest_bMenor_Test_TestC2Ev
FN:5,_ZN40puntajeTest_puntajeTest_bMenor_Test_TestD2Ev
FN:5,_ZN40puntajeTest_puntajeTest_bMenor_Test_Test8TestBodyEv
FN:5,_ZN40puntajeTest_puntajeTest_bMenor_Test_TestD0Ev
FN:11,_Z41__static_initialization_and_destruction_0ii
FN:11,_GLOBAL__sub_I__ZN40puntajeTest_puntajeTest_bMenor_Test_Test10test_info_E
FNDA:2,_ZN40puntajeTest_puntajeTest_bMenor_Test_TestD0Ev
FNDA:2,_ZN40puntajeTest_puntajeTest_bMenor_Test_TestD2Ev
FNDA:2,_ZN40puntajeTest_puntajeTest_bMenor_Test_Test8TestBodyEv
FNDA:2,_ZN40puntajeTest_puntajeTest_bMenor_Test_TestC2Ev
FNDA:2,_GLOBAL__sub_I__ZN40puntajeTest_puntajeTest_bMenor_Test_Test10test_info_E
FNDA:2,_Z41__static_initialization_and_destruction_0ii
FNF:6
FNH:6
DA:5,10
DA:6,2
DA:7,2
DA:8,2
DA:9,2
DA:11,6
LF:6
LH:6
end_of_record
SF:/usr/include/c++/7/bits/ios_base.h
FN:129,_ZStorSt13_Ios_OpenmodeS_
FNDA:0,_ZStorSt13_Ios_OpenmodeS_
FNF:1
FNH:0
DA:129,0
DA:130,0
LF:2
LH:0
end_of_record
SF:/usr/include/c++/7/iostream
DA:74,2
LF:1
LH:1
end_of_record
TN:
SF:/home/ltoconas/Downloads/labo07/taller/lib/gtest/gtest.h
FN:8201,_ZN7testing8internal15TestFactoryBaseD2Ev
FN:8201,_ZN7testing8internal15TestFactoryBaseD0Ev
FN:8208,_ZN7testing8internal15TestFactoryBaseC2Ev
FN:8217,_ZN7testing8internal15TestFactoryImplI43llenarTaxisTest_llenarTaxisTest_l_Test_TestED2Ev
FN:8217,_ZN7testing8internal15TestFactoryImplI43llenarTaxisTest_llenarTaxisTest_l_Test_TestED0Ev
FN:8217,_ZN7testing8internal15TestFactoryImplI43llenarTaxisTest_llenarTaxisTest_l_Test_TestEC2Ev
FN:8219,_ZN7testing8internal15TestFactoryImplI43llenarTaxisTest_llenarTaxisTest_l_Test_TestE10CreateTestEv
FN:8239,_ZN7testing8internal12CodeLocationD2Ev
FN:8240,_ZN7testing8internal12CodeLocationC2ERKNSt7__cxx1112basic_stringIcSt11char_traitsIcESaIcEEEi
FN:18988,_ZN7testing4Test13SetUpTestCaseEv
FN:18996,_ZN7testing4Test16TearDownTestCaseEv
FN:19073,_ZN7testing4Test5SetupEv
FNDA:0,_ZN7testing8internal15TestFactoryBaseD0Ev
FNDA:0,_ZN7testing8internal15TestFactoryBaseD2Ev
FNDA:0,_ZN7testing8internal15TestFactoryBaseC2Ev
FNDA:1,_ZN7testing8internal15TestFactoryImplI43llenarTaxisTest_llenarTaxisTest_l_Test_TestED0Ev
FNDA:1,_ZN7testing8internal15TestFactoryImplI43llenarTaxisTest_llenarTaxisTest_l_Test_TestED2Ev
FNDA:1,_ZN7testing8internal15TestFactoryImplI43llenarTaxisTest_llenarTaxisTest_l_Test_TestEC2Ev
FNDA:1,_ZN7testing8internal15TestFactoryImplI43llenarTaxisTest_llenarTaxisTest_l_Test_TestE10CreateTestEv
FNDA:0,_ZN7testing8internal12CodeLocationD2Ev
FNDA:0,_ZN7testing8internal12CodeLocationC2ERKNSt7__cxx1112basic_stringIcSt11char_traitsIcESaIcEEEi
FNDA:0,_ZN7testing4Test13SetUpTestCaseEv
FNDA:0,_ZN7testing4Test16TearDownTestCaseEv
FNDA:0,_ZN7testing4Test5SetupEv
FNF:12
FNH:4
DA:8201,0
DA:8208,0
DA:8217,3
DA:8219,1
DA:8239,0
DA:8240,0
DA:18988,0
DA:18996,0
DA:19073,0
LF:9
LH:2
end_of_record
SF:/home/ltoconas/Downloads/labo07/taller/test/ej2/llenarTaxisTEST.cpp
FN:5,_ZN43llenarTaxisTest_llenarTaxisTest_l_Test_TestD0Ev
FN:5,_ZN43llenarTaxisTest_llenarTaxisTest_l_Test_TestC2Ev
FN:5,_ZN43llenarTaxisTest_llenarTaxisTest_l_Test_TestD2Ev
FN:5,_ZN43llenarTaxisTest_llenarTaxisTest_l_Test_Test8TestBodyEv
FN:11,_GLOBAL__sub_I__ZN43llenarTaxisTest_llenarTaxisTest_l_Test_Test10test_info_E
FN:11,_Z41__static_initialization_and_destruction_0ii
FNDA:1,_ZN43llenarTaxisTest_llenarTaxisTest_l_Test_TestD0Ev
FNDA:1,_ZN43llenarTaxisTest_llenarTaxisTest_l_Test_TestD2Ev
FNDA:1,_ZN43llenarTaxisTest_llenarTaxisTest_l_Test_Test8TestBodyEv
FNDA:1,_ZN43llenarTaxisTest_llenarTaxisTest_l_Test_TestC2Ev
FNDA:1,_GLOBAL__sub_I__ZN43llenarTaxisTest_llenarTaxisTest_l_Test_Test10test_info_E
FNDA:1,_Z41__static_initialization_and_destruction_0ii
FNF:6
FNH:6
DA:5,5
DA:11,4
LF:2
LH:2
end_of_record
SF:/usr/include/c++/7/iostream
DA:74,1
LF:1
LH:1
end_of_record
TN:
SF:/home/ltoconas/Downloads/labo07/taller/lib/gtest/gtest.h
FN:2395,_ZN7testing8internal10scoped_ptrINSt7__cxx1112basic_stringIcSt11char_traitsIcESaIcEEEED2Ev
FN:2395,_ZN7testing8internal10scoped_ptrINSt7__cxx1118basic_stringstreamIcSt11char_traitsIcESaIcEEEED2Ev
FN:2398,_ZNK7testing8internal10scoped_ptrINSt7__cxx1112basic_stringIcSt11char_traitsIcESaIcEEEEptEv
FN:2399,_ZNK7testing8internal10scoped_ptrINSt7__cxx1112basic_stringIcSt11char_traitsIcESaIcEEEE3getEv
FN:2407,_ZN7testing8internal10scoped_ptrINSt7__cxx1118basic_stringstreamIcSt11char_traitsIcESaIcEEEE5resetEPS7_
FN:2407,_ZN7testing8internal10scoped_ptrINSt7__cxx1112basic_stringIcSt11char_traitsIcESaIcEEEE5resetEPS7_
FN:3935,_ZN7testing7MessageD2Ev
FN:8201,_ZN7testing8internal15TestFactoryBaseD2Ev
FN:8201,_ZN7testing8internal15TestFactoryBaseD0Ev
FN:8208,_ZN7testing8internal15TestFactoryBaseC2Ev
FN:8217,_ZN7testing8internal15TestFactoryImplI27EsPrimoTest_CasosBorde_TestEC2Ev
FN:8217,_ZN7testing8internal15TestFactoryImplI32EsPrimoTest_NumeroCompuesto_TestED2Ev
FN:8217,_ZN7testing8internal15TestFactoryImplI28EsPrimoTest_NumeroPrimo_TestED0Ev
FN:8217,_ZN7testing8internal15TestFactoryImplI32EsPrimoTest_NumeroCompuesto_TestEC2Ev
FN:8217,_ZN7testing8internal15TestFactoryImplI28EsPrimoTest_NumeroPrimo_TestED2Ev
FN:8217,_ZN7testing8internal15TestFactoryImplI27EsPrimoTest_CasosBorde_TestED0Ev
FN:8217,_ZN7testing8internal15TestFactoryImplI27EsPrimoTest_CasosBorde_TestED2Ev
FN:8217,_ZN7testing8internal15TestFactoryImplI32EsPrimoTest_NumeroCompuesto_TestED0Ev
FN:8217,_ZN7testing8internal15TestFactoryImplI28EsPrimoTest_NumeroPrimo_TestEC2Ev
FN:8219,_ZN7testing8internal15TestFactoryImplI27EsPrimoTest_CasosBorde_TestE10CreateTestEv
FN:8219,_ZN7testing8internal15TestFactoryImplI32EsPrimoTest_NumeroCompuesto_TestE10CreateTestEv
FN:8219,_ZN7testing8internal15TestFactoryImplI28EsPrimoTest_NumeroPrimo_TestE10CreateTestEv
FN:8239,_ZN7testing8internal12CodeLocationD2Ev
FN:8240,_ZN7testing8internal12CodeLocationC2ERKNSt7__cxx1112basic_stringIcSt11char_traitsIcESaIcEEEi
FN:10334,_ZN7testing8internal19FormatForComparisonIbbE6FormatB5cxx11ERKb
FN:10408,_ZN7testing8internal33FormatForComparisonFailureMessageIbbEENSt7__cxx1112basic_stringIcSt11char_traitsIcESaIcEEERKT_RKT0_
FN:10554,_ZN7testing8internal7PrintToEbPSo
FN:10757,_ZN7testing8internal16UniversalPrinterIbE5PrintERKbPSo
FN:10842,_ZN7testing8internal21UniversalTersePrinterIbE5PrintERKbPSo
FN:10911,_ZN7testing8internal14UniversalPrintIbEEvRKT_PSo
FN:11039,_ZN7testing13PrintToStringIbEENSt7__cxx1112basic_stringIcSt11char_traitsIcESaIcEEERKT_
FN:18855,_ZN7testing15AssertionResultD2Ev
FN:18887,_ZNK7testing15AssertionResultcvbEv
FN:18896,_ZNK7testing15AssertionResult7messageEv
FN:18901,_ZNK7testing15AssertionResult15failure_messageEv
FN:18988,_ZN7testing4Test13SetUpTestCaseEv
FN:18996,_ZN7testing4Test16TearDownTestCaseEv
FN:19073,_ZN7testing4Test5SetupEv
FN:19974,_ZN7testing8internal18CmpHelperEQFailureIbbEENS_15AssertionResultEPKcS4_RKT_RKT0_
FN:19986,_ZN7testing8internal11CmpHelperEQIbbEENS_15AssertionResultEPKcS4_RKT_RKT0_
FN:20016,_ZN7testing8internal8EqHelperILb0EE7CompareIbbEENS_15AssertionResultEPKcS6_RKT_RKT0_
FNDA:43,_ZN7testing8internal10scoped_ptrINSt7__cxx1112basic_stringIcSt11char_traitsIcESaIcEEEED2Ev
FNDA:846,_ZN7testing8internal10scoped_ptrINSt7__cxx1118basic_stringstreamIcSt11char_traitsIcESaIcEEEED2Ev
FNDA:24,_ZNK7testing8internal10scoped_ptrINSt7__cxx1112basic_stringIcSt11char_traitsIcESaIcEEEEptEv
FNDA:36,_ZNK7testing8internal10scoped_ptrINSt7__cxx1112basic_stringIcSt11char_traitsIcESaIcEEEE3getEv
FNDA:846,_ZN7testing8internal10scoped_ptrINSt7__cxx1118basic_stringstreamIcSt11char_traitsIcESaIcEEEE5resetEPS7_
FNDA:55,_ZN7testing8internal10scoped_ptrINSt7__cxx1112basic_stringIcSt11char_traitsIcESaIcEEEE5resetEPS7_
FNDA:846,_ZN7testing7MessageD2Ev
FNDA:0,_ZN7testing8internal15TestFactoryBaseD0Ev
FNDA:65,_ZN7testing8internal15TestFactoryBaseD2Ev
FNDA:65,_ZN7testing8internal15TestFactoryBaseC2Ev
FNDA:16,_ZN7testing8internal15TestFactoryImplI28EsPrimoTest_NumeroPrimo_TestED0Ev
FNDA:16,_ZN7testing8internal15TestFactoryImplI28EsPrimoTest_NumeroPrimo_TestED2Ev
FNDA:16,_ZN7testing8internal15TestFactoryImplI32EsPrimoTest_NumeroCompuesto_TestED0Ev
FNDA:16,_ZN7testing8internal15TestFactoryImplI32EsPrimoTest_NumeroCompuesto_TestED2Ev
FNDA:16,_ZN7testing8internal15TestFactoryImplI27EsPrimoTest_CasosBorde_TestED0Ev
FNDA:16,_ZN7testing8internal15TestFactoryImplI27EsPrimoTest_CasosBorde_TestED2Ev
FNDA:16,_ZN7testing8internal15TestFactoryImplI27EsPrimoTest_CasosBorde_TestEC2Ev
FNDA:16,_ZN7testing8internal15TestFactoryImplI32EsPrimoTest_NumeroCompuesto_TestEC2Ev
FNDA:16,_ZN7testing8internal15TestFactoryImplI28EsPrimoTest_NumeroPrimo_TestEC2Ev
FNDA:1,_ZN7testing8internal15TestFactoryImplI28EsPrimoTest_NumeroPrimo_TestE10CreateTestEv
FNDA:1,_ZN7testing8internal15TestFactoryImplI32EsPrimoTest_NumeroCompuesto_TestE10CreateTestEv
FNDA:1,_ZN7testing8internal15TestFactoryImplI27EsPrimoTest_CasosBorde_TestE10CreateTestEv
FNDA:195,_ZN7testing8internal12CodeLocationD2Ev
FNDA:65,_ZN7testing8internal12CodeLocationC2ERKNSt7__cxx1112basic_stringIcSt11char_traitsIcESaIcEEEi
FNDA:0,_ZN7testing8internal19FormatForComparisonIbbE6FormatB5cxx11ERKb
FNDA:0,_ZN7testing8internal33FormatForComparisonFailureMessageIbbEENSt7__cxx1112basic_stringIcSt11char_traitsIcESaIcEEERKT_RKT0_
FNDA:7,_ZN7testing8internal7PrintToEbPSo
FNDA:7,_ZN7testing8internal16UniversalPrinterIbE5PrintERKbPSo
FNDA:7,_ZN7testing8internal21UniversalTersePrinterIbE5PrintERKbPSo
FNDA:7,_ZN7testing8internal14UniversalPrintIbEEvRKT_PSo
FNDA:7,_ZN7testing13PrintToStringIbEENSt7__cxx1112basic_stringIcSt11char_traitsIcESaIcEEERKT_
FNDA:43,_ZN7testing15AssertionResultD2Ev
FNDA:31,_ZNK7testing15AssertionResultcvbEv
FNDA:12,_ZNK7testing15AssertionResult7messageEv
FNDA:12,_ZNK7testing15AssertionResult15failure_messageEv
FNDA:18,_ZN7testing4Test13SetUpTestCaseEv
FNDA:18,_ZN7testing4Test16TearDownTestCaseEv
FNDA:0,_ZN7testing4Test5SetupEv
FNDA:0,_ZN7testing8internal18CmpHelperEQFailureIbbEENS_15AssertionResultEPKcS4_RKT_RKT0_
FNDA:6,_ZN7testing8internal11CmpHelperEQIbbEENS_15AssertionResultEPKcS4_RKT_RKT0_
FNDA:6,_ZN7testing8internal8EqHelperILb0EE7CompareIbbEENS_15AssertionResultEPKcS6_RKT_RKT0_
FNF:41
FNH:36
DA:2395,889
DA:2398,24
DA:2399,36
DA:2407,901
DA:2408,901
DA:2409,882
DA:2410,882
DA:2412,882
DA:2414,901
DA:3935,846
DA:8201,65
DA:8208,65
DA:8217,144
DA:8219,3
DA:8239,195
DA:8240,65
DA:10334,0
DA:10335,0
DA:10408,0
DA:10410,0
DA:10554,7
DA:10555,7
DA:10556,7
DA:10757,7
DA:10766,7
DA:10767,7
DA:10842,7
DA:10843,7
DA:10844,7
DA:10911,7
DA:10915,7
DA:10916,7
DA:11039,7
DA:11040,14
DA:11041,7
DA:11042,14
DA:18855,43
DA:18887,31
DA:18896,12
DA:18897,12
DA:18901,12
DA:18988,18
DA:18996,18
DA:19073,0
DA:19974,0
DA:19981,0
DA:19986,6
DA:19991,6
DA:19992,6
DA:19996,0
DA:20016,6
DA:20020,6
LF:52
LH:44
end_of_record
SF:/home/ltoconas/Downloads/labo07/taller/test/ej1/esPrimoTEST.cpp
FN:4,_ZN28EsPrimoTest_NumeroPrimo_TestC2Ev
FN:4,_ZN28EsPrimoTest_NumeroPrimo_Test8TestBodyEv
FN:4,_ZN28EsPrimoTest_NumeroPrimo_TestD2Ev
FN:4,_ZN28EsPrimoTest_NumeroPrimo_TestD0Ev
FN:9,_ZN32EsPrimoTest_NumeroCompuesto_TestD0Ev
FN:9,_ZN32EsPrimoTest_NumeroCompuesto_TestD2Ev
FN:9,_ZN32EsPrimoTest_NumeroCompuesto_TestC2Ev
FN:9,_ZN32EsPrimoTest_NumeroCompuesto_Test8TestBodyEv
FN:14,_ZN27EsPrimoTest_CasosBorde_TestD0Ev
FN:14,_ZN27EsPrimoTest_CasosBorde_TestD2Ev
FN:14,_ZN27EsPrimoTest_CasosBorde_TestC2Ev
FN:14,_ZN27EsPrimoTest_CasosBorde_Test8TestBodyEv
FN:17,_Z41__static_initialization_and_destruction_0ii
FN:17,_GLOBAL__sub_I__ZN28EsPrimoTest_NumeroPrimo_Test10test_info_E
FNDA:1,_ZN28EsPrimoTest_NumeroPrimo_TestD0Ev
FNDA:1,_ZN28EsPrimoTest_NumeroPrimo_TestD2Ev
FNDA:1,_ZN28EsPrimoTest_NumeroPrimo_Test8TestBodyEv
FNDA:1,_ZN28EsPrimoTest_NumeroPrimo_TestC2Ev
FNDA:1,_ZN32EsPrimoTest_NumeroCompuesto_TestD0Ev
FNDA:1,_ZN32EsPrimoTest_NumeroCompuesto_TestD2Ev
FNDA:1,_ZN32EsPrimoTest_NumeroCompuesto_Test8TestBodyEv
FNDA:1,_ZN32EsPrimoTest_NumeroCompuesto_TestC2Ev
FNDA:1,_ZN27EsPrimoTest_CasosBorde_TestD0Ev
FNDA:1,_ZN27EsPrimoTest_CasosBorde_TestD2Ev
FNDA:1,_ZN27EsPrimoTest_CasosBorde_Test8TestBodyEv
FNDA:1,_ZN27EsPrimoTest_CasosBorde_TestC2Ev
FNDA:16,_GLOBAL__sub_I__ZN28EsPrimoTest_NumeroPrimo_Test10test_info_E
FNDA:16,_Z41__static_initialization_and_destruction_0ii
FNF:14
FNH:14
DA:4,20
DA:5,1
DA:6,1
DA:9,20
DA:10,1
DA:11,1
DA:14,20
DA:15,1
DA:16,1
DA:17,48
LF:10
LH:10
end_of_record
SF:/usr/include/c++/7/bits/ios_base.h
FN:129,_ZStorSt13_Ios_OpenmodeS_
FNDA:870,_ZStorSt13_Ios_OpenmodeS_
FNF:1
FNH:1
DA:129,870
DA:130,870
LF:2
LH:2
end_of_record
SF:/usr/include/c++/7/iostream
DA:74,16
LF:1
LH:1
end_of_record
TN:
SF:/home/ltoconas/Downloads/labo07/taller/lib/gtest/gtest.h
FN:21188,_Z13RUN_ALL_TESTSv
FNDA:19,_Z13RUN_ALL_TESTSv
FNF:1
FNH:1
DA:21188,19
DA:21189,19
LF:2
LH:2
end_of_record
SF:/home/ltoconas/Downloads/labo07/taller/test/correrTests.cpp
FN:3,main
FN:6,_Z41__static_initialization_and_destruction_0ii
FN:6,_GLOBAL__sub_I_main
FNDA:19,main
FNDA:19,_GLOBAL__sub_I_main
FNDA:19,_Z41__static_initialization_and_destruction_0ii
FNF:3
FNH:3
DA:3,19
DA:4,19
DA:5,19
DA:6,57
LF:4
LH:4
end_of_record
SF:/usr/include/c++/7/iostream
DA:74,19
LF:1
LH:1
end_of_record
TN:
SF:/home/ltoconas/Downloads/labo07/taller/lib/gtest/gtest.h
FN:21190,_GLOBAL__sub_I_sandiaTEST.cpp
FN:21190,_Z41__static_initialization_and_destruction_0ii
FNDA:19,_GLOBAL__sub_I_sandiaTEST.cpp
FNDA:19,_Z41__static_initialization_and_destruction_0ii
FNF:2
FNH:2
DA:21190,57
LF:1
LH:1
end_of_record
SF:/usr/include/c++/7/iostream
DA:74,19
LF:1
LH:1
end_of_record
TN:
SF:/home/ltoconas/Downloads/labo07/taller/lib/gtest/gtest.h
FN:21190,_GLOBAL__sub_I_baldosasDelPisoTEST.cpp
FN:21190,_Z41__static_initialization_and_destruction_0ii
FNDA:19,_GLOBAL__sub_I_baldosasDelPisoTEST.cpp
FNDA:19,_Z41__static_initialization_and_destruction_0ii
FNF:2
FNH:2
DA:21190,57
LF:1
LH:1
end_of_record
SF:/usr/include/c++/7/iostream
DA:74,19
LF:1
LH:1
end_of_record
TN:
SF:/home/ltoconas/Downloads/labo07/taller/lib/gtest/gtest.h
FN:21190,_Z41__static_initialization_and_destruction_0ii
FN:21190,_GLOBAL__sub_I_contandoDragonesTEST.cpp
FNDA:19,_GLOBAL__sub_I_contandoDragonesTEST.cpp
FNDA:19,_Z41__static_initialization_and_destruction_0ii
FNF:2
FNH:2
DA:21190,57
LF:1
LH:1
end_of_record
SF:/usr/include/c++/7/iostream
DA:74,19
LF:1
LH:1
end_of_record
